
pataTX.elf:     file format elf32-avr

Sections:
Idx Name          Size      VMA       LMA       File off  Algn
  0 .data         000004a6  00800100  000050b0  00005144  2**0
                  CONTENTS, ALLOC, LOAD, DATA
  1 .text         000050b0  00000000  00000000  00000094  2**1
                  CONTENTS, ALLOC, LOAD, READONLY, CODE
  2 .bss          00000042  008005a6  008005a6  000055ea  2**0
                  ALLOC
  3 .comment      00000030  00000000  00000000  000055ea  2**0
                  CONTENTS, READONLY
  4 .note.gnu.avr.deviceinfo 00000040  00000000  00000000  0000561c  2**2
                  CONTENTS, READONLY
  5 .debug_aranges 00000228  00000000  00000000  00005660  2**3
                  CONTENTS, READONLY, DEBUGGING
  6 .debug_info   00003fe7  00000000  00000000  00005888  2**0
                  CONTENTS, READONLY, DEBUGGING
  7 .debug_abbrev 00000ea0  00000000  00000000  0000986f  2**0
                  CONTENTS, READONLY, DEBUGGING
  8 .debug_line   00004bdb  00000000  00000000  0000a70f  2**0
                  CONTENTS, READONLY, DEBUGGING
  9 .debug_frame  00000408  00000000  00000000  0000f2ec  2**2
                  CONTENTS, READONLY, DEBUGGING
 10 .debug_str    00000a25  00000000  00000000  0000f6f4  2**0
                  CONTENTS, READONLY, DEBUGGING
 11 .debug_loc    0000207e  00000000  00000000  00010119  2**0
                  CONTENTS, READONLY, DEBUGGING
 12 .debug_ranges 00000198  00000000  00000000  00012197  2**0
                  CONTENTS, READONLY, DEBUGGING

Disassembly of section .text:

00000000 <__vectors>:
       0:	0c 94 62 01 	jmp	0x2c4	; 0x2c4 <__ctors_end>
       4:	0c 94 8e 02 	jmp	0x51c	; 0x51c <__vector_1>
       8:	0c 94 7f 01 	jmp	0x2fe	; 0x2fe <__bad_interrupt>
       c:	0c 94 7f 01 	jmp	0x2fe	; 0x2fe <__bad_interrupt>
      10:	0c 94 7f 01 	jmp	0x2fe	; 0x2fe <__bad_interrupt>
      14:	0c 94 7f 01 	jmp	0x2fe	; 0x2fe <__bad_interrupt>
      18:	0c 94 7f 01 	jmp	0x2fe	; 0x2fe <__bad_interrupt>
      1c:	0c 94 7f 01 	jmp	0x2fe	; 0x2fe <__bad_interrupt>
      20:	0c 94 7f 01 	jmp	0x2fe	; 0x2fe <__bad_interrupt>
      24:	0c 94 7f 01 	jmp	0x2fe	; 0x2fe <__bad_interrupt>
      28:	0c 94 7f 01 	jmp	0x2fe	; 0x2fe <__bad_interrupt>
      2c:	0c 94 7f 01 	jmp	0x2fe	; 0x2fe <__bad_interrupt>
      30:	0c 94 7f 01 	jmp	0x2fe	; 0x2fe <__bad_interrupt>
      34:	0c 94 7f 01 	jmp	0x2fe	; 0x2fe <__bad_interrupt>
      38:	0c 94 7f 01 	jmp	0x2fe	; 0x2fe <__bad_interrupt>
      3c:	0c 94 7f 01 	jmp	0x2fe	; 0x2fe <__bad_interrupt>
      40:	0c 94 36 0d 	jmp	0x1a6c	; 0x1a6c <__vector_16>
      44:	0c 94 7f 01 	jmp	0x2fe	; 0x2fe <__bad_interrupt>
      48:	0c 94 7f 01 	jmp	0x2fe	; 0x2fe <__bad_interrupt>
      4c:	0c 94 7f 01 	jmp	0x2fe	; 0x2fe <__bad_interrupt>
      50:	0c 94 7f 01 	jmp	0x2fe	; 0x2fe <__bad_interrupt>
      54:	0c 94 7f 01 	jmp	0x2fe	; 0x2fe <__bad_interrupt>
      58:	0c 94 7f 01 	jmp	0x2fe	; 0x2fe <__bad_interrupt>
      5c:	0c 94 7f 01 	jmp	0x2fe	; 0x2fe <__bad_interrupt>
      60:	0c 94 7f 01 	jmp	0x2fe	; 0x2fe <__bad_interrupt>
      64:	0c 94 7f 01 	jmp	0x2fe	; 0x2fe <__bad_interrupt>
      68:	0c 94 7f 01 	jmp	0x2fe	; 0x2fe <__bad_interrupt>
      6c:	0c 94 7f 01 	jmp	0x2fe	; 0x2fe <__bad_interrupt>
      70:	0c 94 7f 01 	jmp	0x2fe	; 0x2fe <__bad_interrupt>
      74:	0c 94 7f 01 	jmp	0x2fe	; 0x2fe <__bad_interrupt>
      78:	0c 94 7f 01 	jmp	0x2fe	; 0x2fe <__bad_interrupt>
      7c:	0c 94 7f 01 	jmp	0x2fe	; 0x2fe <__bad_interrupt>
      80:	0c 94 7f 01 	jmp	0x2fe	; 0x2fe <__bad_interrupt>
      84:	0c 94 7f 01 	jmp	0x2fe	; 0x2fe <__bad_interrupt>
      88:	0c 94 7f 01 	jmp	0x2fe	; 0x2fe <__bad_interrupt>
      8c:	0c 94 7f 01 	jmp	0x2fe	; 0x2fe <__bad_interrupt>
      90:	0c 94 7f 01 	jmp	0x2fe	; 0x2fe <__bad_interrupt>
      94:	0c 94 7f 01 	jmp	0x2fe	; 0x2fe <__bad_interrupt>
      98:	0c 94 7f 01 	jmp	0x2fe	; 0x2fe <__bad_interrupt>
      9c:	0c 94 7f 01 	jmp	0x2fe	; 0x2fe <__bad_interrupt>
      a0:	0c 94 7f 01 	jmp	0x2fe	; 0x2fe <__bad_interrupt>
      a4:	0c 94 7f 01 	jmp	0x2fe	; 0x2fe <__bad_interrupt>
      a8:	0c 94 7f 01 	jmp	0x2fe	; 0x2fe <__bad_interrupt>
      ac:	0c 94 7f 01 	jmp	0x2fe	; 0x2fe <__bad_interrupt>
      b0:	0c 94 7f 01 	jmp	0x2fe	; 0x2fe <__bad_interrupt>
      b4:	de 19       	sub	r29, r14
      b6:	ec 19       	sub	r30, r12
      b8:	f3 19       	sub	r31, r3
      ba:	0d 1a       	sub	r0, r29
      bc:	fa 19       	sub	r31, r10
      be:	0d 1a       	sub	r0, r29
      c0:	0d 1a       	sub	r0, r29
      c2:	0d 1a       	sub	r0, r29
      c4:	01 1a       	sub	r0, r17
      c6:	0d 1a       	sub	r0, r29
      c8:	0d 1a       	sub	r0, r29
      ca:	0d 1a       	sub	r0, r29
      cc:	0d 1a       	sub	r0, r29
      ce:	0d 1a       	sub	r0, r29
      d0:	0d 1a       	sub	r0, r29
      d2:	0d 1a       	sub	r0, r29
      d4:	07 1a       	sub	r0, r23
      d6:	0d 1a       	sub	r0, r29
      d8:	0d 1a       	sub	r0, r29
      da:	0d 1a       	sub	r0, r29
      dc:	0d 1a       	sub	r0, r29
      de:	0d 1a       	sub	r0, r29
      e0:	0d 1a       	sub	r0, r29
      e2:	0d 1a       	sub	r0, r29
      e4:	0d 1a       	sub	r0, r29
      e6:	0d 1a       	sub	r0, r29
      e8:	0d 1a       	sub	r0, r29
      ea:	0d 1a       	sub	r0, r29
      ec:	0d 1a       	sub	r0, r29
      ee:	0d 1a       	sub	r0, r29
      f0:	0d 1a       	sub	r0, r29
      f2:	0d 1a       	sub	r0, r29
      f4:	e4 19       	sub	r30, r4
      f6:	18 1a       	sub	r1, r24
      f8:	26 1a       	sub	r2, r22
      fa:	2d 1a       	sub	r2, r29
      fc:	47 1a       	sub	r4, r23
      fe:	34 1a       	sub	r3, r20
     100:	47 1a       	sub	r4, r23
     102:	47 1a       	sub	r4, r23
     104:	47 1a       	sub	r4, r23
     106:	3b 1a       	sub	r3, r27
     108:	47 1a       	sub	r4, r23
     10a:	47 1a       	sub	r4, r23
     10c:	47 1a       	sub	r4, r23
     10e:	47 1a       	sub	r4, r23
     110:	47 1a       	sub	r4, r23
     112:	47 1a       	sub	r4, r23
     114:	47 1a       	sub	r4, r23
     116:	41 1a       	sub	r4, r17
     118:	47 1a       	sub	r4, r23
     11a:	47 1a       	sub	r4, r23
     11c:	47 1a       	sub	r4, r23
     11e:	47 1a       	sub	r4, r23
     120:	47 1a       	sub	r4, r23
     122:	47 1a       	sub	r4, r23
     124:	47 1a       	sub	r4, r23
     126:	47 1a       	sub	r4, r23
     128:	47 1a       	sub	r4, r23
     12a:	47 1a       	sub	r4, r23
     12c:	47 1a       	sub	r4, r23
     12e:	47 1a       	sub	r4, r23
     130:	47 1a       	sub	r4, r23
     132:	47 1a       	sub	r4, r23
     134:	47 1a       	sub	r4, r23
     136:	1e 1a       	sub	r1, r30
     138:	52 1a       	sub	r5, r18
     13a:	62 1a       	sub	r6, r18
     13c:	6a 1a       	sub	r6, r26
     13e:	88 1a       	sub	r8, r24
     140:	72 1a       	sub	r7, r18
     142:	88 1a       	sub	r8, r24
     144:	88 1a       	sub	r8, r24
     146:	88 1a       	sub	r8, r24
     148:	7a 1a       	sub	r7, r26
     14a:	88 1a       	sub	r8, r24
     14c:	88 1a       	sub	r8, r24
     14e:	88 1a       	sub	r8, r24
     150:	88 1a       	sub	r8, r24
     152:	88 1a       	sub	r8, r24
     154:	88 1a       	sub	r8, r24
     156:	88 1a       	sub	r8, r24
     158:	81 1a       	sub	r8, r17
     15a:	88 1a       	sub	r8, r24
     15c:	88 1a       	sub	r8, r24
     15e:	88 1a       	sub	r8, r24
     160:	88 1a       	sub	r8, r24
     162:	88 1a       	sub	r8, r24
     164:	88 1a       	sub	r8, r24
     166:	88 1a       	sub	r8, r24
     168:	88 1a       	sub	r8, r24
     16a:	88 1a       	sub	r8, r24
     16c:	88 1a       	sub	r8, r24
     16e:	88 1a       	sub	r8, r24
     170:	88 1a       	sub	r8, r24
     172:	88 1a       	sub	r8, r24
     174:	88 1a       	sub	r8, r24
     176:	88 1a       	sub	r8, r24
     178:	59 1a       	sub	r5, r25
     17a:	94 1a       	sub	r9, r20
     17c:	b4 1a       	sub	r11, r20
     17e:	c4 1a       	sub	r12, r20
     180:	1f 1c       	adc	r1, r15
     182:	d4 1a       	sub	r13, r20
     184:	1f 1c       	adc	r1, r15
     186:	1f 1c       	adc	r1, r15
     188:	1f 1c       	adc	r1, r15
     18a:	e4 1a       	sub	r14, r20
     18c:	1f 1c       	adc	r1, r15
     18e:	1f 1c       	adc	r1, r15
     190:	1f 1c       	adc	r1, r15
     192:	1f 1c       	adc	r1, r15
     194:	1f 1c       	adc	r1, r15
     196:	1f 1c       	adc	r1, r15
     198:	1f 1c       	adc	r1, r15
     19a:	f3 1a       	sub	r15, r19
     19c:	1f 1c       	adc	r1, r15
     19e:	1f 1c       	adc	r1, r15
     1a0:	1f 1c       	adc	r1, r15
     1a2:	1f 1c       	adc	r1, r15
     1a4:	1f 1c       	adc	r1, r15
     1a6:	1f 1c       	adc	r1, r15
     1a8:	1f 1c       	adc	r1, r15
     1aa:	1f 1c       	adc	r1, r15
     1ac:	1f 1c       	adc	r1, r15
     1ae:	1f 1c       	adc	r1, r15
     1b0:	1f 1c       	adc	r1, r15
     1b2:	1f 1c       	adc	r1, r15
     1b4:	1f 1c       	adc	r1, r15
     1b6:	1f 1c       	adc	r1, r15
     1b8:	1f 1c       	adc	r1, r15
     1ba:	a3 1a       	sub	r10, r19
     1bc:	11 1b       	sub	r17, r17
     1be:	1f 1b       	sub	r17, r31
     1c0:	26 1b       	sub	r18, r22
     1c2:	40 1b       	sub	r20, r16
     1c4:	2d 1b       	sub	r18, r29
     1c6:	40 1b       	sub	r20, r16
     1c8:	40 1b       	sub	r20, r16
     1ca:	40 1b       	sub	r20, r16
     1cc:	34 1b       	sub	r19, r20
     1ce:	40 1b       	sub	r20, r16
     1d0:	40 1b       	sub	r20, r16
     1d2:	40 1b       	sub	r20, r16
     1d4:	40 1b       	sub	r20, r16
     1d6:	40 1b       	sub	r20, r16
     1d8:	40 1b       	sub	r20, r16
     1da:	40 1b       	sub	r20, r16
     1dc:	3a 1b       	sub	r19, r26
     1de:	40 1b       	sub	r20, r16
     1e0:	40 1b       	sub	r20, r16
     1e2:	40 1b       	sub	r20, r16
     1e4:	40 1b       	sub	r20, r16
     1e6:	40 1b       	sub	r20, r16
     1e8:	40 1b       	sub	r20, r16
     1ea:	40 1b       	sub	r20, r16
     1ec:	40 1b       	sub	r20, r16
     1ee:	40 1b       	sub	r20, r16
     1f0:	40 1b       	sub	r20, r16
     1f2:	40 1b       	sub	r20, r16
     1f4:	40 1b       	sub	r20, r16
     1f6:	40 1b       	sub	r20, r16
     1f8:	40 1b       	sub	r20, r16
     1fa:	40 1b       	sub	r20, r16
     1fc:	17 1b       	sub	r17, r23
     1fe:	4c 1b       	sub	r20, r28
     200:	60 1b       	sub	r22, r16
     202:	6a 1b       	sub	r22, r26
     204:	28 1c       	adc	r2, r8
     206:	74 1b       	sub	r23, r20
     208:	28 1c       	adc	r2, r8
     20a:	28 1c       	adc	r2, r8
     20c:	28 1c       	adc	r2, r8
     20e:	7e 1b       	sub	r23, r30
     210:	28 1c       	adc	r2, r8
     212:	28 1c       	adc	r2, r8
     214:	28 1c       	adc	r2, r8
     216:	28 1c       	adc	r2, r8
     218:	28 1c       	adc	r2, r8
     21a:	28 1c       	adc	r2, r8
     21c:	28 1c       	adc	r2, r8
     21e:	87 1b       	sub	r24, r23
     220:	28 1c       	adc	r2, r8
     222:	28 1c       	adc	r2, r8
     224:	28 1c       	adc	r2, r8
     226:	28 1c       	adc	r2, r8
     228:	28 1c       	adc	r2, r8
     22a:	28 1c       	adc	r2, r8
     22c:	28 1c       	adc	r2, r8
     22e:	28 1c       	adc	r2, r8
     230:	28 1c       	adc	r2, r8
     232:	28 1c       	adc	r2, r8
     234:	28 1c       	adc	r2, r8
     236:	28 1c       	adc	r2, r8
     238:	28 1c       	adc	r2, r8
     23a:	28 1c       	adc	r2, r8
     23c:	28 1c       	adc	r2, r8
     23e:	55 1b       	sub	r21, r21
     240:	9f 1b       	sub	r25, r31
     242:	ad 1b       	sub	r26, r29
     244:	b4 1b       	sub	r27, r20
     246:	ce 1b       	sub	r28, r30
     248:	bb 1b       	sub	r27, r27
     24a:	ce 1b       	sub	r28, r30
     24c:	ce 1b       	sub	r28, r30
     24e:	ce 1b       	sub	r28, r30
     250:	c2 1b       	sub	r28, r18
     252:	ce 1b       	sub	r28, r30
     254:	ce 1b       	sub	r28, r30
     256:	ce 1b       	sub	r28, r30
     258:	ce 1b       	sub	r28, r30
     25a:	ce 1b       	sub	r28, r30
     25c:	ce 1b       	sub	r28, r30
     25e:	ce 1b       	sub	r28, r30
     260:	c8 1b       	sub	r28, r24
     262:	ce 1b       	sub	r28, r30
     264:	ce 1b       	sub	r28, r30
     266:	ce 1b       	sub	r28, r30
     268:	ce 1b       	sub	r28, r30
     26a:	ce 1b       	sub	r28, r30
     26c:	ce 1b       	sub	r28, r30
     26e:	ce 1b       	sub	r28, r30
     270:	ce 1b       	sub	r28, r30
     272:	ce 1b       	sub	r28, r30
     274:	ce 1b       	sub	r28, r30
     276:	ce 1b       	sub	r28, r30
     278:	ce 1b       	sub	r28, r30
     27a:	ce 1b       	sub	r28, r30
     27c:	ce 1b       	sub	r28, r30
     27e:	ce 1b       	sub	r28, r30
     280:	a5 1b       	sub	r26, r21
     282:	da 1b       	sub	r29, r26
     284:	ee 1b       	sub	r30, r30
     286:	f8 1b       	sub	r31, r24
     288:	3a 1c       	adc	r3, r10
     28a:	02 1c       	adc	r0, r2
     28c:	3a 1c       	adc	r3, r10
     28e:	3a 1c       	adc	r3, r10
     290:	3a 1c       	adc	r3, r10
     292:	0c 1c       	adc	r0, r12
     294:	3a 1c       	adc	r3, r10
     296:	3a 1c       	adc	r3, r10
     298:	3a 1c       	adc	r3, r10
     29a:	3a 1c       	adc	r3, r10
     29c:	3a 1c       	adc	r3, r10
     29e:	3a 1c       	adc	r3, r10
     2a0:	3a 1c       	adc	r3, r10
     2a2:	15 1c       	adc	r1, r5
     2a4:	3a 1c       	adc	r3, r10
     2a6:	3a 1c       	adc	r3, r10
     2a8:	3a 1c       	adc	r3, r10
     2aa:	3a 1c       	adc	r3, r10
     2ac:	3a 1c       	adc	r3, r10
     2ae:	3a 1c       	adc	r3, r10
     2b0:	3a 1c       	adc	r3, r10
     2b2:	3a 1c       	adc	r3, r10
     2b4:	3a 1c       	adc	r3, r10
     2b6:	3a 1c       	adc	r3, r10
     2b8:	3a 1c       	adc	r3, r10
     2ba:	3a 1c       	adc	r3, r10
     2bc:	3a 1c       	adc	r3, r10
     2be:	3a 1c       	adc	r3, r10
     2c0:	3a 1c       	adc	r3, r10
     2c2:	e3 1b       	sub	r30, r19

000002c4 <__ctors_end>:
     2c4:	11 24       	eor	r1, r1
     2c6:	1f be       	out	0x3f, r1	; 63
     2c8:	cf ef       	ldi	r28, 0xFF	; 255
     2ca:	d8 e0       	ldi	r29, 0x08	; 8
     2cc:	de bf       	out	0x3e, r29	; 62
     2ce:	cd bf       	out	0x3d, r28	; 61

000002d0 <__do_copy_data>:
     2d0:	15 e0       	ldi	r17, 0x05	; 5
     2d2:	a0 e0       	ldi	r26, 0x00	; 0
     2d4:	b1 e0       	ldi	r27, 0x01	; 1
     2d6:	e0 eb       	ldi	r30, 0xB0	; 176
     2d8:	f0 e5       	ldi	r31, 0x50	; 80
     2da:	02 c0       	rjmp	.+4      	; 0x2e0 <__do_copy_data+0x10>
     2dc:	05 90       	lpm	r0, Z+
     2de:	0d 92       	st	X+, r0
     2e0:	a6 3a       	cpi	r26, 0xA6	; 166
     2e2:	b1 07       	cpc	r27, r17
     2e4:	d9 f7       	brne	.-10     	; 0x2dc <__do_copy_data+0xc>

000002e6 <__do_clear_bss>:
     2e6:	25 e0       	ldi	r18, 0x05	; 5
     2e8:	a6 ea       	ldi	r26, 0xA6	; 166
     2ea:	b5 e0       	ldi	r27, 0x05	; 5
     2ec:	01 c0       	rjmp	.+2      	; 0x2f0 <.do_clear_bss_start>

000002ee <.do_clear_bss_loop>:
     2ee:	1d 92       	st	X+, r1

000002f0 <.do_clear_bss_start>:
     2f0:	a8 3e       	cpi	r26, 0xE8	; 232
     2f2:	b2 07       	cpc	r27, r18
     2f4:	e1 f7       	brne	.-8      	; 0x2ee <.do_clear_bss_loop>
     2f6:	0e 94 94 21 	call	0x4328	; 0x4328 <main>
     2fa:	0c 94 56 28 	jmp	0x50ac	; 0x50ac <_exit>

000002fe <__bad_interrupt>:
     2fe:	0c 94 00 00 	jmp	0	; 0x0 <__vectors>

00000302 <LCD_CMD>:

/**************************************************************/
/*                       LCD Command                          */
/**************************************************************/
void LCD_CMD(uint8_t cmd)
{
     302:	cf 93       	push	r28
     304:	df 93       	push	r29
     306:	c8 2f       	mov	r28, r24
	uint8_t tx;
	i2c_start(SLAVE_ADDR<<1);
     308:	8e e7       	ldi	r24, 0x7E	; 126
     30a:	0e 94 22 25 	call	0x4a44	; 0x4a44 <i2c_start>
	
	tx = cmd & 0xF0;
     30e:	dc 2f       	mov	r29, r28
     310:	d0 7f       	andi	r29, 0xF0	; 240
	i2c_write(tx);
     312:	8d 2f       	mov	r24, r29
     314:	0e 94 36 25 	call	0x4a6c	; 0x4a6c <i2c_write>
	i2c_write(tx|EN);
     318:	8d 2f       	mov	r24, r29
     31a:	84 60       	ori	r24, 0x04	; 4
     31c:	0e 94 36 25 	call	0x4a6c	; 0x4a6c <i2c_write>
	i2c_write(tx);
     320:	8d 2f       	mov	r24, r29
     322:	0e 94 36 25 	call	0x4a6c	; 0x4a6c <i2c_write>
	
	tx = (cmd<<4) & 0xF0;
     326:	80 e1       	ldi	r24, 0x10	; 16
     328:	c8 9f       	mul	r28, r24
     32a:	e0 01       	movw	r28, r0
     32c:	11 24       	eor	r1, r1
	i2c_write(tx);
     32e:	8c 2f       	mov	r24, r28
     330:	0e 94 36 25 	call	0x4a6c	; 0x4a6c <i2c_write>
	i2c_write(tx|EN);
     334:	8c 2f       	mov	r24, r28
     336:	84 60       	ori	r24, 0x04	; 4
     338:	0e 94 36 25 	call	0x4a6c	; 0x4a6c <i2c_write>
	i2c_write(tx);
     33c:	8c 2f       	mov	r24, r28
     33e:	0e 94 36 25 	call	0x4a6c	; 0x4a6c <i2c_write>
	
	i2c_stop();
     342:	0e 94 42 25 	call	0x4a84	; 0x4a84 <i2c_stop>
	#else
		//round up by default
		__ticks_dc = (uint32_t)(ceil(fabs(__tmp)));
	#endif

	__builtin_avr_delay_cycles(__ticks_dc);
     346:	87 ee       	ldi	r24, 0xE7	; 231
     348:	93 e0       	ldi	r25, 0x03	; 3
     34a:	01 97       	sbiw	r24, 0x01	; 1
     34c:	f1 f7       	brne	.-4      	; 0x34a <LCD_CMD+0x48>
     34e:	00 c0       	rjmp	.+0      	; 0x350 <LCD_CMD+0x4e>
     350:	00 00       	nop
	_delay_us(500);
	
}
     352:	df 91       	pop	r29
     354:	cf 91       	pop	r28
     356:	08 95       	ret

00000358 <LCD_write>:
void LCD_write(uint8_t data)
{
     358:	1f 93       	push	r17
     35a:	cf 93       	push	r28
     35c:	df 93       	push	r29
     35e:	c8 2f       	mov	r28, r24
	uint8_t tx;
	i2c_start(SLAVE_ADDR<<1);
     360:	8e e7       	ldi	r24, 0x7E	; 126
     362:	0e 94 22 25 	call	0x4a44	; 0x4a44 <i2c_start>
	
	tx = (data & 0xF0)|RS|BCKLIGHT;
     366:	1c 2f       	mov	r17, r28
     368:	10 7f       	andi	r17, 0xF0	; 240
     36a:	d1 2f       	mov	r29, r17
     36c:	d9 60       	ori	r29, 0x09	; 9
	i2c_write(tx);
     36e:	8d 2f       	mov	r24, r29
     370:	0e 94 36 25 	call	0x4a6c	; 0x4a6c <i2c_write>
	i2c_write(tx|EN);
     374:	81 2f       	mov	r24, r17
     376:	8d 60       	ori	r24, 0x0D	; 13
     378:	0e 94 36 25 	call	0x4a6c	; 0x4a6c <i2c_write>
	i2c_write(tx);
     37c:	8d 2f       	mov	r24, r29
     37e:	0e 94 36 25 	call	0x4a6c	; 0x4a6c <i2c_write>
	
	tx = ((data<<4) & 0xF0)|RS|BCKLIGHT;
     382:	80 e1       	ldi	r24, 0x10	; 16
     384:	c8 9f       	mul	r28, r24
     386:	e0 01       	movw	r28, r0
     388:	11 24       	eor	r1, r1
     38a:	dc 2f       	mov	r29, r28
     38c:	d9 60       	ori	r29, 0x09	; 9
	i2c_write(tx);
     38e:	8d 2f       	mov	r24, r29
     390:	0e 94 36 25 	call	0x4a6c	; 0x4a6c <i2c_write>
	i2c_write(tx|EN);
     394:	8c 2f       	mov	r24, r28
     396:	8d 60       	ori	r24, 0x0D	; 13
     398:	0e 94 36 25 	call	0x4a6c	; 0x4a6c <i2c_write>
	i2c_write(tx);
     39c:	8d 2f       	mov	r24, r29
     39e:	0e 94 36 25 	call	0x4a6c	; 0x4a6c <i2c_write>
	
	i2c_stop();
     3a2:	0e 94 42 25 	call	0x4a84	; 0x4a84 <i2c_stop>
     3a6:	85 e8       	ldi	r24, 0x85	; 133
     3a8:	8a 95       	dec	r24
     3aa:	f1 f7       	brne	.-4      	; 0x3a8 <LCD_write+0x50>
     3ac:	00 00       	nop
	_delay_us(50);
	
}
     3ae:	df 91       	pop	r29
     3b0:	cf 91       	pop	r28
     3b2:	1f 91       	pop	r17
     3b4:	08 95       	ret

000003b6 <LCD_string>:
void LCD_string(char* string, uint8_t length)
{
     3b6:	0f 93       	push	r16
     3b8:	1f 93       	push	r17
     3ba:	cf 93       	push	r28
     3bc:	df 93       	push	r29
	for (uint8_t i = 0; i < length; i++)
     3be:	66 23       	and	r22, r22
     3c0:	71 f0       	breq	.+28     	; 0x3de <LCD_string+0x28>
     3c2:	ec 01       	movw	r28, r24
     3c4:	61 50       	subi	r22, 0x01	; 1
     3c6:	06 2f       	mov	r16, r22
     3c8:	10 e0       	ldi	r17, 0x00	; 0
     3ca:	0f 5f       	subi	r16, 0xFF	; 255
     3cc:	1f 4f       	sbci	r17, 0xFF	; 255
     3ce:	08 0f       	add	r16, r24
     3d0:	19 1f       	adc	r17, r25
	{
		LCD_write(string[i]);
     3d2:	89 91       	ld	r24, Y+
     3d4:	0e 94 ac 01 	call	0x358	; 0x358 <LCD_write>
	_delay_us(50);
	
}
void LCD_string(char* string, uint8_t length)
{
	for (uint8_t i = 0; i < length; i++)
     3d8:	c0 17       	cp	r28, r16
     3da:	d1 07       	cpc	r29, r17
     3dc:	d1 f7       	brne	.-12     	; 0x3d2 <LCD_string+0x1c>
	{
		LCD_write(string[i]);
	}
	
}
     3de:	df 91       	pop	r29
     3e0:	cf 91       	pop	r28
     3e2:	1f 91       	pop	r17
     3e4:	0f 91       	pop	r16
     3e6:	08 95       	ret

000003e8 <LCD_init>:


void LCD_init()
{
	i2c_init();
     3e8:	0e 94 1c 25 	call	0x4a38	; 0x4a38 <i2c_init>
	#else
		//round up by default
		__ticks_dc = (uint32_t)(ceil(fabs(__tmp)));
	#endif

	__builtin_avr_delay_cycles(__ticks_dc);
     3ec:	2f ef       	ldi	r18, 0xFF	; 255
     3ee:	89 ef       	ldi	r24, 0xF9	; 249
     3f0:	90 e0       	ldi	r25, 0x00	; 0
     3f2:	21 50       	subi	r18, 0x01	; 1
     3f4:	80 40       	sbci	r24, 0x00	; 0
     3f6:	90 40       	sbci	r25, 0x00	; 0
     3f8:	e1 f7       	brne	.-8      	; 0x3f2 <LCD_init+0xa>
     3fa:	00 c0       	rjmp	.+0      	; 0x3fc <LCD_init+0x14>
     3fc:	00 00       	nop
	_delay_ms(40);
	
	i2c_start(SLAVE_ADDR<<1);
     3fe:	8e e7       	ldi	r24, 0x7E	; 126
     400:	0e 94 22 25 	call	0x4a44	; 0x4a44 <i2c_start>
	// Set to 4-bit mode
	i2c_write(0x30);
     404:	80 e3       	ldi	r24, 0x30	; 48
     406:	0e 94 36 25 	call	0x4a6c	; 0x4a6c <i2c_write>
	i2c_write(0x30|EN);
     40a:	84 e3       	ldi	r24, 0x34	; 52
     40c:	0e 94 36 25 	call	0x4a6c	; 0x4a6c <i2c_write>
	i2c_write(0x30);
     410:	80 e3       	ldi	r24, 0x30	; 48
     412:	0e 94 36 25 	call	0x4a6c	; 0x4a6c <i2c_write>
     416:	8f e0       	ldi	r24, 0x0F	; 15
     418:	97 e2       	ldi	r25, 0x27	; 39
     41a:	01 97       	sbiw	r24, 0x01	; 1
     41c:	f1 f7       	brne	.-4      	; 0x41a <__LOCK_REGION_LENGTH__+0x1a>
     41e:	00 c0       	rjmp	.+0      	; 0x420 <__LOCK_REGION_LENGTH__+0x20>
     420:	00 00       	nop
	_delay_ms(5);
	
	i2c_write(0x30|EN);
     422:	84 e3       	ldi	r24, 0x34	; 52
     424:	0e 94 36 25 	call	0x4a6c	; 0x4a6c <i2c_write>
	i2c_write(0x30);
     428:	80 e3       	ldi	r24, 0x30	; 48
     42a:	0e 94 36 25 	call	0x4a6c	; 0x4a6c <i2c_write>
	#else
		//round up by default
		__ticks_dc = (uint32_t)(ceil(fabs(__tmp)));
	#endif

	__builtin_avr_delay_cycles(__ticks_dc);
     42e:	8f ee       	ldi	r24, 0xEF	; 239
     430:	90 e0       	ldi	r25, 0x00	; 0
     432:	01 97       	sbiw	r24, 0x01	; 1
     434:	f1 f7       	brne	.-4      	; 0x432 <__LOCK_REGION_LENGTH__+0x32>
     436:	00 c0       	rjmp	.+0      	; 0x438 <__LOCK_REGION_LENGTH__+0x38>
     438:	00 00       	nop
	_delay_us(120);
	
	i2c_write(0x30|EN);
     43a:	84 e3       	ldi	r24, 0x34	; 52
     43c:	0e 94 36 25 	call	0x4a6c	; 0x4a6c <i2c_write>
	i2c_write(0x30);
     440:	80 e3       	ldi	r24, 0x30	; 48
     442:	0e 94 36 25 	call	0x4a6c	; 0x4a6c <i2c_write>
     446:	8f ee       	ldi	r24, 0xEF	; 239
     448:	90 e0       	ldi	r25, 0x00	; 0
     44a:	01 97       	sbiw	r24, 0x01	; 1
     44c:	f1 f7       	brne	.-4      	; 0x44a <__LOCK_REGION_LENGTH__+0x4a>
     44e:	00 c0       	rjmp	.+0      	; 0x450 <__LOCK_REGION_LENGTH__+0x50>
     450:	00 00       	nop
	_delay_us(120);
	
	i2c_write(0x20);
     452:	80 e2       	ldi	r24, 0x20	; 32
     454:	0e 94 36 25 	call	0x4a6c	; 0x4a6c <i2c_write>
	i2c_write(0x20|EN);
     458:	84 e2       	ldi	r24, 0x24	; 36
     45a:	0e 94 36 25 	call	0x4a6c	; 0x4a6c <i2c_write>
	i2c_write(0x20);
     45e:	80 e2       	ldi	r24, 0x20	; 32
     460:	0e 94 36 25 	call	0x4a6c	; 0x4a6c <i2c_write>
     464:	8f ee       	ldi	r24, 0xEF	; 239
     466:	90 e0       	ldi	r25, 0x00	; 0
     468:	01 97       	sbiw	r24, 0x01	; 1
     46a:	f1 f7       	brne	.-4      	; 0x468 <__LOCK_REGION_LENGTH__+0x68>
     46c:	00 c0       	rjmp	.+0      	; 0x46e <__LOCK_REGION_LENGTH__+0x6e>
     46e:	00 00       	nop
	_delay_us(120);
	
	i2c_stop();
     470:	0e 94 42 25 	call	0x4a84	; 0x4a84 <i2c_stop>
	
	
	LCD_CMD(FNC_SET|TWO_LINE);	_delay_us(60);	// Function Set
     474:	88 e2       	ldi	r24, 0x28	; 40
     476:	0e 94 81 01 	call	0x302	; 0x302 <LCD_CMD>
     47a:	90 ea       	ldi	r25, 0xA0	; 160
     47c:	9a 95       	dec	r25
     47e:	f1 f7       	brne	.-4      	; 0x47c <__LOCK_REGION_LENGTH__+0x7c>
	LCD_CMD(CMD_ONOFF);			_delay_us(60);	// Display On-Off
     480:	88 e0       	ldi	r24, 0x08	; 8
     482:	0e 94 81 01 	call	0x302	; 0x302 <LCD_CMD>
     486:	20 ea       	ldi	r18, 0xA0	; 160
     488:	2a 95       	dec	r18
     48a:	f1 f7       	brne	.-4      	; 0x488 <__LOCK_REGION_LENGTH__+0x88>
	LCD_CMD(CMD_CLR);			_delay_ms(5);	// Clear Display
     48c:	81 e0       	ldi	r24, 0x01	; 1
     48e:	0e 94 81 01 	call	0x302	; 0x302 <LCD_CMD>
	#else
		//round up by default
		__ticks_dc = (uint32_t)(ceil(fabs(__tmp)));
	#endif

	__builtin_avr_delay_cycles(__ticks_dc);
     492:	8f e0       	ldi	r24, 0x0F	; 15
     494:	97 e2       	ldi	r25, 0x27	; 39
     496:	01 97       	sbiw	r24, 0x01	; 1
     498:	f1 f7       	brne	.-4      	; 0x496 <__LOCK_REGION_LENGTH__+0x96>
     49a:	00 c0       	rjmp	.+0      	; 0x49c <__LOCK_REGION_LENGTH__+0x9c>
     49c:	00 00       	nop
	LCD_CMD(0x04|CURSOR_INC);	_delay_us(60);	// Entry Mode Set
     49e:	86 e0       	ldi	r24, 0x06	; 6
     4a0:	0e 94 81 01 	call	0x302	; 0x302 <LCD_CMD>
	#else
		//round up by default
		__ticks_dc = (uint32_t)(ceil(fabs(__tmp)));
	#endif

	__builtin_avr_delay_cycles(__ticks_dc);
     4a4:	90 ea       	ldi	r25, 0xA0	; 160
     4a6:	9a 95       	dec	r25
     4a8:	f1 f7       	brne	.-4      	; 0x4a6 <__LOCK_REGION_LENGTH__+0xa6>
	
	LCD_CMD(CMD_ONOFF|DISPLAY_ON);
     4aa:	8c e0       	ldi	r24, 0x0C	; 12
     4ac:	0e 94 81 01 	call	0x302	; 0x302 <LCD_CMD>
     4b0:	20 ea       	ldi	r18, 0xA0	; 160
     4b2:	2a 95       	dec	r18
     4b4:	f1 f7       	brne	.-4      	; 0x4b2 <__LOCK_REGION_LENGTH__+0xb2>
     4b6:	08 95       	ret

000004b8 <LCD_NWL>:
}


void LCD_NWL()
{
	LCD_CMD(0xC0);
     4b8:	80 ec       	ldi	r24, 0xC0	; 192
     4ba:	0e 94 81 01 	call	0x302	; 0x302 <LCD_CMD>
     4be:	08 95       	ret

000004c0 <LCD_CLEAR>:
}
void LCD_CLEAR()
{
	LCD_CMD(0x01);
     4c0:	81 e0       	ldi	r24, 0x01	; 1
     4c2:	0e 94 81 01 	call	0x302	; 0x302 <LCD_CMD>
	#else
		//round up by default
		__ticks_dc = (uint32_t)(ceil(fabs(__tmp)));
	#endif

	__builtin_avr_delay_cycles(__ticks_dc);
     4c6:	8f ec       	ldi	r24, 0xCF	; 207
     4c8:	97 e0       	ldi	r25, 0x07	; 7
     4ca:	01 97       	sbiw	r24, 0x01	; 1
     4cc:	f1 f7       	brne	.-4      	; 0x4ca <LCD_CLEAR+0xa>
     4ce:	00 c0       	rjmp	.+0      	; 0x4d0 <LCD_CLEAR+0x10>
     4d0:	00 00       	nop
     4d2:	08 95       	ret

000004d4 <LCD_home>:
	_delay_ms(1);
}
void LCD_home()
{
	LCD_CMD(CMD_HOME);
     4d4:	82 e0       	ldi	r24, 0x02	; 2
     4d6:	0e 94 81 01 	call	0x302	; 0x302 <LCD_CMD>
     4da:	8f e9       	ldi	r24, 0x9F	; 159
     4dc:	9f e0       	ldi	r25, 0x0F	; 15
     4de:	01 97       	sbiw	r24, 0x01	; 1
     4e0:	f1 f7       	brne	.-4      	; 0x4de <LCD_home+0xa>
     4e2:	00 c0       	rjmp	.+0      	; 0x4e4 <LCD_home+0x10>
     4e4:	00 00       	nop
     4e6:	08 95       	ret

000004e8 <LCD_custom_character>:
	_delay_ms(2);
}
void LCD_custom_character(uint8_t* data, uint8_t addr)
{
     4e8:	0f 93       	push	r16
     4ea:	1f 93       	push	r17
     4ec:	cf 93       	push	r28
     4ee:	df 93       	push	r29
     4f0:	8c 01       	movw	r16, r24
	LCD_CMD(CGRAM_ADDR + (addr*8));
     4f2:	86 2f       	mov	r24, r22
     4f4:	88 0f       	add	r24, r24
     4f6:	88 0f       	add	r24, r24
     4f8:	88 0f       	add	r24, r24
     4fa:	80 5c       	subi	r24, 0xC0	; 192
     4fc:	0e 94 81 01 	call	0x302	; 0x302 <LCD_CMD>
     500:	e8 01       	movw	r28, r16
     502:	08 5f       	subi	r16, 0xF8	; 248
     504:	1f 4f       	sbci	r17, 0xFF	; 255
	
	for (uint8_t i=0; i<8; i++)
	{
		LCD_write(data[i]);
     506:	89 91       	ld	r24, Y+
     508:	0e 94 ac 01 	call	0x358	; 0x358 <LCD_write>
}
void LCD_custom_character(uint8_t* data, uint8_t addr)
{
	LCD_CMD(CGRAM_ADDR + (addr*8));
	
	for (uint8_t i=0; i<8; i++)
     50c:	c0 17       	cp	r28, r16
     50e:	d1 07       	cpc	r29, r17
     510:	d1 f7       	brne	.-12     	; 0x506 <LCD_custom_character+0x1e>
	{
		LCD_write(data[i]);
	}
     512:	df 91       	pop	r29
     514:	cf 91       	pop	r28
     516:	1f 91       	pop	r17
     518:	0f 91       	pop	r16
     51a:	08 95       	ret

0000051c <__vector_1>:
/*		|'|_|''|_|'|___________________|```````|______			*/
/*						Init: 761ms								*/
/*																*/
/****************************************************************/
ISR (INT0_vect)
{
     51c:	1f 92       	push	r1
     51e:	0f 92       	push	r0
     520:	0f b6       	in	r0, 0x3f	; 63
     522:	0f 92       	push	r0
     524:	11 24       	eor	r1, r1
     526:	8f 93       	push	r24
	// Wait for initialize signal
	if (tel_toggle & BIT1)
     528:	80 91 c1 05 	lds	r24, 0x05C1	; 0x8005c1 <tel_toggle>
     52c:	80 ff       	sbrs	r24, 0
     52e:	15 c0       	rjmp	.+42     	; 0x55a <__vector_1+0x3e>
	{
		// initiate timer for the first time only
		if (!(tel_toggle & BIT2))
     530:	80 91 c1 05 	lds	r24, 0x05C1	; 0x8005c1 <tel_toggle>
     534:	81 fd       	sbrc	r24, 1
     536:	07 c0       	rjmp	.+14     	; 0x546 <__vector_1+0x2a>
		{
			tel_timer = 0;
     538:	10 92 c3 05 	sts	0x05C3, r1	; 0x8005c3 <tel_timer>
			tel_toggle |= BIT2;
     53c:	80 91 c1 05 	lds	r24, 0x05C1	; 0x8005c1 <tel_toggle>
     540:	82 60       	ori	r24, 0x02	; 2
     542:	80 93 c1 05 	sts	0x05C1, r24	; 0x8005c1 <tel_toggle>
		}
		
		// wait 752ms
		if (tel_timer > 94)	 // 94 * 8 = 752ms
     546:	80 91 c3 05 	lds	r24, 0x05C3	; 0x8005c3 <tel_timer>
     54a:	8f 35       	cpi	r24, 0x5F	; 95
     54c:	80 f1       	brcs	.+96     	; 0x5ae <__vector_1+0x92>
			tel_toggle |= BIT1;
     54e:	80 91 c1 05 	lds	r24, 0x05C1	; 0x8005c1 <tel_toggle>
     552:	81 60       	ori	r24, 0x01	; 1
     554:	80 93 c1 05 	sts	0x05C1, r24	; 0x8005c1 <tel_toggle>
     558:	2a c0       	rjmp	.+84     	; 0x5ae <__vector_1+0x92>
	
	// Measuring routine
	else
	{
		// Check the pin is high or low
		if (tel_flg == OFF)
     55a:	80 91 c2 05 	lds	r24, 0x05C2	; 0x8005c2 <tel_flg>
     55e:	81 11       	cpse	r24, r1
     560:	04 c0       	rjmp	.+8      	; 0x56a <__vector_1+0x4e>
			tel_flg = ON;
     562:	81 e0       	ldi	r24, 0x01	; 1
     564:	80 93 c2 05 	sts	0x05C2, r24	; 0x8005c2 <tel_flg>
     568:	02 c0       	rjmp	.+4      	; 0x56e <__vector_1+0x52>
		else
			tel_flg = OFF;
     56a:	10 92 c2 05 	sts	0x05C2, r1	; 0x8005c2 <tel_flg>
		
		// Measure time the pin is high
		if (tel_flg == ON)
     56e:	80 91 c2 05 	lds	r24, 0x05C2	; 0x8005c2 <tel_flg>
     572:	81 30       	cpi	r24, 0x01	; 1
     574:	e1 f4       	brne	.+56     	; 0x5ae <__vector_1+0x92>
		{
			if (tel_timer > 10)
     576:	80 91 c3 05 	lds	r24, 0x05C3	; 0x8005c3 <tel_timer>
     57a:	8b 30       	cpi	r24, 0x0B	; 11
     57c:	18 f0       	brcs	.+6      	; 0x584 <__vector_1+0x68>
				receiver_bat = CRIT;
     57e:	84 eb       	ldi	r24, 0xB4	; 180
     580:	80 93 c4 05 	sts	0x05C4, r24	; 0x8005c4 <receiver_bat>
			if (tel_timer > 32)
     584:	80 91 c3 05 	lds	r24, 0x05C3	; 0x8005c3 <tel_timer>
     588:	81 32       	cpi	r24, 0x21	; 33
     58a:	18 f0       	brcs	.+6      	; 0x592 <__vector_1+0x76>
				receiver_bat = LOW;
     58c:	8e eb       	ldi	r24, 0xBE	; 190
     58e:	80 93 c4 05 	sts	0x05C4, r24	; 0x8005c4 <receiver_bat>
			if (tel_timer > 56)
     592:	80 91 c3 05 	lds	r24, 0x05C3	; 0x8005c3 <tel_timer>
     596:	89 33       	cpi	r24, 0x39	; 57
     598:	18 f0       	brcs	.+6      	; 0x5a0 <__vector_1+0x84>
				receiver_bat = MID;
     59a:	83 e0       	ldi	r24, 0x03	; 3
     59c:	80 93 c4 05 	sts	0x05C4, r24	; 0x8005c4 <receiver_bat>
			if (tel_timer > 69)
     5a0:	80 91 c3 05 	lds	r24, 0x05C3	; 0x8005c3 <tel_timer>
     5a4:	86 34       	cpi	r24, 0x46	; 70
     5a6:	18 f0       	brcs	.+6      	; 0x5ae <__vector_1+0x92>
				receiver_bat = HIGH;
     5a8:	84 e0       	ldi	r24, 0x04	; 4
     5aa:	80 93 c4 05 	sts	0x05C4, r24	; 0x8005c4 <receiver_bat>
		}
	}
	tel_timer = 0;
     5ae:	10 92 c3 05 	sts	0x05C3, r1	; 0x8005c3 <tel_timer>
	
}
     5b2:	8f 91       	pop	r24
     5b4:	0f 90       	pop	r0
     5b6:	0f be       	out	0x3f, r0	; 63
     5b8:	0f 90       	pop	r0
     5ba:	1f 90       	pop	r1
     5bc:	18 95       	reti

000005be <init>:
/*													*/
/****************************************************/
void init()
{
	// Pin IO setting
	DDRB	= 0x2A;
     5be:	8a e2       	ldi	r24, 0x2A	; 42
     5c0:	84 b9       	out	0x04, r24	; 4
	DDRC	= 0x30;
     5c2:	80 e3       	ldi	r24, 0x30	; 48
     5c4:	87 b9       	out	0x07, r24	; 7
	DDRE	= 0x03;
     5c6:	83 e0       	ldi	r24, 0x03	; 3
     5c8:	8d b9       	out	0x0d, r24	; 13
	PORTB   = 0xC5;		// Button matrix pull up
     5ca:	85 ec       	ldi	r24, 0xC5	; 197
     5cc:	85 b9       	out	0x05, r24	; 5
	
	if ((mixing_val_3 & RF_MODE_MASK) == JF24)
     5ce:	80 91 d6 05 	lds	r24, 0x05D6	; 0x8005d6 <mixing_val_3>
     5d2:	8f 70       	andi	r24, 0x0F	; 15
     5d4:	81 30       	cpi	r24, 0x01	; 1
     5d6:	39 f4       	brne	.+14     	; 0x5e6 <init+0x28>
	{
		DDRD = 0xFA;
     5d8:	8a ef       	ldi	r24, 0xFA	; 250
     5da:	8a b9       	out	0x0a, r24	; 10
		
		// External interrupt setting
		// Enable external pin interrupt when using JF24 RF module for telemetry
		EICRA = (1 << ISC00);	// any change of logic
     5dc:	81 e0       	ldi	r24, 0x01	; 1
     5de:	80 93 69 00 	sts	0x0069, r24	; 0x800069 <__DATA_REGION_ORIGIN__+0x9>
		EIMSK = (1 << INT0);	// using INT0
     5e2:	8d bb       	out	0x1d, r24	; 29
     5e4:	02 c0       	rjmp	.+4      	; 0x5ea <init+0x2c>
	}
	else
	{
		DDRD	= 0xFE;
     5e6:	8e ef       	ldi	r24, 0xFE	; 254
     5e8:	8a b9       	out	0x0a, r24	; 10
	}
	PORTC   = PWRDET;	// Power detect pull up
     5ea:	84 e0       	ldi	r24, 0x04	; 4
     5ec:	88 b9       	out	0x08, r24	; 8
	PORTD   = PWRTOGL;	// SW power on
     5ee:	90 e1       	ldi	r25, 0x10	; 16
     5f0:	9b b9       	out	0x0b, r25	; 11
	
	
	// Timer0 interrupt setting
	TCCR0B	= (1 << CS02);	// prescalar: 256
     5f2:	85 bd       	out	0x25, r24	; 37
	TIMSK0	= (1 << TOIE0);	// start interrupt
     5f4:	81 e0       	ldi	r24, 0x01	; 1
     5f6:	80 93 6e 00 	sts	0x006E, r24	; 0x80006e <__DATA_REGION_ORIGIN__+0xe>
	
	
	// Buzzer PWM
	// Phase Correct PWM mode - to prevent glitch
	TCCR1A  = (1 << WGM11) |
     5fa:	82 ec       	ldi	r24, 0xC2	; 194
     5fc:	80 93 80 00 	sts	0x0080, r24	; 0x800080 <__DATA_REGION_ORIGIN__+0x20>
			  (1 << COM1A1)| (1 << COM1A0);	// OC1A non-inverting mode
	TCCR1B  = (1 << WGM13) | (1 << CS11);   // prescalar: 8
     600:	82 e1       	ldi	r24, 0x12	; 18
     602:	80 93 81 00 	sts	0x0081, r24	; 0x800081 <__DATA_REGION_ORIGIN__+0x21>
     606:	08 95       	ret

00000608 <model_sel>:
/*	4. Reverse										*/
/*	5. Dual rate setting							*/
/*													*/
/****************************************************/
void model_sel()
{
     608:	0f 93       	push	r16
     60a:	1f 93       	push	r17
     60c:	cf 93       	push	r28
     60e:	df 93       	push	r29
	uint8_t pre_model_addr;
	
	// Recall latest model data
	pre_model = eeprom_read_byte((uint8_t*)121);
     610:	89 e7       	ldi	r24, 0x79	; 121
     612:	90 e0       	ldi	r25, 0x00	; 0
     614:	0e 94 20 28 	call	0x5040	; 0x5040 <eeprom_read_byte>
     618:	80 93 e7 05 	sts	0x05E7, r24	; 0x8005e7 <pre_model>
	cur_model = pre_model;
     61c:	80 93 cf 05 	sts	0x05CF, r24	; 0x8005cf <cur_model>
	
	if (pre_model < 8)
     620:	88 30       	cpi	r24, 0x08	; 8
     622:	08 f0       	brcs	.+2      	; 0x626 <model_sel+0x1e>
     624:	75 c0       	rjmp	.+234    	; 0x710 <model_sel+0x108>
	{
		pre_model_addr = pre_model * 15 + 1;	// latest model address
		
		// Setting initializing
		trim[AILERON]  = eeprom_read_byte((const uint8_t*)pre_model_addr      );
     626:	c8 2f       	mov	r28, r24
     628:	cc 0f       	add	r28, r28
     62a:	c8 0f       	add	r28, r24
     62c:	9c 2f       	mov	r25, r28
     62e:	99 0f       	add	r25, r25
     630:	99 0f       	add	r25, r25
     632:	c9 0f       	add	r28, r25
     634:	cf 5f       	subi	r28, 0xFF	; 255
     636:	d0 e0       	ldi	r29, 0x00	; 0
     638:	ce 01       	movw	r24, r28
     63a:	0e 94 20 28 	call	0x5040	; 0x5040 <eeprom_read_byte>
     63e:	07 eb       	ldi	r16, 0xB7	; 183
     640:	15 e0       	ldi	r17, 0x05	; 5
     642:	f8 01       	movw	r30, r16
     644:	80 83       	st	Z, r24
		trim[ELEVATOR] = eeprom_read_byte((const uint8_t*)(pre_model_addr + 1));
     646:	ce 01       	movw	r24, r28
     648:	01 96       	adiw	r24, 0x01	; 1
     64a:	0e 94 20 28 	call	0x5040	; 0x5040 <eeprom_read_byte>
     64e:	f8 01       	movw	r30, r16
     650:	81 83       	std	Z+1, r24	; 0x01
		trim[RUDDER]   = eeprom_read_byte((const uint8_t*)(pre_model_addr + 2));
     652:	ce 01       	movw	r24, r28
     654:	02 96       	adiw	r24, 0x02	; 2
     656:	0e 94 20 28 	call	0x5040	; 0x5040 <eeprom_read_byte>
     65a:	f8 01       	movw	r30, r16
     65c:	83 83       	std	Z+3, r24	; 0x03
		trim[CH5]	   = eeprom_read_byte((const uint8_t*)(pre_model_addr + 3));
     65e:	ce 01       	movw	r24, r28
     660:	03 96       	adiw	r24, 0x03	; 3
     662:	0e 94 20 28 	call	0x5040	; 0x5040 <eeprom_read_byte>
     666:	f8 01       	movw	r30, r16
     668:	84 83       	std	Z+4, r24	; 0x04
		mixing_val_1 = eeprom_read_byte((const uint8_t*)(pre_model_addr + 4));
     66a:	ce 01       	movw	r24, r28
     66c:	04 96       	adiw	r24, 0x04	; 4
     66e:	0e 94 20 28 	call	0x5040	; 0x5040 <eeprom_read_byte>
     672:	80 93 db 05 	sts	0x05DB, r24	; 0x8005db <mixing_val_1>
		mixing_val_2 = eeprom_read_byte((const uint8_t*)(pre_model_addr + 5));
     676:	ce 01       	movw	r24, r28
     678:	05 96       	adiw	r24, 0x05	; 5
     67a:	0e 94 20 28 	call	0x5040	; 0x5040 <eeprom_read_byte>
     67e:	80 93 cd 05 	sts	0x05CD, r24	; 0x8005cd <mixing_val_2>
		mixing_val_3 = eeprom_read_byte((const uint8_t*)(pre_model_addr + 6));
     682:	ce 01       	movw	r24, r28
     684:	06 96       	adiw	r24, 0x06	; 6
     686:	0e 94 20 28 	call	0x5040	; 0x5040 <eeprom_read_byte>
     68a:	80 93 d6 05 	sts	0x05D6, r24	; 0x8005d6 <mixing_val_3>
		sw[0] = eeprom_read_byte((const uint8_t*)(pre_model_addr + 7));
     68e:	ce 01       	movw	r24, r28
     690:	07 96       	adiw	r24, 0x07	; 7
     692:	0e 94 20 28 	call	0x5040	; 0x5040 <eeprom_read_byte>
     696:	0d ed       	ldi	r16, 0xDD	; 221
     698:	15 e0       	ldi	r17, 0x05	; 5
     69a:	f8 01       	movw	r30, r16
     69c:	80 83       	st	Z, r24
		sw[1] = eeprom_read_byte((const uint8_t*)(pre_model_addr + 8));
     69e:	ce 01       	movw	r24, r28
     6a0:	08 96       	adiw	r24, 0x08	; 8
     6a2:	0e 94 20 28 	call	0x5040	; 0x5040 <eeprom_read_byte>
     6a6:	f8 01       	movw	r30, r16
     6a8:	81 83       	std	Z+1, r24	; 0x01
		sw[2] = eeprom_read_byte((const uint8_t*)(pre_model_addr + 9));
     6aa:	ce 01       	movw	r24, r28
     6ac:	09 96       	adiw	r24, 0x09	; 9
     6ae:	0e 94 20 28 	call	0x5040	; 0x5040 <eeprom_read_byte>
     6b2:	f8 01       	movw	r30, r16
     6b4:	82 83       	std	Z+2, r24	; 0x02
		sw[3] = eeprom_read_byte((const uint8_t*)(pre_model_addr + 10));
     6b6:	ce 01       	movw	r24, r28
     6b8:	0a 96       	adiw	r24, 0x0a	; 10
     6ba:	0e 94 20 28 	call	0x5040	; 0x5040 <eeprom_read_byte>
     6be:	f8 01       	movw	r30, r16
     6c0:	83 83       	std	Z+3, r24	; 0x03
		sw[4] = eeprom_read_byte((const uint8_t*)(pre_model_addr + 11));
     6c2:	ce 01       	movw	r24, r28
     6c4:	0b 96       	adiw	r24, 0x0b	; 11
     6c6:	0e 94 20 28 	call	0x5040	; 0x5040 <eeprom_read_byte>
     6ca:	f8 01       	movw	r30, r16
     6cc:	84 83       	std	Z+4, r24	; 0x04
		sw[5] = eeprom_read_byte((const uint8_t*)(pre_model_addr + 12));
     6ce:	ce 01       	movw	r24, r28
     6d0:	0c 96       	adiw	r24, 0x0c	; 12
     6d2:	0e 94 20 28 	call	0x5040	; 0x5040 <eeprom_read_byte>
     6d6:	f8 01       	movw	r30, r16
     6d8:	85 83       	std	Z+5, r24	; 0x05
		sw[6] = eeprom_read_byte((const uint8_t*)(pre_model_addr + 13));
     6da:	ce 01       	movw	r24, r28
     6dc:	0d 96       	adiw	r24, 0x0d	; 13
     6de:	0e 94 20 28 	call	0x5040	; 0x5040 <eeprom_read_byte>
     6e2:	f8 01       	movw	r30, r16
     6e4:	86 83       	std	Z+6, r24	; 0x06
		sw[7] = eeprom_read_byte((const uint8_t*)(pre_model_addr + 14));
     6e6:	ce 01       	movw	r24, r28
     6e8:	0e 96       	adiw	r24, 0x0e	; 14
     6ea:	0e 94 20 28 	call	0x5040	; 0x5040 <eeprom_read_byte>
     6ee:	f8 01       	movw	r30, r16
     6f0:	87 83       	std	Z+7, r24	; 0x07
		
		buzzer_volume= eeprom_read_byte((const uint8_t*)122);
     6f2:	8a e7       	ldi	r24, 0x7A	; 122
     6f4:	90 e0       	ldi	r25, 0x00	; 0
     6f6:	0e 94 20 28 	call	0x5040	; 0x5040 <eeprom_read_byte>
     6fa:	80 93 da 05 	sts	0x05DA, r24	; 0x8005da <buzzer_volume>
		runtime_set = eeprom_read_word((const uint16_t*)123);
     6fe:	8b e7       	ldi	r24, 0x7B	; 123
     700:	90 e0       	ldi	r25, 0x00	; 0
     702:	0e 94 28 28 	call	0x5050	; 0x5050 <eeprom_read_word>
     706:	90 93 d1 05 	sts	0x05D1, r25	; 0x8005d1 <runtime_set+0x1>
     70a:	80 93 d0 05 	sts	0x05D0, r24	; 0x8005d0 <runtime_set>
     70e:	5b c0       	rjmp	.+182    	; 0x7c6 <model_sel+0x1be>
	
	// Initial EEPROM
	// Only used when new firmware is downloaded
	else
	{
		eeprom_update_byte((uint8_t*)1, 0x00);	// trim[AILERON] = 0
     710:	60 e0       	ldi	r22, 0x00	; 0
     712:	81 e0       	ldi	r24, 0x01	; 1
     714:	90 e0       	ldi	r25, 0x00	; 0
     716:	0e 94 2e 28 	call	0x505c	; 0x505c <eeprom_update_byte>
		eeprom_update_byte((uint8_t*)2, 0x00);	// trim[ELEVATOR] = 0
     71a:	60 e0       	ldi	r22, 0x00	; 0
     71c:	82 e0       	ldi	r24, 0x02	; 2
     71e:	90 e0       	ldi	r25, 0x00	; 0
     720:	0e 94 2e 28 	call	0x505c	; 0x505c <eeprom_update_byte>
		eeprom_update_byte((uint8_t*)3, 0x00);	// trim[RUDDER] = 0
     724:	60 e0       	ldi	r22, 0x00	; 0
     726:	83 e0       	ldi	r24, 0x03	; 3
     728:	90 e0       	ldi	r25, 0x00	; 0
     72a:	0e 94 2e 28 	call	0x505c	; 0x505c <eeprom_update_byte>
		eeprom_update_byte((uint8_t*)4, 0x00);	// trim[CH5] = 0
     72e:	60 e0       	ldi	r22, 0x00	; 0
     730:	84 e0       	ldi	r24, 0x04	; 4
     732:	90 e0       	ldi	r25, 0x00	; 0
     734:	0e 94 2e 28 	call	0x505c	; 0x505c <eeprom_update_byte>
		eeprom_update_byte((uint8_t*)5, 0x00);	// mixing_val_1 = 0
     738:	60 e0       	ldi	r22, 0x00	; 0
     73a:	85 e0       	ldi	r24, 0x05	; 5
     73c:	90 e0       	ldi	r25, 0x00	; 0
     73e:	0e 94 2e 28 	call	0x505c	; 0x505c <eeprom_update_byte>
		eeprom_update_byte((uint8_t*)6, 0x00);	// mixing_val_2 = 0
     742:	60 e0       	ldi	r22, 0x00	; 0
     744:	86 e0       	ldi	r24, 0x06	; 6
     746:	90 e0       	ldi	r25, 0x00	; 0
     748:	0e 94 2e 28 	call	0x505c	; 0x505c <eeprom_update_byte>
		eeprom_update_byte((uint8_t*)7, UART);	// mixing_val_3 = UART mode
     74c:	63 e0       	ldi	r22, 0x03	; 3
     74e:	87 e0       	ldi	r24, 0x07	; 7
     750:	90 e0       	ldi	r25, 0x00	; 0
     752:	0e 94 2e 28 	call	0x505c	; 0x505c <eeprom_update_byte>
		eeprom_update_byte((uint8_t*)8, 0x00);	// sw[0]
     756:	60 e0       	ldi	r22, 0x00	; 0
     758:	88 e0       	ldi	r24, 0x08	; 8
     75a:	90 e0       	ldi	r25, 0x00	; 0
     75c:	0e 94 2e 28 	call	0x505c	; 0x505c <eeprom_update_byte>
		eeprom_update_byte((uint8_t*)9, 0x00);	// sw[1]
     760:	60 e0       	ldi	r22, 0x00	; 0
     762:	89 e0       	ldi	r24, 0x09	; 9
     764:	90 e0       	ldi	r25, 0x00	; 0
     766:	0e 94 2e 28 	call	0x505c	; 0x505c <eeprom_update_byte>
		eeprom_update_byte((uint8_t*)10, 0x00);	// sw[2]
     76a:	60 e0       	ldi	r22, 0x00	; 0
     76c:	8a e0       	ldi	r24, 0x0A	; 10
     76e:	90 e0       	ldi	r25, 0x00	; 0
     770:	0e 94 2e 28 	call	0x505c	; 0x505c <eeprom_update_byte>
		eeprom_update_byte((uint8_t*)11, 0x00);	// sw[3]
     774:	60 e0       	ldi	r22, 0x00	; 0
     776:	8b e0       	ldi	r24, 0x0B	; 11
     778:	90 e0       	ldi	r25, 0x00	; 0
     77a:	0e 94 2e 28 	call	0x505c	; 0x505c <eeprom_update_byte>
		eeprom_update_byte((uint8_t*)12, 0x00);	// sw[4]
     77e:	60 e0       	ldi	r22, 0x00	; 0
     780:	8c e0       	ldi	r24, 0x0C	; 12
     782:	90 e0       	ldi	r25, 0x00	; 0
     784:	0e 94 2e 28 	call	0x505c	; 0x505c <eeprom_update_byte>
		eeprom_update_byte((uint8_t*)13, 0x00);	// sw[5]
     788:	60 e0       	ldi	r22, 0x00	; 0
     78a:	8d e0       	ldi	r24, 0x0D	; 13
     78c:	90 e0       	ldi	r25, 0x00	; 0
     78e:	0e 94 2e 28 	call	0x505c	; 0x505c <eeprom_update_byte>
		eeprom_update_byte((uint8_t*)14, 0x00);	// sw[6]
     792:	60 e0       	ldi	r22, 0x00	; 0
     794:	8e e0       	ldi	r24, 0x0E	; 14
     796:	90 e0       	ldi	r25, 0x00	; 0
     798:	0e 94 2e 28 	call	0x505c	; 0x505c <eeprom_update_byte>
		eeprom_update_byte((uint8_t*)15, 0x00);	// sw[7]
     79c:	60 e0       	ldi	r22, 0x00	; 0
     79e:	8f e0       	ldi	r24, 0x0F	; 15
     7a0:	90 e0       	ldi	r25, 0x00	; 0
     7a2:	0e 94 2e 28 	call	0x505c	; 0x505c <eeprom_update_byte>
		
		eeprom_update_byte((uint8_t*)121, 0x00);	  // Set model #0 current model
     7a6:	60 e0       	ldi	r22, 0x00	; 0
     7a8:	89 e7       	ldi	r24, 0x79	; 121
     7aa:	90 e0       	ldi	r25, 0x00	; 0
     7ac:	0e 94 2e 28 	call	0x505c	; 0x505c <eeprom_update_byte>
		eeprom_update_byte((uint8_t*)122, 50);		  // Buzzer volume
     7b0:	62 e3       	ldi	r22, 0x32	; 50
     7b2:	8a e7       	ldi	r24, 0x7A	; 122
     7b4:	90 e0       	ldi	r25, 0x00	; 0
     7b6:	0e 94 2e 28 	call	0x505c	; 0x505c <eeprom_update_byte>
		eeprom_update_word((uint16_t*)123, RUNTIME15); // RUNTIMR 15 min
     7ba:	64 e8       	ldi	r22, 0x84	; 132
     7bc:	73 e0       	ldi	r23, 0x03	; 3
     7be:	8b e7       	ldi	r24, 0x7B	; 123
     7c0:	90 e0       	ldi	r25, 0x00	; 0
     7c2:	0e 94 40 28 	call	0x5080	; 0x5080 <eeprom_update_word>
		
	}
	
}
     7c6:	df 91       	pop	r29
     7c8:	cf 91       	pop	r28
     7ca:	1f 91       	pop	r17
     7cc:	0f 91       	pop	r16
     7ce:	08 95       	ret

000007d0 <stick_read>:
/*													*/
/****************************************************/
void stick_read()
{
	// Aileron
	ADMUX = (1 << REFS0) | (1 << ADLAR) | 1;			// external vref, choose adc pin. read only 8 bit
     7d0:	81 e6       	ldi	r24, 0x61	; 97
     7d2:	80 93 7c 00 	sts	0x007C, r24	; 0x80007c <__DATA_REGION_ORIGIN__+0x1c>
	ADCSRA = (1 << ADEN) | (1 << ADSC) | (6 << ADPS0);	// start adc read, adc prescalar 64
     7d6:	86 ec       	ldi	r24, 0xC6	; 198
     7d8:	80 93 7a 00 	sts	0x007A, r24	; 0x80007a <__DATA_REGION_ORIGIN__+0x1a>
	while (ADCSRA & (1 << ADSC));
     7dc:	ea e7       	ldi	r30, 0x7A	; 122
     7de:	f0 e0       	ldi	r31, 0x00	; 0
     7e0:	80 81       	ld	r24, Z
     7e2:	86 fd       	sbrc	r24, 6
     7e4:	fd cf       	rjmp	.-6      	; 0x7e0 <stick_read+0x10>
	channel[AILERON] = ADCH;
     7e6:	80 91 79 00 	lds	r24, 0x0079	; 0x800079 <__DATA_REGION_ORIGIN__+0x19>
     7ea:	80 93 bc 05 	sts	0x05BC, r24	; 0x8005bc <channel>
	
	// Elevator
	ADMUX = (1 << REFS0) | (1 << ADLAR) | 7;
     7ee:	87 e6       	ldi	r24, 0x67	; 103
     7f0:	80 93 7c 00 	sts	0x007C, r24	; 0x80007c <__DATA_REGION_ORIGIN__+0x1c>
	ADCSRA = (1 << ADEN) | (1 << ADSC) | (6 << ADPS0);
     7f4:	86 ec       	ldi	r24, 0xC6	; 198
     7f6:	80 93 7a 00 	sts	0x007A, r24	; 0x80007a <__DATA_REGION_ORIGIN__+0x1a>
	while (ADCSRA & (1 << ADSC));
     7fa:	ea e7       	ldi	r30, 0x7A	; 122
     7fc:	f0 e0       	ldi	r31, 0x00	; 0
     7fe:	80 81       	ld	r24, Z
     800:	86 fd       	sbrc	r24, 6
     802:	fd cf       	rjmp	.-6      	; 0x7fe <stick_read+0x2e>
	channel[ELEVATOR] = ADCH;
     804:	80 91 79 00 	lds	r24, 0x0079	; 0x800079 <__DATA_REGION_ORIGIN__+0x19>
     808:	80 93 bd 05 	sts	0x05BD, r24	; 0x8005bd <channel+0x1>
	
	// Throttle
	ADMUX = (1 << REFS0) | (1 << ADLAR) | 3;
     80c:	83 e6       	ldi	r24, 0x63	; 99
     80e:	80 93 7c 00 	sts	0x007C, r24	; 0x80007c <__DATA_REGION_ORIGIN__+0x1c>
	ADCSRA = (1 << ADEN) | (1 << ADSC) | (6 << ADPS0);
     812:	86 ec       	ldi	r24, 0xC6	; 198
     814:	80 93 7a 00 	sts	0x007A, r24	; 0x80007a <__DATA_REGION_ORIGIN__+0x1a>
	while (ADCSRA & (1 << ADSC));
     818:	ea e7       	ldi	r30, 0x7A	; 122
     81a:	f0 e0       	ldi	r31, 0x00	; 0
     81c:	80 81       	ld	r24, Z
     81e:	86 fd       	sbrc	r24, 6
     820:	fd cf       	rjmp	.-6      	; 0x81c <stick_read+0x4c>
	channel[THROTTLE] = ADCH;
     822:	80 91 79 00 	lds	r24, 0x0079	; 0x800079 <__DATA_REGION_ORIGIN__+0x19>
     826:	80 93 be 05 	sts	0x05BE, r24	; 0x8005be <channel+0x2>
	
	// Rudder
	ADMUX = (1 << REFS0) | (1 << ADLAR) | 0;
     82a:	80 e6       	ldi	r24, 0x60	; 96
     82c:	80 93 7c 00 	sts	0x007C, r24	; 0x80007c <__DATA_REGION_ORIGIN__+0x1c>
	ADCSRA = (1 << ADEN) | (1 << ADSC) | (6 << ADPS0);
     830:	86 ec       	ldi	r24, 0xC6	; 198
     832:	80 93 7a 00 	sts	0x007A, r24	; 0x80007a <__DATA_REGION_ORIGIN__+0x1a>
	while (ADCSRA & (1 << ADSC));
     836:	ea e7       	ldi	r30, 0x7A	; 122
     838:	f0 e0       	ldi	r31, 0x00	; 0
     83a:	80 81       	ld	r24, Z
     83c:	86 fd       	sbrc	r24, 6
     83e:	fd cf       	rjmp	.-6      	; 0x83a <stick_read+0x6a>
	channel[RUDDER] = ADCH;
     840:	80 91 79 00 	lds	r24, 0x0079	; 0x800079 <__DATA_REGION_ORIGIN__+0x19>
     844:	80 93 bf 05 	sts	0x05BF, r24	; 0x8005bf <channel+0x3>
     848:	08 95       	ret

0000084a <trim_read>:
	
	
}
void trim_read() 
{
	PORTD |= PO2|PO3;
     84a:	8b b1       	in	r24, 0x0b	; 11
     84c:	80 6c       	ori	r24, 0xC0	; 192
     84e:	8b b9       	out	0x0b, r24	; 11
	PORTD &= ~PO1;
     850:	5d 98       	cbi	0x0b, 5	; 11
	PORTE |= PO4;
     852:	71 9a       	sbi	0x0e, 1	; 14
	#else
		//round up by default
		__ticks_dc = (uint32_t)(ceil(fabs(__tmp)));
	#endif

	__builtin_avr_delay_cycles(__ticks_dc);
     854:	20 ea       	ldi	r18, 0xA0	; 160
     856:	2a 95       	dec	r18
     858:	f1 f7       	brne	.-4      	; 0x856 <trim_read+0xc>
	_delay_us(60);
	
	////////// CH1 (Rudder) //////////////////////////////////////////////////
	// CH1 (Rudder) trim -
	if (!(PINB & PI1))
     85a:	18 99       	sbic	0x03, 0	; 3
     85c:	23 c0       	rjmp	.+70     	; 0x8a4 <trim_read+0x5a>
	{
		// buzzer frequency
		if (trim[RUDDER] != 1)
     85e:	80 91 ba 05 	lds	r24, 0x05BA	; 0x8005ba <trim+0x3>
     862:	81 30       	cpi	r24, 0x01	; 1
     864:	59 f0       	breq	.+22     	; 0x87c <trim_read+0x32>
			buzzer_freq = 1000 + ((trim[RUDDER]-1)<<4);
     866:	20 e1       	ldi	r18, 0x10	; 16
     868:	82 02       	muls	r24, r18
     86a:	c0 01       	movw	r24, r0
     86c:	11 24       	eor	r1, r1
     86e:	88 52       	subi	r24, 0x28	; 40
     870:	9c 4f       	sbci	r25, 0xFC	; 252
     872:	90 93 e6 05 	sts	0x05E6, r25	; 0x8005e6 <buzzer_freq+0x1>
     876:	80 93 e5 05 	sts	0x05E5, r24	; 0x8005e5 <buzzer_freq>
     87a:	06 c0       	rjmp	.+12     	; 0x888 <trim_read+0x3e>
		else
			buzzer_freq = 3000;	// if trim is 0, high pitch sound
     87c:	88 eb       	ldi	r24, 0xB8	; 184
     87e:	9b e0       	ldi	r25, 0x0B	; 11
     880:	90 93 e6 05 	sts	0x05E6, r25	; 0x8005e6 <buzzer_freq+0x1>
     884:	80 93 e5 05 	sts	0x05E5, r24	; 0x8005e5 <buzzer_freq>
		
		buzzer_setting[PERIOD]= 15;
     888:	eb ea       	ldi	r30, 0xAB	; 171
     88a:	f5 e0       	ldi	r31, 0x05	; 5
     88c:	8f e0       	ldi	r24, 0x0F	; 15
     88e:	80 83       	st	Z, r24
		if (!(buzzer_setting[SETTING] & STAT))
     890:	81 81       	ldd	r24, Z+1	; 0x01
     892:	85 fd       	sbrc	r24, 5
     894:	03 c0       	rjmp	.+6      	; 0x89c <trim_read+0x52>
			buzzer_setting[SETTING] |= BUZZER_SET|STAT;
     896:	88 62       	ori	r24, 0x28	; 40
     898:	80 93 ac 05 	sts	0x05AC, r24	; 0x8005ac <buzzer_setting+0x1>
		
		button_tog[0] = ON;
     89c:	81 e0       	ldi	r24, 0x01	; 1
     89e:	80 93 ad 05 	sts	0x05AD, r24	; 0x8005ad <button_tog>
     8a2:	12 c0       	rjmp	.+36     	; 0x8c8 <trim_read+0x7e>
	}
	else if ((PINB & PI1) && (button_tog[0] == ON))
     8a4:	18 9b       	sbis	0x03, 0	; 3
     8a6:	10 c0       	rjmp	.+32     	; 0x8c8 <trim_read+0x7e>
     8a8:	80 91 ad 05 	lds	r24, 0x05AD	; 0x8005ad <button_tog>
     8ac:	81 30       	cpi	r24, 0x01	; 1
     8ae:	61 f4       	brne	.+24     	; 0x8c8 <trim_read+0x7e>
	{
		// buzzer reset
		buzzer_setting[SETTING] &= ~STAT;	// reset STAT for single input
     8b0:	eb ea       	ldi	r30, 0xAB	; 171
     8b2:	f5 e0       	ldi	r31, 0x05	; 5
     8b4:	81 81       	ldd	r24, Z+1	; 0x01
     8b6:	8f 7d       	andi	r24, 0xDF	; 223
     8b8:	81 83       	std	Z+1, r24	; 0x01
		
		trim[RUDDER]--;
     8ba:	e7 eb       	ldi	r30, 0xB7	; 183
     8bc:	f5 e0       	ldi	r31, 0x05	; 5
     8be:	83 81       	ldd	r24, Z+3	; 0x03
     8c0:	81 50       	subi	r24, 0x01	; 1
     8c2:	83 83       	std	Z+3, r24	; 0x03
		button_tog[0] = OFF;
     8c4:	10 92 ad 05 	sts	0x05AD, r1	; 0x8005ad <button_tog>
	}
	
	// CH1 (Rudder) trim +
	if (!(PINB & PI2))
     8c8:	1a 99       	sbic	0x03, 2	; 3
     8ca:	23 c0       	rjmp	.+70     	; 0x912 <__stack+0x13>
	{
		// buzzer frequency
		if (trim[RUDDER] != -1)
     8cc:	80 91 ba 05 	lds	r24, 0x05BA	; 0x8005ba <trim+0x3>
     8d0:	8f 3f       	cpi	r24, 0xFF	; 255
     8d2:	59 f0       	breq	.+22     	; 0x8ea <trim_read+0xa0>
			buzzer_freq = 1000 + ((trim[RUDDER]+1)<<4);
     8d4:	20 e1       	ldi	r18, 0x10	; 16
     8d6:	82 02       	muls	r24, r18
     8d8:	c0 01       	movw	r24, r0
     8da:	11 24       	eor	r1, r1
     8dc:	88 50       	subi	r24, 0x08	; 8
     8de:	9c 4f       	sbci	r25, 0xFC	; 252
     8e0:	90 93 e6 05 	sts	0x05E6, r25	; 0x8005e6 <buzzer_freq+0x1>
     8e4:	80 93 e5 05 	sts	0x05E5, r24	; 0x8005e5 <buzzer_freq>
     8e8:	06 c0       	rjmp	.+12     	; 0x8f6 <trim_read+0xac>
		else
			buzzer_freq = 3000;	// if trim is 0, high pitch sound
     8ea:	88 eb       	ldi	r24, 0xB8	; 184
     8ec:	9b e0       	ldi	r25, 0x0B	; 11
     8ee:	90 93 e6 05 	sts	0x05E6, r25	; 0x8005e6 <buzzer_freq+0x1>
     8f2:	80 93 e5 05 	sts	0x05E5, r24	; 0x8005e5 <buzzer_freq>
		
		buzzer_setting[PERIOD]= 15;
     8f6:	eb ea       	ldi	r30, 0xAB	; 171
     8f8:	f5 e0       	ldi	r31, 0x05	; 5
     8fa:	8f e0       	ldi	r24, 0x0F	; 15
     8fc:	80 83       	st	Z, r24
		if (!(buzzer_setting[SETTING] & STAT))
     8fe:	81 81       	ldd	r24, Z+1	; 0x01
     900:	85 fd       	sbrc	r24, 5
     902:	03 c0       	rjmp	.+6      	; 0x90a <__stack+0xb>
			buzzer_setting[SETTING] |= BUZZER_SET|STAT;
     904:	88 62       	ori	r24, 0x28	; 40
     906:	80 93 ac 05 	sts	0x05AC, r24	; 0x8005ac <buzzer_setting+0x1>
		
		button_tog[1] = ON;
     90a:	81 e0       	ldi	r24, 0x01	; 1
     90c:	80 93 ae 05 	sts	0x05AE, r24	; 0x8005ae <button_tog+0x1>
     910:	12 c0       	rjmp	.+36     	; 0x936 <__stack+0x37>
	}
	else if ((PINB & PI2) && (button_tog[1] == ON))
     912:	1a 9b       	sbis	0x03, 2	; 3
     914:	10 c0       	rjmp	.+32     	; 0x936 <__stack+0x37>
     916:	80 91 ae 05 	lds	r24, 0x05AE	; 0x8005ae <button_tog+0x1>
     91a:	81 30       	cpi	r24, 0x01	; 1
     91c:	61 f4       	brne	.+24     	; 0x936 <__stack+0x37>
	{
		// buzzer reset
		buzzer_setting[SETTING] &= ~STAT;	// reset STAT for single input
     91e:	eb ea       	ldi	r30, 0xAB	; 171
     920:	f5 e0       	ldi	r31, 0x05	; 5
     922:	81 81       	ldd	r24, Z+1	; 0x01
     924:	8f 7d       	andi	r24, 0xDF	; 223
     926:	81 83       	std	Z+1, r24	; 0x01
		
		trim[RUDDER]++;
     928:	e7 eb       	ldi	r30, 0xB7	; 183
     92a:	f5 e0       	ldi	r31, 0x05	; 5
     92c:	83 81       	ldd	r24, Z+3	; 0x03
     92e:	8f 5f       	subi	r24, 0xFF	; 255
     930:	83 83       	std	Z+3, r24	; 0x03
		button_tog[1] = OFF;
     932:	10 92 ae 05 	sts	0x05AE, r1	; 0x8005ae <button_tog+0x1>
	}
	
	
	////////// CH2 (Elevator) ////////////////////////////////////////////////
	// CH2 (Elevator) trim-
	if (!(PINB & PI3))
     936:	1f 99       	sbic	0x03, 7	; 3
     938:	23 c0       	rjmp	.+70     	; 0x980 <__stack+0x81>
	{
		// buzzer frequency
		if (trim[ELEVATOR] != 1)
     93a:	80 91 b8 05 	lds	r24, 0x05B8	; 0x8005b8 <trim+0x1>
     93e:	81 30       	cpi	r24, 0x01	; 1
     940:	59 f0       	breq	.+22     	; 0x958 <__stack+0x59>
			buzzer_freq = 1000 + ((trim[ELEVATOR]-1)<<4);
     942:	20 e1       	ldi	r18, 0x10	; 16
     944:	82 02       	muls	r24, r18
     946:	c0 01       	movw	r24, r0
     948:	11 24       	eor	r1, r1
     94a:	88 52       	subi	r24, 0x28	; 40
     94c:	9c 4f       	sbci	r25, 0xFC	; 252
     94e:	90 93 e6 05 	sts	0x05E6, r25	; 0x8005e6 <buzzer_freq+0x1>
     952:	80 93 e5 05 	sts	0x05E5, r24	; 0x8005e5 <buzzer_freq>
     956:	06 c0       	rjmp	.+12     	; 0x964 <__stack+0x65>
		else
			buzzer_freq = 3000;	// if trim is 0, high pitch sound
     958:	88 eb       	ldi	r24, 0xB8	; 184
     95a:	9b e0       	ldi	r25, 0x0B	; 11
     95c:	90 93 e6 05 	sts	0x05E6, r25	; 0x8005e6 <buzzer_freq+0x1>
     960:	80 93 e5 05 	sts	0x05E5, r24	; 0x8005e5 <buzzer_freq>
		
		buzzer_setting[PERIOD]= 15;
     964:	eb ea       	ldi	r30, 0xAB	; 171
     966:	f5 e0       	ldi	r31, 0x05	; 5
     968:	8f e0       	ldi	r24, 0x0F	; 15
     96a:	80 83       	st	Z, r24
		if (!(buzzer_setting[SETTING] & STAT))
     96c:	81 81       	ldd	r24, Z+1	; 0x01
     96e:	85 fd       	sbrc	r24, 5
     970:	03 c0       	rjmp	.+6      	; 0x978 <__stack+0x79>
			buzzer_setting[SETTING] |= BUZZER_SET|STAT;
     972:	88 62       	ori	r24, 0x28	; 40
     974:	80 93 ac 05 	sts	0x05AC, r24	; 0x8005ac <buzzer_setting+0x1>
		
		button_tog[2] = ON;
     978:	81 e0       	ldi	r24, 0x01	; 1
     97a:	80 93 af 05 	sts	0x05AF, r24	; 0x8005af <button_tog+0x2>
     97e:	12 c0       	rjmp	.+36     	; 0x9a4 <__stack+0xa5>
	}
	else if ((PINB & PI3) && (button_tog[2] == ON))
     980:	1f 9b       	sbis	0x03, 7	; 3
     982:	10 c0       	rjmp	.+32     	; 0x9a4 <__stack+0xa5>
     984:	80 91 af 05 	lds	r24, 0x05AF	; 0x8005af <button_tog+0x2>
     988:	81 30       	cpi	r24, 0x01	; 1
     98a:	61 f4       	brne	.+24     	; 0x9a4 <__stack+0xa5>
	{
		// buzzer reset
		buzzer_setting[SETTING] &= ~STAT;	// reset STAT for single input
     98c:	eb ea       	ldi	r30, 0xAB	; 171
     98e:	f5 e0       	ldi	r31, 0x05	; 5
     990:	81 81       	ldd	r24, Z+1	; 0x01
     992:	8f 7d       	andi	r24, 0xDF	; 223
     994:	81 83       	std	Z+1, r24	; 0x01
		
		trim[ELEVATOR]--;
     996:	e7 eb       	ldi	r30, 0xB7	; 183
     998:	f5 e0       	ldi	r31, 0x05	; 5
     99a:	81 81       	ldd	r24, Z+1	; 0x01
     99c:	81 50       	subi	r24, 0x01	; 1
     99e:	81 83       	std	Z+1, r24	; 0x01
		button_tog[2] = OFF;
     9a0:	10 92 af 05 	sts	0x05AF, r1	; 0x8005af <button_tog+0x2>
	}
	
	// CH2 (Elevator) trim+
	if (!(PINB & PI4))
     9a4:	1e 99       	sbic	0x03, 6	; 3
     9a6:	23 c0       	rjmp	.+70     	; 0x9ee <__stack+0xef>
	{
		// buzzer frequency
		if (trim[ELEVATOR] != -1)
     9a8:	80 91 b8 05 	lds	r24, 0x05B8	; 0x8005b8 <trim+0x1>
     9ac:	8f 3f       	cpi	r24, 0xFF	; 255
     9ae:	59 f0       	breq	.+22     	; 0x9c6 <__stack+0xc7>
			buzzer_freq = 1000 + ((trim[ELEVATOR]+1)<<4);
     9b0:	20 e1       	ldi	r18, 0x10	; 16
     9b2:	82 02       	muls	r24, r18
     9b4:	c0 01       	movw	r24, r0
     9b6:	11 24       	eor	r1, r1
     9b8:	88 50       	subi	r24, 0x08	; 8
     9ba:	9c 4f       	sbci	r25, 0xFC	; 252
     9bc:	90 93 e6 05 	sts	0x05E6, r25	; 0x8005e6 <buzzer_freq+0x1>
     9c0:	80 93 e5 05 	sts	0x05E5, r24	; 0x8005e5 <buzzer_freq>
     9c4:	06 c0       	rjmp	.+12     	; 0x9d2 <__stack+0xd3>
		else
			buzzer_freq = 3000;	// if trim is 0, high pitch sound
     9c6:	88 eb       	ldi	r24, 0xB8	; 184
     9c8:	9b e0       	ldi	r25, 0x0B	; 11
     9ca:	90 93 e6 05 	sts	0x05E6, r25	; 0x8005e6 <buzzer_freq+0x1>
     9ce:	80 93 e5 05 	sts	0x05E5, r24	; 0x8005e5 <buzzer_freq>
		
		buzzer_setting[PERIOD]= 15;
     9d2:	eb ea       	ldi	r30, 0xAB	; 171
     9d4:	f5 e0       	ldi	r31, 0x05	; 5
     9d6:	8f e0       	ldi	r24, 0x0F	; 15
     9d8:	80 83       	st	Z, r24
		if (!(buzzer_setting[SETTING] & STAT))
     9da:	81 81       	ldd	r24, Z+1	; 0x01
     9dc:	85 fd       	sbrc	r24, 5
     9de:	03 c0       	rjmp	.+6      	; 0x9e6 <__stack+0xe7>
			buzzer_setting[SETTING] |= BUZZER_SET|STAT;
     9e0:	88 62       	ori	r24, 0x28	; 40
     9e2:	80 93 ac 05 	sts	0x05AC, r24	; 0x8005ac <buzzer_setting+0x1>
		
		button_tog[3] = ON;
     9e6:	81 e0       	ldi	r24, 0x01	; 1
     9e8:	80 93 b0 05 	sts	0x05B0, r24	; 0x8005b0 <button_tog+0x3>
     9ec:	12 c0       	rjmp	.+36     	; 0xa12 <__stack+0x113>
	}
	else if ((PINB & PI4) && (button_tog[3] == ON))
     9ee:	1e 9b       	sbis	0x03, 6	; 3
     9f0:	10 c0       	rjmp	.+32     	; 0xa12 <__stack+0x113>
     9f2:	80 91 b0 05 	lds	r24, 0x05B0	; 0x8005b0 <button_tog+0x3>
     9f6:	81 30       	cpi	r24, 0x01	; 1
     9f8:	61 f4       	brne	.+24     	; 0xa12 <__stack+0x113>
	{
		// buzzer reset
		buzzer_setting[SETTING] &= ~STAT;	// reset STAT for single input
     9fa:	eb ea       	ldi	r30, 0xAB	; 171
     9fc:	f5 e0       	ldi	r31, 0x05	; 5
     9fe:	81 81       	ldd	r24, Z+1	; 0x01
     a00:	8f 7d       	andi	r24, 0xDF	; 223
     a02:	81 83       	std	Z+1, r24	; 0x01
		
		trim[ELEVATOR]++;
     a04:	e7 eb       	ldi	r30, 0xB7	; 183
     a06:	f5 e0       	ldi	r31, 0x05	; 5
     a08:	81 81       	ldd	r24, Z+1	; 0x01
     a0a:	8f 5f       	subi	r24, 0xFF	; 255
     a0c:	81 83       	std	Z+1, r24	; 0x01
		button_tog[3] = OFF;
     a0e:	10 92 b0 05 	sts	0x05B0, r1	; 0x8005b0 <button_tog+0x3>
	}
	
	
	PORTD |= PO1|PO3;
     a12:	8b b1       	in	r24, 0x0b	; 11
     a14:	80 6a       	ori	r24, 0xA0	; 160
     a16:	8b b9       	out	0x0b, r24	; 11
	PORTD &= ~PO2;
     a18:	5e 98       	cbi	0x0b, 6	; 11
     a1a:	80 ea       	ldi	r24, 0xA0	; 160
     a1c:	8a 95       	dec	r24
     a1e:	f1 f7       	brne	.-4      	; 0xa1c <__stack+0x11d>
	_delay_us(60);
	
	////////// CH3 (Aileron) /////////////////////////////////////////////////
	// CH3 (Aileron) trim -
	if (!(PINB & PI1))
     a20:	18 99       	sbic	0x03, 0	; 3
     a22:	23 c0       	rjmp	.+70     	; 0xa6a <__stack+0x16b>
	{
		// buzzer frequency
		if (trim[AILERON] != 1)
     a24:	80 91 b7 05 	lds	r24, 0x05B7	; 0x8005b7 <trim>
     a28:	81 30       	cpi	r24, 0x01	; 1
     a2a:	59 f0       	breq	.+22     	; 0xa42 <__stack+0x143>
			buzzer_freq = 1000 + ((trim[AILERON]-1)<<4);
     a2c:	20 e1       	ldi	r18, 0x10	; 16
     a2e:	82 02       	muls	r24, r18
     a30:	c0 01       	movw	r24, r0
     a32:	11 24       	eor	r1, r1
     a34:	88 52       	subi	r24, 0x28	; 40
     a36:	9c 4f       	sbci	r25, 0xFC	; 252
     a38:	90 93 e6 05 	sts	0x05E6, r25	; 0x8005e6 <buzzer_freq+0x1>
     a3c:	80 93 e5 05 	sts	0x05E5, r24	; 0x8005e5 <buzzer_freq>
     a40:	06 c0       	rjmp	.+12     	; 0xa4e <__stack+0x14f>
		else
			buzzer_freq = 3000;	// if trim is 0, high pitch sound
     a42:	88 eb       	ldi	r24, 0xB8	; 184
     a44:	9b e0       	ldi	r25, 0x0B	; 11
     a46:	90 93 e6 05 	sts	0x05E6, r25	; 0x8005e6 <buzzer_freq+0x1>
     a4a:	80 93 e5 05 	sts	0x05E5, r24	; 0x8005e5 <buzzer_freq>
		
		buzzer_setting[PERIOD]= 15;
     a4e:	eb ea       	ldi	r30, 0xAB	; 171
     a50:	f5 e0       	ldi	r31, 0x05	; 5
     a52:	8f e0       	ldi	r24, 0x0F	; 15
     a54:	80 83       	st	Z, r24
		if (!(buzzer_setting[SETTING] & STAT))
     a56:	81 81       	ldd	r24, Z+1	; 0x01
     a58:	85 fd       	sbrc	r24, 5
     a5a:	03 c0       	rjmp	.+6      	; 0xa62 <__stack+0x163>
			buzzer_setting[SETTING] |= BUZZER_SET|STAT;
     a5c:	88 62       	ori	r24, 0x28	; 40
     a5e:	80 93 ac 05 	sts	0x05AC, r24	; 0x8005ac <buzzer_setting+0x1>
		
		button_tog[4] = ON;
     a62:	81 e0       	ldi	r24, 0x01	; 1
     a64:	80 93 b1 05 	sts	0x05B1, r24	; 0x8005b1 <button_tog+0x4>
     a68:	12 c0       	rjmp	.+36     	; 0xa8e <__stack+0x18f>
	}
	else if ((PINB & PI1) && (button_tog[4] == ON))
     a6a:	18 9b       	sbis	0x03, 0	; 3
     a6c:	10 c0       	rjmp	.+32     	; 0xa8e <__stack+0x18f>
     a6e:	80 91 b1 05 	lds	r24, 0x05B1	; 0x8005b1 <button_tog+0x4>
     a72:	81 30       	cpi	r24, 0x01	; 1
     a74:	61 f4       	brne	.+24     	; 0xa8e <__stack+0x18f>
	{
		// buzzer reset
		buzzer_setting[SETTING] &= ~STAT;	// reset STAT for single input
     a76:	eb ea       	ldi	r30, 0xAB	; 171
     a78:	f5 e0       	ldi	r31, 0x05	; 5
     a7a:	81 81       	ldd	r24, Z+1	; 0x01
     a7c:	8f 7d       	andi	r24, 0xDF	; 223
     a7e:	81 83       	std	Z+1, r24	; 0x01
		
		trim[AILERON]--;
     a80:	e7 eb       	ldi	r30, 0xB7	; 183
     a82:	f5 e0       	ldi	r31, 0x05	; 5
     a84:	80 81       	ld	r24, Z
     a86:	81 50       	subi	r24, 0x01	; 1
     a88:	80 83       	st	Z, r24
		button_tog[4] = OFF;
     a8a:	10 92 b1 05 	sts	0x05B1, r1	; 0x8005b1 <button_tog+0x4>
	}
	
	// CH2 (Aileron) trim +
	if (!(PINB & PI2))
     a8e:	1a 99       	sbic	0x03, 2	; 3
     a90:	23 c0       	rjmp	.+70     	; 0xad8 <__stack+0x1d9>
	{
		// buzzer frequency
		if (trim[AILERON] != -1)
     a92:	80 91 b7 05 	lds	r24, 0x05B7	; 0x8005b7 <trim>
     a96:	8f 3f       	cpi	r24, 0xFF	; 255
     a98:	59 f0       	breq	.+22     	; 0xab0 <__stack+0x1b1>
			buzzer_freq = 1000 + ((trim[AILERON]+1)<<4);
     a9a:	20 e1       	ldi	r18, 0x10	; 16
     a9c:	82 02       	muls	r24, r18
     a9e:	c0 01       	movw	r24, r0
     aa0:	11 24       	eor	r1, r1
     aa2:	88 50       	subi	r24, 0x08	; 8
     aa4:	9c 4f       	sbci	r25, 0xFC	; 252
     aa6:	90 93 e6 05 	sts	0x05E6, r25	; 0x8005e6 <buzzer_freq+0x1>
     aaa:	80 93 e5 05 	sts	0x05E5, r24	; 0x8005e5 <buzzer_freq>
     aae:	06 c0       	rjmp	.+12     	; 0xabc <__stack+0x1bd>
		else
			buzzer_freq = 3000;	// if trim is 0, high pitch sound
     ab0:	88 eb       	ldi	r24, 0xB8	; 184
     ab2:	9b e0       	ldi	r25, 0x0B	; 11
     ab4:	90 93 e6 05 	sts	0x05E6, r25	; 0x8005e6 <buzzer_freq+0x1>
     ab8:	80 93 e5 05 	sts	0x05E5, r24	; 0x8005e5 <buzzer_freq>
		
		buzzer_setting[PERIOD]= 15;
     abc:	eb ea       	ldi	r30, 0xAB	; 171
     abe:	f5 e0       	ldi	r31, 0x05	; 5
     ac0:	8f e0       	ldi	r24, 0x0F	; 15
     ac2:	80 83       	st	Z, r24
		if (!(buzzer_setting[SETTING] & STAT))
     ac4:	81 81       	ldd	r24, Z+1	; 0x01
     ac6:	85 fd       	sbrc	r24, 5
     ac8:	03 c0       	rjmp	.+6      	; 0xad0 <__stack+0x1d1>
			buzzer_setting[SETTING] |= BUZZER_SET|STAT;
     aca:	88 62       	ori	r24, 0x28	; 40
     acc:	80 93 ac 05 	sts	0x05AC, r24	; 0x8005ac <buzzer_setting+0x1>
		
		button_tog[5] = ON;
     ad0:	81 e0       	ldi	r24, 0x01	; 1
     ad2:	80 93 b2 05 	sts	0x05B2, r24	; 0x8005b2 <button_tog+0x5>
     ad6:	12 c0       	rjmp	.+36     	; 0xafc <__stack+0x1fd>
	}
	else if ((PINB & PI2) && (button_tog[5] == ON))
     ad8:	1a 9b       	sbis	0x03, 2	; 3
     ada:	10 c0       	rjmp	.+32     	; 0xafc <__stack+0x1fd>
     adc:	80 91 b2 05 	lds	r24, 0x05B2	; 0x8005b2 <button_tog+0x5>
     ae0:	81 30       	cpi	r24, 0x01	; 1
     ae2:	61 f4       	brne	.+24     	; 0xafc <__stack+0x1fd>
	{
		// buzzer reset
		buzzer_setting[SETTING] &= ~STAT;	// reset STAT for single input
     ae4:	eb ea       	ldi	r30, 0xAB	; 171
     ae6:	f5 e0       	ldi	r31, 0x05	; 5
     ae8:	81 81       	ldd	r24, Z+1	; 0x01
     aea:	8f 7d       	andi	r24, 0xDF	; 223
     aec:	81 83       	std	Z+1, r24	; 0x01
		
		trim[AILERON]++;
     aee:	e7 eb       	ldi	r30, 0xB7	; 183
     af0:	f5 e0       	ldi	r31, 0x05	; 5
     af2:	80 81       	ld	r24, Z
     af4:	8f 5f       	subi	r24, 0xFF	; 255
     af6:	80 83       	st	Z, r24
		button_tog[5] = OFF;
     af8:	10 92 b2 05 	sts	0x05B2, r1	; 0x8005b2 <button_tog+0x5>
	}
	
	PORTD |= PO1|PO2|PO3;
     afc:	8b b1       	in	r24, 0x0b	; 11
     afe:	80 6e       	ori	r24, 0xE0	; 224
     b00:	8b b9       	out	0x0b, r24	; 11
	PORTE |= PO4;
     b02:	71 9a       	sbi	0x0e, 1	; 14
     b04:	08 95       	ret

00000b06 <switch_read>:
}
void switch_read()
{
	PORTD |= PO1|PO2;
     b06:	8b b1       	in	r24, 0x0b	; 11
     b08:	80 66       	ori	r24, 0x60	; 96
     b0a:	8b b9       	out	0x0b, r24	; 11
	PORTD &= ~PO3;
     b0c:	5f 98       	cbi	0x0b, 7	; 11
     b0e:	80 ea       	ldi	r24, 0xA0	; 160
     b10:	8a 95       	dec	r24
     b12:	f1 f7       	brne	.-4      	; 0xb10 <switch_read+0xa>
	_delay_us(60);
	
	// SW1
	if (PINB & PI4)	switch_val &= ~SW1;
     b14:	1e 9b       	sbis	0x03, 6	; 3
     b16:	06 c0       	rjmp	.+12     	; 0xb24 <switch_read+0x1e>
     b18:	80 91 a9 05 	lds	r24, 0x05A9	; 0x8005a9 <switch_val>
     b1c:	8e 7f       	andi	r24, 0xFE	; 254
     b1e:	80 93 a9 05 	sts	0x05A9, r24	; 0x8005a9 <switch_val>
     b22:	05 c0       	rjmp	.+10     	; 0xb2e <switch_read+0x28>
	else			switch_val |= SW1;
     b24:	80 91 a9 05 	lds	r24, 0x05A9	; 0x8005a9 <switch_val>
     b28:	81 60       	ori	r24, 0x01	; 1
     b2a:	80 93 a9 05 	sts	0x05A9, r24	; 0x8005a9 <switch_val>
	// SW2
	if (PINB & PI3)	switch_val &= ~SW2;
     b2e:	1f 9b       	sbis	0x03, 7	; 3
     b30:	06 c0       	rjmp	.+12     	; 0xb3e <switch_read+0x38>
     b32:	80 91 a9 05 	lds	r24, 0x05A9	; 0x8005a9 <switch_val>
     b36:	8d 7f       	andi	r24, 0xFD	; 253
     b38:	80 93 a9 05 	sts	0x05A9, r24	; 0x8005a9 <switch_val>
     b3c:	05 c0       	rjmp	.+10     	; 0xb48 <switch_read+0x42>
	else			switch_val |= SW2;
     b3e:	80 91 a9 05 	lds	r24, 0x05A9	; 0x8005a9 <switch_val>
     b42:	82 60       	ori	r24, 0x02	; 2
     b44:	80 93 a9 05 	sts	0x05A9, r24	; 0x8005a9 <switch_val>
	// SW3
	if (PINB & PI1)	switch_val &= ~SW3;
     b48:	18 9b       	sbis	0x03, 0	; 3
     b4a:	06 c0       	rjmp	.+12     	; 0xb58 <switch_read+0x52>
     b4c:	80 91 a9 05 	lds	r24, 0x05A9	; 0x8005a9 <switch_val>
     b50:	8b 7f       	andi	r24, 0xFB	; 251
     b52:	80 93 a9 05 	sts	0x05A9, r24	; 0x8005a9 <switch_val>
     b56:	05 c0       	rjmp	.+10     	; 0xb62 <switch_read+0x5c>
	else			switch_val |= SW3;
     b58:	80 91 a9 05 	lds	r24, 0x05A9	; 0x8005a9 <switch_val>
     b5c:	84 60       	ori	r24, 0x04	; 4
     b5e:	80 93 a9 05 	sts	0x05A9, r24	; 0x8005a9 <switch_val>
	// SW4
	if (PINB & PI2)	switch_val &= ~SW4;
     b62:	1a 9b       	sbis	0x03, 2	; 3
     b64:	06 c0       	rjmp	.+12     	; 0xb72 <switch_read+0x6c>
     b66:	80 91 a9 05 	lds	r24, 0x05A9	; 0x8005a9 <switch_val>
     b6a:	87 7f       	andi	r24, 0xF7	; 247
     b6c:	80 93 a9 05 	sts	0x05A9, r24	; 0x8005a9 <switch_val>
     b70:	05 c0       	rjmp	.+10     	; 0xb7c <switch_read+0x76>
	else			switch_val |= SW4;
     b72:	80 91 a9 05 	lds	r24, 0x05A9	; 0x8005a9 <switch_val>
     b76:	88 60       	ori	r24, 0x08	; 8
     b78:	80 93 a9 05 	sts	0x05A9, r24	; 0x8005a9 <switch_val>
	
	PORTD |= PO1|PO2|PO3;
     b7c:	8b b1       	in	r24, 0x0b	; 11
     b7e:	80 6e       	ori	r24, 0xE0	; 224
     b80:	8b b9       	out	0x0b, r24	; 11
	PORTE &= ~PO4;
     b82:	71 98       	cbi	0x0e, 1	; 14
     b84:	80 ea       	ldi	r24, 0xA0	; 160
     b86:	8a 95       	dec	r24
     b88:	f1 f7       	brne	.-4      	; 0xb86 <switch_read+0x80>
	_delay_us(60);
	
	// SW5
	if (PINB & PI4)	switch_val &= ~SW5;
     b8a:	1e 9b       	sbis	0x03, 6	; 3
     b8c:	06 c0       	rjmp	.+12     	; 0xb9a <switch_read+0x94>
     b8e:	80 91 a9 05 	lds	r24, 0x05A9	; 0x8005a9 <switch_val>
     b92:	8f 7e       	andi	r24, 0xEF	; 239
     b94:	80 93 a9 05 	sts	0x05A9, r24	; 0x8005a9 <switch_val>
     b98:	05 c0       	rjmp	.+10     	; 0xba4 <switch_read+0x9e>
	else			switch_val |= SW5;
     b9a:	80 91 a9 05 	lds	r24, 0x05A9	; 0x8005a9 <switch_val>
     b9e:	80 61       	ori	r24, 0x10	; 16
     ba0:	80 93 a9 05 	sts	0x05A9, r24	; 0x8005a9 <switch_val>
	// SW6
	if (PINB & PI3)	switch_val &= ~SW6;
     ba4:	1f 9b       	sbis	0x03, 7	; 3
     ba6:	06 c0       	rjmp	.+12     	; 0xbb4 <switch_read+0xae>
     ba8:	80 91 a9 05 	lds	r24, 0x05A9	; 0x8005a9 <switch_val>
     bac:	8f 7d       	andi	r24, 0xDF	; 223
     bae:	80 93 a9 05 	sts	0x05A9, r24	; 0x8005a9 <switch_val>
     bb2:	05 c0       	rjmp	.+10     	; 0xbbe <switch_read+0xb8>
	else			switch_val |= SW6;
     bb4:	80 91 a9 05 	lds	r24, 0x05A9	; 0x8005a9 <switch_val>
     bb8:	80 62       	ori	r24, 0x20	; 32
     bba:	80 93 a9 05 	sts	0x05A9, r24	; 0x8005a9 <switch_val>
	// SW7
	if (PINB & PI2)	switch_val &= ~SW7;
     bbe:	1a 9b       	sbis	0x03, 2	; 3
     bc0:	06 c0       	rjmp	.+12     	; 0xbce <switch_read+0xc8>
     bc2:	80 91 a9 05 	lds	r24, 0x05A9	; 0x8005a9 <switch_val>
     bc6:	8f 7b       	andi	r24, 0xBF	; 191
     bc8:	80 93 a9 05 	sts	0x05A9, r24	; 0x8005a9 <switch_val>
     bcc:	05 c0       	rjmp	.+10     	; 0xbd8 <switch_read+0xd2>
	else			switch_val |= SW7;
     bce:	80 91 a9 05 	lds	r24, 0x05A9	; 0x8005a9 <switch_val>
     bd2:	80 64       	ori	r24, 0x40	; 64
     bd4:	80 93 a9 05 	sts	0x05A9, r24	; 0x8005a9 <switch_val>
	// SW8
	if (PINB & PI1)	switch_val &= ~SW8;
     bd8:	18 9b       	sbis	0x03, 0	; 3
     bda:	06 c0       	rjmp	.+12     	; 0xbe8 <switch_read+0xe2>
     bdc:	80 91 a9 05 	lds	r24, 0x05A9	; 0x8005a9 <switch_val>
     be0:	8f 77       	andi	r24, 0x7F	; 127
     be2:	80 93 a9 05 	sts	0x05A9, r24	; 0x8005a9 <switch_val>
     be6:	05 c0       	rjmp	.+10     	; 0xbf2 <switch_read+0xec>
	else			switch_val |= SW8;
     be8:	80 91 a9 05 	lds	r24, 0x05A9	; 0x8005a9 <switch_val>
     bec:	80 68       	ori	r24, 0x80	; 128
     bee:	80 93 a9 05 	sts	0x05A9, r24	; 0x8005a9 <switch_val>
	
	PORTD |= PO1|PO2|PO3;
     bf2:	8b b1       	in	r24, 0x0b	; 11
     bf4:	80 6e       	ori	r24, 0xE0	; 224
     bf6:	8b b9       	out	0x0b, r24	; 11
     bf8:	08 95       	ret

00000bfa <menu_read>:
	
}
uint8_t menu_read()
{
	PORTD |= PO1|PO3;
     bfa:	8b b1       	in	r24, 0x0b	; 11
     bfc:	80 6a       	ori	r24, 0xA0	; 160
     bfe:	8b b9       	out	0x0b, r24	; 11
	PORTD &= ~PO2;
     c00:	5e 98       	cbi	0x0b, 6	; 11
     c02:	80 ea       	ldi	r24, 0xA0	; 160
     c04:	8a 95       	dec	r24
     c06:	f1 f7       	brne	.-4      	; 0xc04 <menu_read+0xa>
	_delay_us(60);
	
	////////// Multi-input /////////////////////////////////////////
	if (!(PINB & PI3) && !(PINB & PI4))
     c08:	1f 99       	sbic	0x03, 7	; 3
     c0a:	19 c0       	rjmp	.+50     	; 0xc3e <menu_read+0x44>
     c0c:	1e 99       	sbic	0x03, 6	; 3
     c0e:	17 c0       	rjmp	.+46     	; 0xc3e <menu_read+0x44>
	{
		// buzzer
		buzzer_freq = 1000;
     c10:	88 ee       	ldi	r24, 0xE8	; 232
     c12:	93 e0       	ldi	r25, 0x03	; 3
     c14:	90 93 e6 05 	sts	0x05E6, r25	; 0x8005e6 <buzzer_freq+0x1>
     c18:	80 93 e5 05 	sts	0x05E5, r24	; 0x8005e5 <buzzer_freq>
		buzzer_setting[PERIOD]= 15;
     c1c:	eb ea       	ldi	r30, 0xAB	; 171
     c1e:	f5 e0       	ldi	r31, 0x05	; 5
     c20:	8f e0       	ldi	r24, 0x0F	; 15
     c22:	80 83       	st	Z, r24
		if (!(buzzer_setting[SETTING] & STAT))
     c24:	81 81       	ldd	r24, Z+1	; 0x01
     c26:	85 fd       	sbrc	r24, 5
     c28:	03 c0       	rjmp	.+6      	; 0xc30 <menu_read+0x36>
			buzzer_setting[SETTING] |= BUZZER_SET|STAT;
     c2a:	88 62       	ori	r24, 0x28	; 40
     c2c:	80 93 ac 05 	sts	0x05AC, r24	; 0x8005ac <buzzer_setting+0x1>
		
		button_tog[6] = OFF;
     c30:	ed ea       	ldi	r30, 0xAD	; 173
     c32:	f5 e0       	ldi	r31, 0x05	; 5
     c34:	16 82       	std	Z+6, r1	; 0x06
		button_tog[7] = OFF;
     c36:	17 82       	std	Z+7, r1	; 0x07
		button_tog[8] = ON;
     c38:	81 e0       	ldi	r24, 0x01	; 1
     c3a:	80 87       	std	Z+8, r24	; 0x08
     c3c:	67 c0       	rjmp	.+206    	; 0xd0c <menu_read+0x112>
	}
	else if (((PINB & PI3) && (PINB & PI4)) && (button_tog[8] == ON))
     c3e:	1f 9b       	sbis	0x03, 7	; 3
     c40:	11 c0       	rjmp	.+34     	; 0xc64 <menu_read+0x6a>
     c42:	1e 9b       	sbis	0x03, 6	; 3
     c44:	0f c0       	rjmp	.+30     	; 0xc64 <menu_read+0x6a>
     c46:	80 91 b5 05 	lds	r24, 0x05B5	; 0x8005b5 <button_tog+0x8>
     c4a:	81 30       	cpi	r24, 0x01	; 1
     c4c:	59 f4       	brne	.+22     	; 0xc64 <menu_read+0x6a>
	{
		buzzer_setting[SETTING] &= ~STAT;
     c4e:	eb ea       	ldi	r30, 0xAB	; 171
     c50:	f5 e0       	ldi	r31, 0x05	; 5
     c52:	91 81       	ldd	r25, Z+1	; 0x01
     c54:	9f 7d       	andi	r25, 0xDF	; 223
     c56:	91 83       	std	Z+1, r25	; 0x01
		
		button_tog[8] = OFF;
     c58:	10 92 b5 05 	sts	0x05B5, r1	; 0x8005b5 <button_tog+0x8>
		
		PORTD |= PO1|PO2|PO3;
     c5c:	9b b1       	in	r25, 0x0b	; 11
     c5e:	90 6e       	ori	r25, 0xE0	; 224
     c60:	9b b9       	out	0x0b, r25	; 11
		return 1;
     c62:	08 95       	ret
	}
	
	////////// Single-input ////////////////////////////////////////
	else if (!button_tog[8])	
     c64:	80 91 b5 05 	lds	r24, 0x05B5	; 0x8005b5 <button_tog+0x8>
     c68:	81 11       	cpse	r24, r1
     c6a:	50 c0       	rjmp	.+160    	; 0xd0c <menu_read+0x112>
	{
		if (!(PINB & PI3))	// Menu 1
     c6c:	1f 99       	sbic	0x03, 7	; 3
     c6e:	14 c0       	rjmp	.+40     	; 0xc98 <menu_read+0x9e>
		{
			buzzer_freq = 1000;
     c70:	88 ee       	ldi	r24, 0xE8	; 232
     c72:	93 e0       	ldi	r25, 0x03	; 3
     c74:	90 93 e6 05 	sts	0x05E6, r25	; 0x8005e6 <buzzer_freq+0x1>
     c78:	80 93 e5 05 	sts	0x05E5, r24	; 0x8005e5 <buzzer_freq>
			buzzer_setting[PERIOD]= 15;
     c7c:	eb ea       	ldi	r30, 0xAB	; 171
     c7e:	f5 e0       	ldi	r31, 0x05	; 5
     c80:	8f e0       	ldi	r24, 0x0F	; 15
     c82:	80 83       	st	Z, r24
			if (!(buzzer_setting[SETTING] & STAT))
     c84:	81 81       	ldd	r24, Z+1	; 0x01
     c86:	85 fd       	sbrc	r24, 5
     c88:	03 c0       	rjmp	.+6      	; 0xc90 <menu_read+0x96>
				buzzer_setting[SETTING] |= BUZZER_SET|STAT;
     c8a:	88 62       	ori	r24, 0x28	; 40
     c8c:	80 93 ac 05 	sts	0x05AC, r24	; 0x8005ac <buzzer_setting+0x1>
			
			button_tog[6] = ON;
     c90:	81 e0       	ldi	r24, 0x01	; 1
     c92:	80 93 b3 05 	sts	0x05B3, r24	; 0x8005b3 <button_tog+0x6>
     c96:	12 c0       	rjmp	.+36     	; 0xcbc <menu_read+0xc2>
		}
		else if ((PINB & PI3) && (button_tog[6] == ON))
     c98:	1f 9b       	sbis	0x03, 7	; 3
     c9a:	10 c0       	rjmp	.+32     	; 0xcbc <menu_read+0xc2>
     c9c:	80 91 b3 05 	lds	r24, 0x05B3	; 0x8005b3 <button_tog+0x6>
     ca0:	81 30       	cpi	r24, 0x01	; 1
     ca2:	61 f4       	brne	.+24     	; 0xcbc <menu_read+0xc2>
		{
			// buzzer reset
			buzzer_setting[SETTING] &= ~STAT;
     ca4:	eb ea       	ldi	r30, 0xAB	; 171
     ca6:	f5 e0       	ldi	r31, 0x05	; 5
     ca8:	81 81       	ldd	r24, Z+1	; 0x01
     caa:	8f 7d       	andi	r24, 0xDF	; 223
     cac:	81 83       	std	Z+1, r24	; 0x01
			
			menu_input++;
     cae:	80 91 ce 05 	lds	r24, 0x05CE	; 0x8005ce <menu_input>
     cb2:	8f 5f       	subi	r24, 0xFF	; 255
     cb4:	80 93 ce 05 	sts	0x05CE, r24	; 0x8005ce <menu_input>
			button_tog[6] = OFF;
     cb8:	10 92 b3 05 	sts	0x05B3, r1	; 0x8005b3 <button_tog+0x6>
		}
		
		if (!(PINB & PI4))   // Menu 2
     cbc:	1e 99       	sbic	0x03, 6	; 3
     cbe:	14 c0       	rjmp	.+40     	; 0xce8 <menu_read+0xee>
		{
			buzzer_freq = 1000;
     cc0:	88 ee       	ldi	r24, 0xE8	; 232
     cc2:	93 e0       	ldi	r25, 0x03	; 3
     cc4:	90 93 e6 05 	sts	0x05E6, r25	; 0x8005e6 <buzzer_freq+0x1>
     cc8:	80 93 e5 05 	sts	0x05E5, r24	; 0x8005e5 <buzzer_freq>
			buzzer_setting[PERIOD]= 15;
     ccc:	eb ea       	ldi	r30, 0xAB	; 171
     cce:	f5 e0       	ldi	r31, 0x05	; 5
     cd0:	8f e0       	ldi	r24, 0x0F	; 15
     cd2:	80 83       	st	Z, r24
			if (!(buzzer_setting[SETTING] & STAT))
     cd4:	81 81       	ldd	r24, Z+1	; 0x01
     cd6:	85 fd       	sbrc	r24, 5
     cd8:	03 c0       	rjmp	.+6      	; 0xce0 <menu_read+0xe6>
				buzzer_setting[SETTING] |= BUZZER_SET|STAT;
     cda:	88 62       	ori	r24, 0x28	; 40
     cdc:	80 93 ac 05 	sts	0x05AC, r24	; 0x8005ac <buzzer_setting+0x1>
			
			button_tog[7] = ON;
     ce0:	81 e0       	ldi	r24, 0x01	; 1
     ce2:	80 93 b4 05 	sts	0x05B4, r24	; 0x8005b4 <button_tog+0x7>
     ce6:	12 c0       	rjmp	.+36     	; 0xd0c <menu_read+0x112>
		}
		else if ((PINB & PI4) && (button_tog[7] == ON))
     ce8:	1e 9b       	sbis	0x03, 6	; 3
     cea:	10 c0       	rjmp	.+32     	; 0xd0c <menu_read+0x112>
     cec:	80 91 b4 05 	lds	r24, 0x05B4	; 0x8005b4 <button_tog+0x7>
     cf0:	81 30       	cpi	r24, 0x01	; 1
     cf2:	61 f4       	brne	.+24     	; 0xd0c <menu_read+0x112>
		{
			// buzzer reset
			buzzer_setting[SETTING] &= ~STAT;
     cf4:	eb ea       	ldi	r30, 0xAB	; 171
     cf6:	f5 e0       	ldi	r31, 0x05	; 5
     cf8:	81 81       	ldd	r24, Z+1	; 0x01
     cfa:	8f 7d       	andi	r24, 0xDF	; 223
     cfc:	81 83       	std	Z+1, r24	; 0x01
			
			menu_input--;
     cfe:	80 91 ce 05 	lds	r24, 0x05CE	; 0x8005ce <menu_input>
     d02:	81 50       	subi	r24, 0x01	; 1
     d04:	80 93 ce 05 	sts	0x05CE, r24	; 0x8005ce <menu_input>
			button_tog[7] = OFF;
     d08:	10 92 b4 05 	sts	0x05B4, r1	; 0x8005b4 <button_tog+0x7>
		}
	}
	
	PORTD |= PO1|PO2|PO3;
     d0c:	8b b1       	in	r24, 0x0b	; 11
     d0e:	80 6e       	ori	r24, 0xE0	; 224
     d10:	8b b9       	out	0x0b, r24	; 11
	return 0;
     d12:	80 e0       	ldi	r24, 0x00	; 0
}
     d14:	08 95       	ret

00000d16 <transmitter_bat_chk>:
uint8_t transmitter_bat_chk()
{
	ADMUX = (1 << REFS0) | (1 << ADLAR) | 6;	// external vref, choose adc pin(6). read only 8 bit
     d16:	86 e6       	ldi	r24, 0x66	; 102
     d18:	80 93 7c 00 	sts	0x007C, r24	; 0x80007c <__DATA_REGION_ORIGIN__+0x1c>
	ADCSRA = (1 << ADEN) | (1 << ADSC) | (7 << ADPS0);	// start adc read, adc prescalar 128
     d1c:	87 ec       	ldi	r24, 0xC7	; 199
     d1e:	80 93 7a 00 	sts	0x007A, r24	; 0x80007a <__DATA_REGION_ORIGIN__+0x1a>
	while (ADCSRA & (1 << ADSC));	// wait till conversion is finished
     d22:	ea e7       	ldi	r30, 0x7A	; 122
     d24:	f0 e0       	ldi	r31, 0x00	; 0
     d26:	80 81       	ld	r24, Z
     d28:	86 fd       	sbrc	r24, 6
     d2a:	fd cf       	rjmp	.-6      	; 0xd26 <transmitter_bat_chk+0x10>
	TX_bat_mes = ADCH;
     d2c:	80 91 79 00 	lds	r24, 0x0079	; 0x800079 <__DATA_REGION_ORIGIN__+0x19>
     d30:	80 93 dc 05 	sts	0x05DC, r24	; 0x8005dc <TX_bat_mes>
	
	return TX_bat_mes;
	
}
     d34:	08 95       	ret

00000d36 <set_switch>:
/*      Make channel value							*/
/*													*/
/*													*/
/****************************************************/
void set_switch()
{
     d36:	cf 93       	push	r28
     d38:	ed ed       	ldi	r30, 0xDD	; 221
     d3a:	f5 e0       	ldi	r31, 0x05	; 5
     d3c:	20 e0       	ldi	r18, 0x00	; 0
     d3e:	30 e0       	ldi	r19, 0x00	; 0
	uint8_t ail_dr = 0, ele_dr = 0, thr_dr = 0, rud_dr = 0, ch5_dr = 0, ch5_sw = 0;
     d40:	b0 e0       	ldi	r27, 0x00	; 0
     d42:	c0 e0       	ldi	r28, 0x00	; 0
     d44:	a0 e0       	ldi	r26, 0x00	; 0
     d46:	50 e0       	ldi	r21, 0x00	; 0
     d48:	60 e0       	ldi	r22, 0x00	; 0
     d4a:	70 e0       	ldi	r23, 0x00	; 0
			case ELE_DR:
				ele_dr = (1<<k);
				break;
			
			case THR_DR:
				thr_dr = (1<<k);
     d4c:	41 e0       	ldi	r20, 0x01	; 1
	uint8_t ail_dr = 0, ele_dr = 0, thr_dr = 0, rud_dr = 0, ch5_dr = 0, ch5_sw = 0;
	
	
	for (uint8_t k=0; k<8; k++)
	{
		switch (sw[k])
     d4e:	81 91       	ld	r24, Z+
     d50:	84 30       	cpi	r24, 0x04	; 4
     d52:	d9 f0       	breq	.+54     	; 0xd8a <set_switch+0x54>
     d54:	28 f4       	brcc	.+10     	; 0xd60 <set_switch+0x2a>
     d56:	81 30       	cpi	r24, 0x01	; 1
     d58:	51 f0       	breq	.+20     	; 0xd6e <set_switch+0x38>
     d5a:	82 30       	cpi	r24, 0x02	; 2
     d5c:	79 f0       	breq	.+30     	; 0xd7c <set_switch+0x46>
     d5e:	32 c0       	rjmp	.+100    	; 0xdc4 <set_switch+0x8e>
     d60:	80 31       	cpi	r24, 0x10	; 16
     d62:	09 f1       	breq	.+66     	; 0xda6 <set_switch+0x70>
     d64:	80 32       	cpi	r24, 0x20	; 32
     d66:	39 f1       	breq	.+78     	; 0xdb6 <set_switch+0x80>
     d68:	88 30       	cpi	r24, 0x08	; 8
     d6a:	61 f5       	brne	.+88     	; 0xdc4 <set_switch+0x8e>
     d6c:	15 c0       	rjmp	.+42     	; 0xd98 <set_switch+0x62>
		{
			case AIL_DR:
				ail_dr = (1<<k);
     d6e:	74 2f       	mov	r23, r20
     d70:	02 2e       	mov	r0, r18
     d72:	01 c0       	rjmp	.+2      	; 0xd76 <set_switch+0x40>
     d74:	77 0f       	add	r23, r23
     d76:	0a 94       	dec	r0
     d78:	ea f7       	brpl	.-6      	; 0xd74 <set_switch+0x3e>
				break;
     d7a:	24 c0       	rjmp	.+72     	; 0xdc4 <set_switch+0x8e>
			
			case ELE_DR:
				ele_dr = (1<<k);
     d7c:	64 2f       	mov	r22, r20
     d7e:	02 2e       	mov	r0, r18
     d80:	01 c0       	rjmp	.+2      	; 0xd84 <set_switch+0x4e>
     d82:	66 0f       	add	r22, r22
     d84:	0a 94       	dec	r0
     d86:	ea f7       	brpl	.-6      	; 0xd82 <set_switch+0x4c>
				break;
     d88:	1d c0       	rjmp	.+58     	; 0xdc4 <set_switch+0x8e>
			
			case THR_DR:
				thr_dr = (1<<k);
     d8a:	54 2f       	mov	r21, r20
     d8c:	02 2e       	mov	r0, r18
     d8e:	01 c0       	rjmp	.+2      	; 0xd92 <set_switch+0x5c>
     d90:	55 0f       	add	r21, r21
     d92:	0a 94       	dec	r0
     d94:	ea f7       	brpl	.-6      	; 0xd90 <set_switch+0x5a>
				break;
     d96:	16 c0       	rjmp	.+44     	; 0xdc4 <set_switch+0x8e>
			
			case RUD_DR:
				rud_dr = (1<<k);
     d98:	a4 2f       	mov	r26, r20
     d9a:	02 2e       	mov	r0, r18
     d9c:	01 c0       	rjmp	.+2      	; 0xda0 <set_switch+0x6a>
     d9e:	aa 0f       	add	r26, r26
     da0:	0a 94       	dec	r0
     da2:	ea f7       	brpl	.-6      	; 0xd9e <set_switch+0x68>
				break;
     da4:	0f c0       	rjmp	.+30     	; 0xdc4 <set_switch+0x8e>
			
			case CH5_DR:
				ch5_dr = (1<<k);
     da6:	84 2f       	mov	r24, r20
     da8:	02 2e       	mov	r0, r18
     daa:	01 c0       	rjmp	.+2      	; 0xdae <set_switch+0x78>
     dac:	88 0f       	add	r24, r24
     dae:	0a 94       	dec	r0
     db0:	ea f7       	brpl	.-6      	; 0xdac <set_switch+0x76>
     db2:	c8 2f       	mov	r28, r24
				break;
     db4:	07 c0       	rjmp	.+14     	; 0xdc4 <set_switch+0x8e>
			
			case CH5_SW:
				ch5_sw = (1<<k);
     db6:	84 2f       	mov	r24, r20
     db8:	02 2e       	mov	r0, r18
     dba:	01 c0       	rjmp	.+2      	; 0xdbe <set_switch+0x88>
     dbc:	88 0f       	add	r24, r24
     dbe:	0a 94       	dec	r0
     dc0:	ea f7       	brpl	.-6      	; 0xdbc <set_switch+0x86>
     dc2:	b8 2f       	mov	r27, r24
     dc4:	2f 5f       	subi	r18, 0xFF	; 255
     dc6:	3f 4f       	sbci	r19, 0xFF	; 255
void set_switch()
{
	uint8_t ail_dr = 0, ele_dr = 0, thr_dr = 0, rud_dr = 0, ch5_dr = 0, ch5_sw = 0;
	
	
	for (uint8_t k=0; k<8; k++)
     dc8:	28 30       	cpi	r18, 0x08	; 8
     dca:	31 05       	cpc	r19, r1
     dcc:	09 f0       	breq	.+2      	; 0xdd0 <set_switch+0x9a>
     dce:	bf cf       	rjmp	.-130    	; 0xd4e <set_switch+0x18>
			
		} // switch (sw[i])
	} //for (uint8_t k=0; k<8; k++)
	
	// Aileron DR
	if (ail_dr)
     dd0:	77 23       	and	r23, r23
     dd2:	79 f0       	breq	.+30     	; 0xdf2 <set_switch+0xbc>
	{
		if (switch_val & ail_dr)
     dd4:	80 91 a9 05 	lds	r24, 0x05A9	; 0x8005a9 <switch_val>
     dd8:	78 23       	and	r23, r24
     dda:	31 f0       	breq	.+12     	; 0xde8 <set_switch+0xb2>
			mixing_val_2 |= AIL_DR;
     ddc:	80 91 cd 05 	lds	r24, 0x05CD	; 0x8005cd <mixing_val_2>
     de0:	81 60       	ori	r24, 0x01	; 1
     de2:	80 93 cd 05 	sts	0x05CD, r24	; 0x8005cd <mixing_val_2>
     de6:	05 c0       	rjmp	.+10     	; 0xdf2 <set_switch+0xbc>
		else
			mixing_val_2 &= ~AIL_DR;
     de8:	80 91 cd 05 	lds	r24, 0x05CD	; 0x8005cd <mixing_val_2>
     dec:	8e 7f       	andi	r24, 0xFE	; 254
     dee:	80 93 cd 05 	sts	0x05CD, r24	; 0x8005cd <mixing_val_2>
	}
	// Elevator DR
	if (ele_dr)
     df2:	66 23       	and	r22, r22
     df4:	79 f0       	breq	.+30     	; 0xe14 <set_switch+0xde>
	{
		if (switch_val & ele_dr)
     df6:	80 91 a9 05 	lds	r24, 0x05A9	; 0x8005a9 <switch_val>
     dfa:	68 23       	and	r22, r24
     dfc:	31 f0       	breq	.+12     	; 0xe0a <set_switch+0xd4>
			mixing_val_2 |= ELE_DR;
     dfe:	80 91 cd 05 	lds	r24, 0x05CD	; 0x8005cd <mixing_val_2>
     e02:	82 60       	ori	r24, 0x02	; 2
     e04:	80 93 cd 05 	sts	0x05CD, r24	; 0x8005cd <mixing_val_2>
     e08:	05 c0       	rjmp	.+10     	; 0xe14 <set_switch+0xde>
		else
			mixing_val_2 &= ~ELE_DR;
     e0a:	80 91 cd 05 	lds	r24, 0x05CD	; 0x8005cd <mixing_val_2>
     e0e:	8d 7f       	andi	r24, 0xFD	; 253
     e10:	80 93 cd 05 	sts	0x05CD, r24	; 0x8005cd <mixing_val_2>
	}
	// Throttle DR
	if (thr_dr)
     e14:	55 23       	and	r21, r21
     e16:	59 f0       	breq	.+22     	; 0xe2e <set_switch+0xf8>
	{
		if (mixing_val_2 & thr_dr)
     e18:	80 91 cd 05 	lds	r24, 0x05CD	; 0x8005cd <mixing_val_2>
     e1c:	58 23       	and	r21, r24
     e1e:	21 f0       	breq	.+8      	; 0xe28 <set_switch+0xf2>
			mixing_val_2 |= THR_DR;
     e20:	84 60       	ori	r24, 0x04	; 4
     e22:	80 93 cd 05 	sts	0x05CD, r24	; 0x8005cd <mixing_val_2>
     e26:	03 c0       	rjmp	.+6      	; 0xe2e <set_switch+0xf8>
		else
			mixing_val_2 &= ~THR_DR;
     e28:	8b 7f       	andi	r24, 0xFB	; 251
     e2a:	80 93 cd 05 	sts	0x05CD, r24	; 0x8005cd <mixing_val_2>
	}
	// Rudder DR
	if (rud_dr)
     e2e:	aa 23       	and	r26, r26
     e30:	79 f0       	breq	.+30     	; 0xe50 <set_switch+0x11a>
	{
		if (switch_val & rud_dr)
     e32:	80 91 a9 05 	lds	r24, 0x05A9	; 0x8005a9 <switch_val>
     e36:	a8 23       	and	r26, r24
     e38:	31 f0       	breq	.+12     	; 0xe46 <set_switch+0x110>
			mixing_val_2 |= RUD_DR;
     e3a:	80 91 cd 05 	lds	r24, 0x05CD	; 0x8005cd <mixing_val_2>
     e3e:	88 60       	ori	r24, 0x08	; 8
     e40:	80 93 cd 05 	sts	0x05CD, r24	; 0x8005cd <mixing_val_2>
     e44:	05 c0       	rjmp	.+10     	; 0xe50 <set_switch+0x11a>
		else
			mixing_val_2 &= ~RUD_DR;
     e46:	80 91 cd 05 	lds	r24, 0x05CD	; 0x8005cd <mixing_val_2>
     e4a:	87 7f       	andi	r24, 0xF7	; 247
     e4c:	80 93 cd 05 	sts	0x05CD, r24	; 0x8005cd <mixing_val_2>
	}
	// CH5 DR
	if (ch5_dr)
     e50:	cc 23       	and	r28, r28
     e52:	79 f0       	breq	.+30     	; 0xe72 <set_switch+0x13c>
	{
		if (switch_val & ch5_dr)
     e54:	90 91 a9 05 	lds	r25, 0x05A9	; 0x8005a9 <switch_val>
     e58:	9c 23       	and	r25, r28
     e5a:	31 f0       	breq	.+12     	; 0xe68 <set_switch+0x132>
			mixing_val_2 |= CH5_DR;
     e5c:	80 91 cd 05 	lds	r24, 0x05CD	; 0x8005cd <mixing_val_2>
     e60:	80 61       	ori	r24, 0x10	; 16
     e62:	80 93 cd 05 	sts	0x05CD, r24	; 0x8005cd <mixing_val_2>
     e66:	05 c0       	rjmp	.+10     	; 0xe72 <set_switch+0x13c>
		else
			mixing_val_2 &= ~CH5_DR;
     e68:	80 91 cd 05 	lds	r24, 0x05CD	; 0x8005cd <mixing_val_2>
     e6c:	8f 7e       	andi	r24, 0xEF	; 239
     e6e:	80 93 cd 05 	sts	0x05CD, r24	; 0x8005cd <mixing_val_2>
	}
	// Aileron DR
	if (ch5_sw)
     e72:	bb 23       	and	r27, r27
     e74:	81 f0       	breq	.+32     	; 0xe96 <set_switch+0x160>
	{
		if (switch_val & ch5_sw)
     e76:	90 91 a9 05 	lds	r25, 0x05A9	; 0x8005a9 <switch_val>
     e7a:	8b 2f       	mov	r24, r27
     e7c:	89 23       	and	r24, r25
     e7e:	31 f0       	breq	.+12     	; 0xe8c <set_switch+0x156>
			channel_mix_temp |= CH5_SW;
     e80:	80 91 b6 05 	lds	r24, 0x05B6	; 0x8005b6 <channel_mix_temp>
     e84:	80 62       	ori	r24, 0x20	; 32
     e86:	80 93 b6 05 	sts	0x05B6, r24	; 0x8005b6 <channel_mix_temp>
     e8a:	05 c0       	rjmp	.+10     	; 0xe96 <set_switch+0x160>
		else
			channel_mix_temp &= ~CH5_SW;
     e8c:	80 91 b6 05 	lds	r24, 0x05B6	; 0x8005b6 <channel_mix_temp>
     e90:	8f 7d       	andi	r24, 0xDF	; 223
     e92:	80 93 b6 05 	sts	0x05B6, r24	; 0x8005b6 <channel_mix_temp>
	}
	
	
}
     e96:	cf 91       	pop	r28
     e98:	08 95       	ret

00000e9a <make_val>:
void make_val()
{   
     e9a:	ff 92       	push	r15
     e9c:	0f 93       	push	r16
     e9e:	1f 93       	push	r17
     ea0:	cf 93       	push	r28
     ea2:	df 93       	push	r29
	uint8_t ail_temp, rud_temp;
	int16_t channel_temp;

	////////// Servo Delay /////////////////////////////////////////
	if (channel_mix_temp & CH5_SW)
     ea4:	80 91 b6 05 	lds	r24, 0x05B6	; 0x8005b6 <channel_mix_temp>
     ea8:	85 ff       	sbrs	r24, 5
     eaa:	0c c0       	rjmp	.+24     	; 0xec4 <make_val+0x2a>
	{
		// Delayed
		if (mixing_val_3 & SERVO_DEL_1)
     eac:	80 91 d6 05 	lds	r24, 0x05D6	; 0x8005d6 <mixing_val_3>
     eb0:	84 ff       	sbrs	r24, 4
     eb2:	05 c0       	rjmp	.+10     	; 0xebe <make_val+0x24>
			channel[CH5] = timer_8ms_Ch5Delay;
     eb4:	80 91 ca 05 	lds	r24, 0x05CA	; 0x8005ca <timer_8ms_Ch5Delay>
     eb8:	80 93 c0 05 	sts	0x05C0, r24	; 0x8005c0 <channel+0x4>
     ebc:	0f c0       	rjmp	.+30     	; 0xedc <make_val+0x42>
		// No delay
		else
			channel[CH5] = 0;
     ebe:	10 92 c0 05 	sts	0x05C0, r1	; 0x8005c0 <channel+0x4>
     ec2:	0c c0       	rjmp	.+24     	; 0xedc <make_val+0x42>
	}
	else
	{
		// Delayed
		if (mixing_val_3 & SERVO_DEL_1)
     ec4:	80 91 d6 05 	lds	r24, 0x05D6	; 0x8005d6 <mixing_val_3>
     ec8:	84 ff       	sbrs	r24, 4
     eca:	05 c0       	rjmp	.+10     	; 0xed6 <make_val+0x3c>
			channel[CH5] = timer_8ms_Ch5Delay;
     ecc:	80 91 ca 05 	lds	r24, 0x05CA	; 0x8005ca <timer_8ms_Ch5Delay>
     ed0:	80 93 c0 05 	sts	0x05C0, r24	; 0x8005c0 <channel+0x4>
     ed4:	03 c0       	rjmp	.+6      	; 0xedc <make_val+0x42>
		// No delay
		else
			channel[CH5] = 0xFF;
     ed6:	8f ef       	ldi	r24, 0xFF	; 255
     ed8:	80 93 c0 05 	sts	0x05C0, r24	; 0x8005c0 <channel+0x4>
	}
	
	////////// Elevon Mixing ///////////////////////////////////////
	// 1. Substitute elevator value to aileron
	// 2. Add & subtract applied aileron input
	if (mixing_val_1 & ELEVON)
     edc:	20 91 db 05 	lds	r18, 0x05DB	; 0x8005db <mixing_val_1>
     ee0:	25 ff       	sbrs	r18, 5
     ee2:	2b c0       	rjmp	.+86     	; 0xf3a <make_val+0xa0>
	{
		ail_temp = channel[AILERON];
     ee4:	ec eb       	ldi	r30, 0xBC	; 188
     ee6:	f5 e0       	ldi	r31, 0x05	; 5
     ee8:	40 81       	ld	r20, Z
		// elevator value
		channel[AILERON] = channel[ELEVATOR];
     eea:	81 81       	ldd	r24, Z+1	; 0x01
		
		// aileron value #1
		channel_temp = channel[ELEVATOR] + (ail_temp -127);
     eec:	90 e0       	ldi	r25, 0x00	; 0
     eee:	50 e0       	ldi	r21, 0x00	; 0
     ef0:	4f 57       	subi	r20, 0x7F	; 127
     ef2:	51 09       	sbc	r21, r1
     ef4:	bc 01       	movw	r22, r24
     ef6:	64 0f       	add	r22, r20
     ef8:	75 1f       	adc	r23, r21
		// upper/lower limit
		if (channel_temp > 255)
     efa:	6f 3f       	cpi	r22, 0xFF	; 255
     efc:	71 05       	cpc	r23, r1
     efe:	29 f0       	breq	.+10     	; 0xf0a <make_val+0x70>
     f00:	24 f0       	brlt	.+8      	; 0xf0a <make_val+0x70>
			channel[ELEVATOR] = 255;
     f02:	3f ef       	ldi	r19, 0xFF	; 255
     f04:	30 93 bd 05 	sts	0x05BD, r19	; 0x8005bd <channel+0x1>
     f08:	07 c0       	rjmp	.+14     	; 0xf18 <make_val+0x7e>
		else if (channel_temp < 0)
     f0a:	77 23       	and	r23, r23
     f0c:	1c f4       	brge	.+6      	; 0xf14 <make_val+0x7a>
			channel[ELEVATOR] = 0;
     f0e:	10 92 bd 05 	sts	0x05BD, r1	; 0x8005bd <channel+0x1>
     f12:	02 c0       	rjmp	.+4      	; 0xf18 <make_val+0x7e>
		else
			channel[ELEVATOR] = channel_temp;
     f14:	60 93 bd 05 	sts	0x05BD, r22	; 0x8005bd <channel+0x1>
		
		// aileron value #2
		channel_temp = channel[AILERON] - (ail_temp -127);
     f18:	84 1b       	sub	r24, r20
     f1a:	95 0b       	sbc	r25, r21
		// upper & lower limit
		if (channel_temp > 255)
     f1c:	8f 3f       	cpi	r24, 0xFF	; 255
     f1e:	91 05       	cpc	r25, r1
     f20:	29 f0       	breq	.+10     	; 0xf2c <make_val+0x92>
     f22:	24 f0       	brlt	.+8      	; 0xf2c <make_val+0x92>
			channel[AILERON] = 255;
     f24:	8f ef       	ldi	r24, 0xFF	; 255
     f26:	80 93 bc 05 	sts	0x05BC, r24	; 0x8005bc <channel>
     f2a:	07 c0       	rjmp	.+14     	; 0xf3a <make_val+0xa0>
		else if (channel_temp < 0)
     f2c:	99 23       	and	r25, r25
     f2e:	1c f4       	brge	.+6      	; 0xf36 <make_val+0x9c>
			channel[AILERON] = 0;
     f30:	10 92 bc 05 	sts	0x05BC, r1	; 0x8005bc <channel>
     f34:	02 c0       	rjmp	.+4      	; 0xf3a <make_val+0xa0>
		else
			channel[AILERON] = channel_temp;
     f36:	80 93 bc 05 	sts	0x05BC, r24	; 0x8005bc <channel>
			
	} //if (mixing_val_1 & ELEVON)
	
	////////// Vtail Mixing ////////////////////////////////////////
	if (mixing_val_1 & VTAIL)
     f3a:	26 ff       	sbrs	r18, 6
     f3c:	2b c0       	rjmp	.+86     	; 0xf94 <make_val+0xfa>
	{
		rud_temp = channel[RUDDER];
     f3e:	ec eb       	ldi	r30, 0xBC	; 188
     f40:	f5 e0       	ldi	r31, 0x05	; 5
     f42:	43 81       	ldd	r20, Z+3	; 0x03
		// elevator value
		channel[RUDDER] = channel[ELEVATOR];
     f44:	81 81       	ldd	r24, Z+1	; 0x01
		
		// rudder value #1
		channel_temp = channel[ELEVATOR] + (rud_temp -127);
     f46:	90 e0       	ldi	r25, 0x00	; 0
     f48:	50 e0       	ldi	r21, 0x00	; 0
     f4a:	4f 57       	subi	r20, 0x7F	; 127
     f4c:	51 09       	sbc	r21, r1
     f4e:	bc 01       	movw	r22, r24
     f50:	64 0f       	add	r22, r20
     f52:	75 1f       	adc	r23, r21
		// upper/lower limit
		if (channel_temp > 255)
     f54:	6f 3f       	cpi	r22, 0xFF	; 255
     f56:	71 05       	cpc	r23, r1
     f58:	29 f0       	breq	.+10     	; 0xf64 <make_val+0xca>
     f5a:	24 f0       	brlt	.+8      	; 0xf64 <make_val+0xca>
			channel[ELEVATOR] = 255;
     f5c:	3f ef       	ldi	r19, 0xFF	; 255
     f5e:	30 93 bd 05 	sts	0x05BD, r19	; 0x8005bd <channel+0x1>
     f62:	07 c0       	rjmp	.+14     	; 0xf72 <make_val+0xd8>
		else if (channel_temp < 0)
     f64:	77 23       	and	r23, r23
     f66:	1c f4       	brge	.+6      	; 0xf6e <make_val+0xd4>
			channel[ELEVATOR] = 0;
     f68:	10 92 bd 05 	sts	0x05BD, r1	; 0x8005bd <channel+0x1>
     f6c:	02 c0       	rjmp	.+4      	; 0xf72 <make_val+0xd8>
		else
			channel[ELEVATOR] = channel_temp;
     f6e:	60 93 bd 05 	sts	0x05BD, r22	; 0x8005bd <channel+0x1>
		
		// rudder value #2
		channel_temp = channel[RUDDER] - (rud_temp -127);
     f72:	84 1b       	sub	r24, r20
     f74:	95 0b       	sbc	r25, r21
		// upper & lower limit
		if (channel_temp > 255)
     f76:	8f 3f       	cpi	r24, 0xFF	; 255
     f78:	91 05       	cpc	r25, r1
     f7a:	29 f0       	breq	.+10     	; 0xf86 <make_val+0xec>
     f7c:	24 f0       	brlt	.+8      	; 0xf86 <make_val+0xec>
			channel[RUDDER] = 255;
     f7e:	8f ef       	ldi	r24, 0xFF	; 255
     f80:	80 93 bf 05 	sts	0x05BF, r24	; 0x8005bf <channel+0x3>
     f84:	07 c0       	rjmp	.+14     	; 0xf94 <make_val+0xfa>
		else if (channel_temp < 0)
     f86:	99 23       	and	r25, r25
     f88:	1c f4       	brge	.+6      	; 0xf90 <make_val+0xf6>
			channel[RUDDER] = 0;
     f8a:	10 92 bf 05 	sts	0x05BF, r1	; 0x8005bf <channel+0x3>
     f8e:	02 c0       	rjmp	.+4      	; 0xf94 <make_val+0xfa>
		else
			channel[RUDDER] = channel_temp;
     f90:	80 93 bf 05 	sts	0x05BF, r24	; 0x8005bf <channel+0x3>
		
	} //if (mixing_val_1 & VTAIL)
	
	////////// Differential Thrust /////////////////////////////////
	if (mixing_val_1 & DIFF_THRUST)
     f94:	24 ff       	sbrs	r18, 4
     f96:	a0 c0       	rjmp	.+320    	; 0x10d8 <make_val+0x23e>
	{
		rud_temp = channel[RUDDER];
     f98:	ec eb       	ldi	r30, 0xBC	; 188
     f9a:	f5 e0       	ldi	r31, 0x05	; 5
     f9c:	43 81       	ldd	r20, Z+3	; 0x03
		// Throttle value
		channel[RUDDER] = channel[THROTTLE];
     f9e:	82 81       	ldd	r24, Z+2	; 0x02
		
		// rudder value #1
		channel_temp = channel[THROTTLE] + (rud_temp -127);
     fa0:	90 e0       	ldi	r25, 0x00	; 0
     fa2:	50 e0       	ldi	r21, 0x00	; 0
     fa4:	4f 57       	subi	r20, 0x7F	; 127
     fa6:	51 09       	sbc	r21, r1
     fa8:	bc 01       	movw	r22, r24
     faa:	64 0f       	add	r22, r20
     fac:	75 1f       	adc	r23, r21
		// upper/lower limit
		if (channel_temp > 255)
     fae:	6f 3f       	cpi	r22, 0xFF	; 255
     fb0:	71 05       	cpc	r23, r1
     fb2:	29 f0       	breq	.+10     	; 0xfbe <make_val+0x124>
     fb4:	24 f0       	brlt	.+8      	; 0xfbe <make_val+0x124>
			channel[THROTTLE] = 255;
     fb6:	3f ef       	ldi	r19, 0xFF	; 255
     fb8:	30 93 be 05 	sts	0x05BE, r19	; 0x8005be <channel+0x2>
     fbc:	07 c0       	rjmp	.+14     	; 0xfcc <make_val+0x132>
		else if (channel_temp < 0)
     fbe:	77 23       	and	r23, r23
     fc0:	1c f4       	brge	.+6      	; 0xfc8 <make_val+0x12e>
			channel[THROTTLE] = 0;
     fc2:	10 92 be 05 	sts	0x05BE, r1	; 0x8005be <channel+0x2>
     fc6:	02 c0       	rjmp	.+4      	; 0xfcc <make_val+0x132>
		else
			channel[THROTTLE] = channel_temp;
     fc8:	60 93 be 05 	sts	0x05BE, r22	; 0x8005be <channel+0x2>
		
		// rudder value #2
		channel_temp = channel[RUDDER] - (rud_temp -127);
     fcc:	84 1b       	sub	r24, r20
     fce:	95 0b       	sbc	r25, r21
		// upper & lower limit
		if (channel_temp > 255)
     fd0:	8f 3f       	cpi	r24, 0xFF	; 255
     fd2:	91 05       	cpc	r25, r1
     fd4:	29 f0       	breq	.+10     	; 0xfe0 <make_val+0x146>
     fd6:	24 f0       	brlt	.+8      	; 0xfe0 <make_val+0x146>
			channel[RUDDER] = 255;
     fd8:	8f ef       	ldi	r24, 0xFF	; 255
     fda:	80 93 bf 05 	sts	0x05BF, r24	; 0x8005bf <channel+0x3>
     fde:	7c c0       	rjmp	.+248    	; 0x10d8 <make_val+0x23e>
		else if (channel_temp < 0)
     fe0:	99 23       	and	r25, r25
     fe2:	1c f4       	brge	.+6      	; 0xfea <make_val+0x150>
			channel[RUDDER] = 0;
     fe4:	10 92 bf 05 	sts	0x05BF, r1	; 0x8005bf <channel+0x3>
     fe8:	77 c0       	rjmp	.+238    	; 0x10d8 <make_val+0x23e>
		else
			channel[RUDDER] = channel_temp;
     fea:	80 93 bf 05 	sts	0x05BF, r24	; 0x8005bf <channel+0x3>
     fee:	74 c0       	rjmp	.+232    	; 0x10d8 <make_val+0x23e>
     ff0:	ef 01       	movw	r28, r30
	////////// Trim Upper&Lower Limit //////////////////////////////
	// One click : 4
	for (uint8_t n = 0; n < 4; n++)
	{
		// Trim limit
		if (trim[n] > TRIM_LIM)
     ff2:	80 81       	ld	r24, Z
     ff4:	8a 30       	cpi	r24, 0x0A	; 10
     ff6:	14 f0       	brlt	.+4      	; 0xffc <make_val+0x162>
			trim[n] = TRIM_LIM;
     ff8:	10 83       	st	Z, r17
     ffa:	03 c0       	rjmp	.+6      	; 0x1002 <make_val+0x168>
		else if (trim[n] < -TRIM_LIM)
     ffc:	87 3f       	cpi	r24, 0xF7	; 247
     ffe:	0c f4       	brge	.+2      	; 0x1002 <make_val+0x168>
			trim[n] = -TRIM_LIM;
    1000:	f0 82       	st	Z, r15
    1002:	31 96       	adiw	r30, 0x01	; 1

		// Trim adjust & Upper, lower limit
		channel_temp = channel[n] + (trim[n]<<2);
    1004:	38 81       	ld	r19, Y
    1006:	8c 91       	ld	r24, X
    1008:	90 e0       	ldi	r25, 0x00	; 0
    100a:	c4 e0       	ldi	r28, 0x04	; 4
    100c:	3c 02       	muls	r19, r28
    100e:	80 0d       	add	r24, r0
    1010:	91 1d       	adc	r25, r1
    1012:	11 24       	eor	r1, r1
		
		if ((channel_temp >= 0) && (channel_temp <= 255))
    1014:	8f 3f       	cpi	r24, 0xFF	; 255
    1016:	91 05       	cpc	r25, r1
    1018:	09 f0       	breq	.+2      	; 0x101c <make_val+0x182>
    101a:	10 f4       	brcc	.+4      	; 0x1020 <make_val+0x186>
			channel[n] = channel_temp;
    101c:	8c 93       	st	X, r24
    101e:	09 c0       	rjmp	.+18     	; 0x1032 <make_val+0x198>
		else if (channel_temp > 255)
    1020:	8f 3f       	cpi	r24, 0xFF	; 255
    1022:	91 05       	cpc	r25, r1
    1024:	21 f0       	breq	.+8      	; 0x102e <make_val+0x194>
    1026:	1c f0       	brlt	.+6      	; 0x102e <make_val+0x194>
			channel[n] = 255;
    1028:	ed 01       	movw	r28, r26
    102a:	08 83       	st	Y, r16
    102c:	02 c0       	rjmp	.+4      	; 0x1032 <make_val+0x198>
		else
			channel[n] = 0;
    102e:	ed 01       	movw	r28, r26
    1030:	18 82       	st	Y, r1
    1032:	11 96       	adiw	r26, 0x01	; 1
		
	} // if (mixing_val_1 & DIFF_THRUST)
	
	////////// Trim Upper&Lower Limit //////////////////////////////
	// One click : 4
	for (uint8_t n = 0; n < 4; n++)
    1034:	e6 17       	cp	r30, r22
    1036:	f7 07       	cpc	r31, r23
    1038:	d9 f6       	brne	.-74     	; 0xff0 <make_val+0x156>
		
	} //for (uint8_t n = 0; n < 4; n++)
	
	////////// Dual Rate////////////////////////////////////////////
	// 50% original input
	if (mixing_val_2 & AIL_DR)
    103a:	80 91 cd 05 	lds	r24, 0x05CD	; 0x8005cd <mixing_val_2>
    103e:	80 ff       	sbrs	r24, 0
    1040:	0a c0       	rjmp	.+20     	; 0x1056 <make_val+0x1bc>
		channel[AILERON] = 127 + ((channel[AILERON] - 127)>>1);
    1042:	ec eb       	ldi	r30, 0xBC	; 188
    1044:	f5 e0       	ldi	r31, 0x05	; 5
    1046:	40 81       	ld	r20, Z
    1048:	50 e0       	ldi	r21, 0x00	; 0
    104a:	4f 57       	subi	r20, 0x7F	; 127
    104c:	51 09       	sbc	r21, r1
    104e:	55 95       	asr	r21
    1050:	47 95       	ror	r20
    1052:	41 58       	subi	r20, 0x81	; 129
    1054:	40 83       	st	Z, r20
	if (mixing_val_2 & ELE_DR)
    1056:	81 ff       	sbrs	r24, 1
    1058:	0a c0       	rjmp	.+20     	; 0x106e <make_val+0x1d4>
		channel[ELEVATOR] = 127 + ((channel[ELEVATOR] - 127)>>1);
    105a:	ec eb       	ldi	r30, 0xBC	; 188
    105c:	f5 e0       	ldi	r31, 0x05	; 5
    105e:	41 81       	ldd	r20, Z+1	; 0x01
    1060:	50 e0       	ldi	r21, 0x00	; 0
    1062:	4f 57       	subi	r20, 0x7F	; 127
    1064:	51 09       	sbc	r21, r1
    1066:	55 95       	asr	r21
    1068:	47 95       	ror	r20
    106a:	41 58       	subi	r20, 0x81	; 129
    106c:	41 83       	std	Z+1, r20	; 0x01
	if (mixing_val_2 & RUD_DR)
    106e:	83 ff       	sbrs	r24, 3
    1070:	0a c0       	rjmp	.+20     	; 0x1086 <make_val+0x1ec>
		channel[RUDDER] = 127 + ((channel[RUDDER] - 127)>>1);
    1072:	ec eb       	ldi	r30, 0xBC	; 188
    1074:	f5 e0       	ldi	r31, 0x05	; 5
    1076:	43 81       	ldd	r20, Z+3	; 0x03
    1078:	50 e0       	ldi	r21, 0x00	; 0
    107a:	4f 57       	subi	r20, 0x7F	; 127
    107c:	51 09       	sbc	r21, r1
    107e:	55 95       	asr	r21
    1080:	47 95       	ror	r20
    1082:	41 58       	subi	r20, 0x81	; 129
    1084:	43 83       	std	Z+3, r20	; 0x03
	if (mixing_val_2 & CH5_DR)
    1086:	84 ff       	sbrs	r24, 4
    1088:	0a c0       	rjmp	.+20     	; 0x109e <make_val+0x204>
		channel[CH5]    = 127 + ((channel[CH5] - 127)>>1);
    108a:	ec eb       	ldi	r30, 0xBC	; 188
    108c:	f5 e0       	ldi	r31, 0x05	; 5
    108e:	84 81       	ldd	r24, Z+4	; 0x04
    1090:	90 e0       	ldi	r25, 0x00	; 0
    1092:	8f 57       	subi	r24, 0x7F	; 127
    1094:	91 09       	sbc	r25, r1
    1096:	95 95       	asr	r25
    1098:	87 95       	ror	r24
    109a:	81 58       	subi	r24, 0x81	; 129
    109c:	84 83       	std	Z+4, r24	; 0x04
	
	////////// Reverse Mixing //////////////////////////////////////
	if (mixing_val_1 & REVERSE_RUD)
    109e:	22 ff       	sbrs	r18, 2
    10a0:	05 c0       	rjmp	.+10     	; 0x10ac <make_val+0x212>
		channel[RUDDER] = 255 - channel[RUDDER];
    10a2:	ec eb       	ldi	r30, 0xBC	; 188
    10a4:	f5 e0       	ldi	r31, 0x05	; 5
    10a6:	83 81       	ldd	r24, Z+3	; 0x03
    10a8:	80 95       	com	r24
    10aa:	83 83       	std	Z+3, r24	; 0x03
	if (mixing_val_1 & REVERSE_ELE)
    10ac:	21 ff       	sbrs	r18, 1
    10ae:	05 c0       	rjmp	.+10     	; 0x10ba <make_val+0x220>
		channel[ELEVATOR] = 255 - channel[ELEVATOR];
    10b0:	ec eb       	ldi	r30, 0xBC	; 188
    10b2:	f5 e0       	ldi	r31, 0x05	; 5
    10b4:	81 81       	ldd	r24, Z+1	; 0x01
    10b6:	80 95       	com	r24
    10b8:	81 83       	std	Z+1, r24	; 0x01
	if (mixing_val_1 & REVERSE_AIL)
    10ba:	20 ff       	sbrs	r18, 0
    10bc:	05 c0       	rjmp	.+10     	; 0x10c8 <make_val+0x22e>
		channel[AILERON] = 255 - channel[AILERON];
    10be:	ec eb       	ldi	r30, 0xBC	; 188
    10c0:	f5 e0       	ldi	r31, 0x05	; 5
    10c2:	80 81       	ld	r24, Z
    10c4:	80 95       	com	r24
    10c6:	80 83       	st	Z, r24
	if (mixing_val_1 & REVERSE_CH5)
    10c8:	23 ff       	sbrs	r18, 3
    10ca:	13 c0       	rjmp	.+38     	; 0x10f2 <make_val+0x258>
		channel[CH5] = 255 - channel[CH5];
    10cc:	ec eb       	ldi	r30, 0xBC	; 188
    10ce:	f5 e0       	ldi	r31, 0x05	; 5
    10d0:	84 81       	ldd	r24, Z+4	; 0x04
    10d2:	80 95       	com	r24
    10d4:	84 83       	std	Z+4, r24	; 0x04
		
}
    10d6:	0d c0       	rjmp	.+26     	; 0x10f2 <make_val+0x258>
    10d8:	ac eb       	ldi	r26, 0xBC	; 188
    10da:	b5 e0       	ldi	r27, 0x05	; 5
    10dc:	e7 eb       	ldi	r30, 0xB7	; 183
    10de:	f5 e0       	ldi	r31, 0x05	; 5
    10e0:	6b eb       	ldi	r22, 0xBB	; 187
    10e2:	75 e0       	ldi	r23, 0x05	; 5
	{
		// Trim limit
		if (trim[n] > TRIM_LIM)
			trim[n] = TRIM_LIM;
		else if (trim[n] < -TRIM_LIM)
			trim[n] = -TRIM_LIM;
    10e4:	0f 2e       	mov	r0, r31
    10e6:	f7 ef       	ldi	r31, 0xF7	; 247
    10e8:	ff 2e       	mov	r15, r31
    10ea:	f0 2d       	mov	r31, r0
	// One click : 4
	for (uint8_t n = 0; n < 4; n++)
	{
		// Trim limit
		if (trim[n] > TRIM_LIM)
			trim[n] = TRIM_LIM;
    10ec:	19 e0       	ldi	r17, 0x09	; 9
		channel_temp = channel[n] + (trim[n]<<2);
		
		if ((channel_temp >= 0) && (channel_temp <= 255))
			channel[n] = channel_temp;
		else if (channel_temp > 255)
			channel[n] = 255;
    10ee:	0f ef       	ldi	r16, 0xFF	; 255
    10f0:	7f cf       	rjmp	.-258    	; 0xff0 <make_val+0x156>
	if (mixing_val_1 & REVERSE_AIL)
		channel[AILERON] = 255 - channel[AILERON];
	if (mixing_val_1 & REVERSE_CH5)
		channel[CH5] = 255 - channel[CH5];
		
}
    10f2:	df 91       	pop	r29
    10f4:	cf 91       	pop	r28
    10f6:	1f 91       	pop	r17
    10f8:	0f 91       	pop	r16
    10fa:	ff 90       	pop	r15
    10fc:	08 95       	ret

000010fe <make_ppm>:
/*	JF24_RF		: Transmit data using JF24 module	*/
/*				 Compatible with other RC TX modules*/
/*													*/
/****************************************************/
void make_ppm()
{
    10fe:	ac eb       	ldi	r26, 0xBC	; 188
    1100:	b5 e0       	ldi	r27, 0x05	; 5
    1102:	21 ec       	ldi	r18, 0xC1	; 193
    1104:	35 e0       	ldi	r19, 0x05	; 5
	for (uint8_t n = 0; n < CHANNEL; n++)
	{
		PORTD &= ~MODULE;	// channel division low
    1106:	5b 98       	cbi	0x0b, 3	; 11
    1108:	8f e1       	ldi	r24, 0x1F	; 31
    110a:	93 e0       	ldi	r25, 0x03	; 3
    110c:	01 97       	sbiw	r24, 0x01	; 1
    110e:	f1 f7       	brne	.-4      	; 0x110c <make_ppm+0xe>
    1110:	00 c0       	rjmp	.+0      	; 0x1112 <make_ppm+0x14>
    1112:	00 00       	nop
		_delay_us(400);
		
		PORTD |= MODULE;	// start signal
    1114:	5b 9a       	sbi	0x0b, 3	; 11
    1116:	83 e7       	ldi	r24, 0x73	; 115
    1118:	94 e0       	ldi	r25, 0x04	; 4
    111a:	01 97       	sbiw	r24, 0x01	; 1
    111c:	f1 f7       	brne	.-4      	; 0x111a <make_ppm+0x1c>
    111e:	00 c0       	rjmp	.+0      	; 0x1120 <make_ppm+0x22>
    1120:	00 00       	nop
    1122:	fd 01       	movw	r30, r26
		_delay_us(570);		// min value
	
		if (channel[n] > 127)
    1124:	8c 91       	ld	r24, X
    1126:	88 23       	and	r24, r24
    1128:	4c f4       	brge	.+18     	; 0x113c <make_ppm+0x3e>
    112a:	83 e2       	ldi	r24, 0x23	; 35
    112c:	94 e0       	ldi	r25, 0x04	; 4
    112e:	01 97       	sbiw	r24, 0x01	; 1
    1130:	f1 f7       	brne	.-4      	; 0x112e <make_ppm+0x30>
    1132:	00 c0       	rjmp	.+0      	; 0x1134 <make_ppm+0x36>
    1134:	00 00       	nop
		{
			_delay_us(530);
			channel[n] -= 127;
    1136:	8c 91       	ld	r24, X
    1138:	8f 57       	subi	r24, 0x7F	; 127
    113a:	8c 93       	st	X, r24
		}
		if (channel[n] > 63)
    113c:	80 81       	ld	r24, Z
    113e:	80 34       	cpi	r24, 0x40	; 64
    1140:	48 f0       	brcs	.+18     	; 0x1154 <make_ppm+0x56>
    1142:	81 e1       	ldi	r24, 0x11	; 17
    1144:	92 e0       	ldi	r25, 0x02	; 2
    1146:	01 97       	sbiw	r24, 0x01	; 1
    1148:	f1 f7       	brne	.-4      	; 0x1146 <make_ppm+0x48>
    114a:	00 c0       	rjmp	.+0      	; 0x114c <make_ppm+0x4e>
    114c:	00 00       	nop
		{
			_delay_us(265);
			channel[n] -= 63;
    114e:	80 81       	ld	r24, Z
    1150:	8f 53       	subi	r24, 0x3F	; 63
    1152:	80 83       	st	Z, r24
		}
		if (channel[n] > 31)
    1154:	80 81       	ld	r24, Z
    1156:	80 32       	cpi	r24, 0x20	; 32
    1158:	48 f0       	brcs	.+18     	; 0x116c <make_ppm+0x6e>
    115a:	87 e0       	ldi	r24, 0x07	; 7
    115c:	91 e0       	ldi	r25, 0x01	; 1
    115e:	01 97       	sbiw	r24, 0x01	; 1
    1160:	f1 f7       	brne	.-4      	; 0x115e <make_ppm+0x60>
    1162:	00 c0       	rjmp	.+0      	; 0x1164 <make_ppm+0x66>
    1164:	00 00       	nop
		{
			_delay_us(132);
			channel[n] -= 31;
    1166:	80 81       	ld	r24, Z
    1168:	8f 51       	subi	r24, 0x1F	; 31
    116a:	80 83       	st	Z, r24
		}
		if (channel[n] > 15)
    116c:	80 81       	ld	r24, Z
    116e:	80 31       	cpi	r24, 0x10	; 16
    1170:	30 f0       	brcs	.+12     	; 0x117e <make_ppm+0x80>
    1172:	90 eb       	ldi	r25, 0xB0	; 176
    1174:	9a 95       	dec	r25
    1176:	f1 f7       	brne	.-4      	; 0x1174 <make_ppm+0x76>
		{
			_delay_us(66);
			channel[n] -= 15;
    1178:	80 81       	ld	r24, Z
    117a:	8f 50       	subi	r24, 0x0F	; 15
    117c:	80 83       	st	Z, r24
		}
		if (channel[n] > 7)
    117e:	80 81       	ld	r24, Z
    1180:	88 30       	cpi	r24, 0x08	; 8
    1182:	30 f0       	brcs	.+12     	; 0x1190 <make_ppm+0x92>
    1184:	88 e5       	ldi	r24, 0x58	; 88
    1186:	8a 95       	dec	r24
    1188:	f1 f7       	brne	.-4      	; 0x1186 <make_ppm+0x88>
		{
			_delay_us(33);
			channel[n] -= 7;
    118a:	80 81       	ld	r24, Z
    118c:	87 50       	subi	r24, 0x07	; 7
    118e:	80 83       	st	Z, r24
		}
		if (channel[n] > 3)
    1190:	80 81       	ld	r24, Z
    1192:	84 30       	cpi	r24, 0x04	; 4
    1194:	38 f0       	brcs	.+14     	; 0x11a4 <make_ppm+0xa6>
    1196:	9a e2       	ldi	r25, 0x2A	; 42
    1198:	9a 95       	dec	r25
    119a:	f1 f7       	brne	.-4      	; 0x1198 <make_ppm+0x9a>
    119c:	00 c0       	rjmp	.+0      	; 0x119e <make_ppm+0xa0>
		{
			_delay_us(16);
			channel[n] -= 3;
    119e:	80 81       	ld	r24, Z
    11a0:	83 50       	subi	r24, 0x03	; 3
    11a2:	80 83       	st	Z, r24
		}
		if (channel[n] > 1)
    11a4:	80 81       	ld	r24, Z
    11a6:	82 30       	cpi	r24, 0x02	; 2
    11a8:	38 f0       	brcs	.+14     	; 0x11b8 <make_ppm+0xba>
    11aa:	85 e1       	ldi	r24, 0x15	; 21
    11ac:	8a 95       	dec	r24
    11ae:	f1 f7       	brne	.-4      	; 0x11ac <make_ppm+0xae>
    11b0:	00 00       	nop
		{
			_delay_us(8);
			channel[n] -= 1;
    11b2:	80 81       	ld	r24, Z
    11b4:	81 50       	subi	r24, 0x01	; 1
    11b6:	80 83       	st	Z, r24
    11b8:	11 96       	adiw	r26, 0x01	; 1
		}
		if (channel[n] == 1)
    11ba:	80 81       	ld	r24, Z
    11bc:	81 30       	cpi	r24, 0x01	; 1
    11be:	21 f4       	brne	.+8      	; 0x11c8 <make_ppm+0xca>
    11c0:	9a e0       	ldi	r25, 0x0A	; 10
    11c2:	9a 95       	dec	r25
    11c4:	f1 f7       	brne	.-4      	; 0x11c2 <make_ppm+0xc4>
    11c6:	00 c0       	rjmp	.+0      	; 0x11c8 <make_ppm+0xca>
/*				 Compatible with other RC TX modules*/
/*													*/
/****************************************************/
void make_ppm()
{
	for (uint8_t n = 0; n < CHANNEL; n++)
    11c8:	a2 17       	cp	r26, r18
    11ca:	b3 07       	cpc	r27, r19
    11cc:	09 f0       	breq	.+2      	; 0x11d0 <make_ppm+0xd2>
    11ce:	9b cf       	rjmp	.-202    	; 0x1106 <make_ppm+0x8>
			_delay_us(4);
		}
		
	}
	
	PORTD &= ~MODULE;	// channel division low	
    11d0:	5b 98       	cbi	0x0b, 3	; 11
    11d2:	08 95       	ret

000011d4 <JF24_RF>:
	
}
void JF24_RF()
{
	// Making 24ms
	while (timer_24ms < 3);
    11d4:	80 91 cb 05 	lds	r24, 0x05CB	; 0x8005cb <timer_24ms>
    11d8:	83 30       	cpi	r24, 0x03	; 3
    11da:	e0 f3       	brcs	.-8      	; 0x11d4 <JF24_RF>
	timer_24ms = 0;
    11dc:	10 92 cb 05 	sts	0x05CB, r1	; 0x8005cb <timer_24ms>
	
	// Transmitting PPM signal
	make_ppm();
    11e0:	0e 94 7f 08 	call	0x10fe	; 0x10fe <make_ppm>
    11e4:	08 95       	ret

000011e6 <buzzer>:
/*	* buzzer_freq											*/
/*	- input range: 0~65,535 - (input value) Hz pitch		*/
/*															*/
/************************************************************/
void buzzer(uint16_t freq)
{
    11e6:	cf 93       	push	r28
    11e8:	df 93       	push	r29
    11ea:	ec 01       	movw	r28, r24
	// Frequency
	ICR1 = 500000 / freq;
    11ec:	9c 01       	movw	r18, r24
    11ee:	40 e0       	ldi	r20, 0x00	; 0
    11f0:	50 e0       	ldi	r21, 0x00	; 0
    11f2:	60 e2       	ldi	r22, 0x20	; 32
    11f4:	71 ea       	ldi	r23, 0xA1	; 161
    11f6:	87 e0       	ldi	r24, 0x07	; 7
    11f8:	90 e0       	ldi	r25, 0x00	; 0
    11fa:	0e 94 d9 27 	call	0x4fb2	; 0x4fb2 <__divmodsi4>
    11fe:	30 93 87 00 	sts	0x0087, r19	; 0x800087 <__DATA_REGION_ORIGIN__+0x27>
    1202:	20 93 86 00 	sts	0x0086, r18	; 0x800086 <__DATA_REGION_ORIGIN__+0x26>
	
	// Volume - On/Off
	if (buzzer_volume)
    1206:	80 91 da 05 	lds	r24, 0x05DA	; 0x8005da <buzzer_volume>
    120a:	88 23       	and	r24, r24
    120c:	89 f0       	breq	.+34     	; 0x1230 <buzzer+0x4a>
	{
		if (freq)
    120e:	cd 2b       	or	r28, r29
    1210:	59 f0       	breq	.+22     	; 0x1228 <buzzer+0x42>
			OCR1A = (ICR1 >> 1);	// Duty: 50%
    1212:	80 91 86 00 	lds	r24, 0x0086	; 0x800086 <__DATA_REGION_ORIGIN__+0x26>
    1216:	90 91 87 00 	lds	r25, 0x0087	; 0x800087 <__DATA_REGION_ORIGIN__+0x27>
    121a:	96 95       	lsr	r25
    121c:	87 95       	ror	r24
    121e:	90 93 89 00 	sts	0x0089, r25	; 0x800089 <__DATA_REGION_ORIGIN__+0x29>
    1222:	80 93 88 00 	sts	0x0088, r24	; 0x800088 <__DATA_REGION_ORIGIN__+0x28>
    1226:	04 c0       	rjmp	.+8      	; 0x1230 <buzzer+0x4a>
		else
			OCR1A = 0;
    1228:	10 92 89 00 	sts	0x0089, r1	; 0x800089 <__DATA_REGION_ORIGIN__+0x29>
    122c:	10 92 88 00 	sts	0x0088, r1	; 0x800088 <__DATA_REGION_ORIGIN__+0x28>
	}
	
	
}
    1230:	df 91       	pop	r29
    1232:	cf 91       	pop	r28
    1234:	08 95       	ret

00001236 <buzzer_switch>:
void buzzer_switch()
{	
	// Start ringing routine if SET bit (buzzer_setting[SETTING]) is 1
	if (buzzer_setting[SETTING] & BUZZER_SET)
    1236:	80 91 ac 05 	lds	r24, 0x05AC	; 0x8005ac <buzzer_setting+0x1>
    123a:	83 ff       	sbrs	r24, 3
    123c:	37 c0       	rjmp	.+110    	; 0x12ac <buzzer_switch+0x76>
	{
		// Initialize buzzer timer
		if (buzzer_setting[SETTING] & INIT)
    123e:	84 ff       	sbrs	r24, 4
    1240:	06 c0       	rjmp	.+12     	; 0x124e <buzzer_switch+0x18>
		{
			buzzer_setting[SETTING] &= ~INIT;
    1242:	8f 7e       	andi	r24, 0xEF	; 239
    1244:	80 93 ac 05 	sts	0x05AC, r24	; 0x8005ac <buzzer_setting+0x1>
			timer_8ms_buzzer = 0;
    1248:	10 92 c9 05 	sts	0x05C9, r1	; 0x8005c9 <timer_8ms_buzzer>
    124c:	08 95       	ret
		}
		// Buzzer On-Off
		else if (timer_8ms_buzzer < buzzer_setting[PERIOD])
    124e:	20 91 ab 05 	lds	r18, 0x05AB	; 0x8005ab <buzzer_setting>
    1252:	90 91 c9 05 	lds	r25, 0x05C9	; 0x8005c9 <timer_8ms_buzzer>
    1256:	92 17       	cp	r25, r18
    1258:	38 f4       	brcc	.+14     	; 0x1268 <buzzer_switch+0x32>
		{
			buzzer(buzzer_freq);
    125a:	80 91 e5 05 	lds	r24, 0x05E5	; 0x8005e5 <buzzer_freq>
    125e:	90 91 e6 05 	lds	r25, 0x05E6	; 0x8005e6 <buzzer_freq+0x1>
    1262:	0e 94 f3 08 	call	0x11e6	; 0x11e6 <buzzer>
    1266:	08 95       	ret
		}
		else if (timer_8ms_buzzer < (buzzer_setting[PERIOD]<<1))
    1268:	40 91 c9 05 	lds	r20, 0x05C9	; 0x8005c9 <timer_8ms_buzzer>
    126c:	30 e0       	ldi	r19, 0x00	; 0
    126e:	22 0f       	add	r18, r18
    1270:	33 1f       	adc	r19, r19
    1272:	50 e0       	ldi	r21, 0x00	; 0
    1274:	42 17       	cp	r20, r18
    1276:	53 07       	cpc	r21, r19
    1278:	2c f4       	brge	.+10     	; 0x1284 <buzzer_switch+0x4e>
		{
			buzzer(0);
    127a:	80 e0       	ldi	r24, 0x00	; 0
    127c:	90 e0       	ldi	r25, 0x00	; 0
    127e:	0e 94 f3 08 	call	0x11e6	; 0x11e6 <buzzer>
    1282:	08 95       	ret
		}
		// Repetition
		else if (timer_8ms_buzzer > (buzzer_setting[PERIOD]<<1))
    1284:	40 91 c9 05 	lds	r20, 0x05C9	; 0x8005c9 <timer_8ms_buzzer>
    1288:	50 e0       	ldi	r21, 0x00	; 0
    128a:	24 17       	cp	r18, r20
    128c:	35 07       	cpc	r19, r21
    128e:	94 f4       	brge	.+36     	; 0x12b4 <buzzer_switch+0x7e>
		{
			if (buzzer_setting[SETTING] & 0x07)
    1290:	98 2f       	mov	r25, r24
    1292:	97 70       	andi	r25, 0x07	; 7
    1294:	31 f0       	breq	.+12     	; 0x12a2 <buzzer_switch+0x6c>
			{
				// repeat the cycle 'repeat' times
				// ex) if repeat==0: ring 1 time
				//        repeat==1: ring 2 times
				timer_8ms_buzzer = 0;
    1296:	10 92 c9 05 	sts	0x05C9, r1	; 0x8005c9 <timer_8ms_buzzer>
				buzzer_setting[SETTING]--;
    129a:	81 50       	subi	r24, 0x01	; 1
    129c:	80 93 ac 05 	sts	0x05AC, r24	; 0x8005ac <buzzer_setting+0x1>
    12a0:	08 95       	ret
			}
			else
			{
				// finish the cycle
				buzzer_setting[SETTING] |= INIT;
				buzzer_setting[SETTING] &= ~BUZZER_SET;
    12a2:	87 7f       	andi	r24, 0xF7	; 247
    12a4:	80 61       	ori	r24, 0x10	; 16
    12a6:	80 93 ac 05 	sts	0x05AC, r24	; 0x8005ac <buzzer_setting+0x1>
    12aa:	08 95       	ret
			}
		} //else if (timer_8ms_buzzer > (buzzer_setting[PERIOD]<<1))
	} //if (buzzer_setting[SETTING] & BUZZER_SET)
	else
	{
		buzzer(0);
    12ac:	80 e0       	ldi	r24, 0x00	; 0
    12ae:	90 e0       	ldi	r25, 0x00	; 0
    12b0:	0e 94 f3 08 	call	0x11e6	; 0x11e6 <buzzer>
    12b4:	08 95       	ret

000012b6 <LCD_guage>:
/*													*/
/*													*/
/****************************************************/
void LCD_guage(uint8_t val, uint8_t position)
{
	if (position < 2)
    12b6:	62 30       	cpi	r22, 0x02	; 2
    12b8:	08 f0       	brcs	.+2      	; 0x12bc <LCD_guage+0x6>
    12ba:	66 c1       	rjmp	.+716    	; 0x1588 <LCD_guage+0x2d2>
	{
		// 1st digit
		if (val < 17)
    12bc:	81 31       	cpi	r24, 0x11	; 17
    12be:	60 f4       	brcc	.+24     	; 0x12d8 <LCD_guage+0x22>
			lcd1[8*position + 1] = 0xFF;
    12c0:	e0 91 42 01 	lds	r30, 0x0142	; 0x800142 <lcd1>
    12c4:	f0 91 43 01 	lds	r31, 0x0143	; 0x800143 <lcd1+0x1>
    12c8:	98 e0       	ldi	r25, 0x08	; 8
    12ca:	69 9f       	mul	r22, r25
    12cc:	e0 0d       	add	r30, r0
    12ce:	f1 1d       	adc	r31, r1
    12d0:	11 24       	eor	r1, r1
    12d2:	9f ef       	ldi	r25, 0xFF	; 255
    12d4:	91 83       	std	Z+1, r25	; 0x01
    12d6:	27 c0       	rjmp	.+78     	; 0x1326 <LCD_guage+0x70>
		else if (val < 30)
    12d8:	8e 31       	cpi	r24, 0x1E	; 30
    12da:	60 f4       	brcc	.+24     	; 0x12f4 <LCD_guage+0x3e>
			lcd1[8*position + 1] = 4;
    12dc:	e0 91 42 01 	lds	r30, 0x0142	; 0x800142 <lcd1>
    12e0:	f0 91 43 01 	lds	r31, 0x0143	; 0x800143 <lcd1+0x1>
    12e4:	98 e0       	ldi	r25, 0x08	; 8
    12e6:	69 9f       	mul	r22, r25
    12e8:	e0 0d       	add	r30, r0
    12ea:	f1 1d       	adc	r31, r1
    12ec:	11 24       	eor	r1, r1
    12ee:	94 e0       	ldi	r25, 0x04	; 4
    12f0:	91 83       	std	Z+1, r25	; 0x01
    12f2:	19 c0       	rjmp	.+50     	; 0x1326 <LCD_guage+0x70>
		else if (val < 43)
    12f4:	8b 32       	cpi	r24, 0x2B	; 43
    12f6:	60 f4       	brcc	.+24     	; 0x1310 <LCD_guage+0x5a>
			lcd1[8*position + 1] = 6;
    12f8:	e0 91 42 01 	lds	r30, 0x0142	; 0x800142 <lcd1>
    12fc:	f0 91 43 01 	lds	r31, 0x0143	; 0x800143 <lcd1+0x1>
    1300:	98 e0       	ldi	r25, 0x08	; 8
    1302:	69 9f       	mul	r22, r25
    1304:	e0 0d       	add	r30, r0
    1306:	f1 1d       	adc	r31, r1
    1308:	11 24       	eor	r1, r1
    130a:	96 e0       	ldi	r25, 0x06	; 6
    130c:	91 83       	std	Z+1, r25	; 0x01
    130e:	0b c0       	rjmp	.+22     	; 0x1326 <LCD_guage+0x70>
		else if (val >= 43)
			lcd1[8*position + 1] = ' ';
    1310:	e0 91 42 01 	lds	r30, 0x0142	; 0x800142 <lcd1>
    1314:	f0 91 43 01 	lds	r31, 0x0143	; 0x800143 <lcd1+0x1>
    1318:	98 e0       	ldi	r25, 0x08	; 8
    131a:	69 9f       	mul	r22, r25
    131c:	e0 0d       	add	r30, r0
    131e:	f1 1d       	adc	r31, r1
    1320:	11 24       	eor	r1, r1
    1322:	90 e2       	ldi	r25, 0x20	; 32
    1324:	91 83       	std	Z+1, r25	; 0x01

		// 2nd digit
		if (val < 56)
    1326:	88 33       	cpi	r24, 0x38	; 56
    1328:	60 f4       	brcc	.+24     	; 0x1342 <LCD_guage+0x8c>
			lcd1[8*position + 2] = 0xFF;
    132a:	e0 91 42 01 	lds	r30, 0x0142	; 0x800142 <lcd1>
    132e:	f0 91 43 01 	lds	r31, 0x0143	; 0x800143 <lcd1+0x1>
    1332:	98 e0       	ldi	r25, 0x08	; 8
    1334:	69 9f       	mul	r22, r25
    1336:	e0 0d       	add	r30, r0
    1338:	f1 1d       	adc	r31, r1
    133a:	11 24       	eor	r1, r1
    133c:	9f ef       	ldi	r25, 0xFF	; 255
    133e:	92 83       	std	Z+2, r25	; 0x02
    1340:	28 c0       	rjmp	.+80     	; 0x1392 <LCD_guage+0xdc>
		else if (val < 69)
    1342:	85 34       	cpi	r24, 0x45	; 69
    1344:	60 f4       	brcc	.+24     	; 0x135e <LCD_guage+0xa8>
			lcd1[8*position + 2] = 5;
    1346:	e0 91 42 01 	lds	r30, 0x0142	; 0x800142 <lcd1>
    134a:	f0 91 43 01 	lds	r31, 0x0143	; 0x800143 <lcd1+0x1>
    134e:	98 e0       	ldi	r25, 0x08	; 8
    1350:	69 9f       	mul	r22, r25
    1352:	e0 0d       	add	r30, r0
    1354:	f1 1d       	adc	r31, r1
    1356:	11 24       	eor	r1, r1
    1358:	95 e0       	ldi	r25, 0x05	; 5
    135a:	92 83       	std	Z+2, r25	; 0x02
    135c:	1a c0       	rjmp	.+52     	; 0x1392 <LCD_guage+0xdc>
		else if (val < 82)
    135e:	82 35       	cpi	r24, 0x52	; 82
    1360:	60 f4       	brcc	.+24     	; 0x137a <LCD_guage+0xc4>
			lcd1[8*position + 2] = 7;
    1362:	e0 91 42 01 	lds	r30, 0x0142	; 0x800142 <lcd1>
    1366:	f0 91 43 01 	lds	r31, 0x0143	; 0x800143 <lcd1+0x1>
    136a:	98 e0       	ldi	r25, 0x08	; 8
    136c:	69 9f       	mul	r22, r25
    136e:	e0 0d       	add	r30, r0
    1370:	f1 1d       	adc	r31, r1
    1372:	11 24       	eor	r1, r1
    1374:	97 e0       	ldi	r25, 0x07	; 7
    1376:	92 83       	std	Z+2, r25	; 0x02
    1378:	0e c0       	rjmp	.+28     	; 0x1396 <LCD_guage+0xe0>
		else if (val >= 82)
			lcd1[8*position + 2] = ' ';
    137a:	e0 91 42 01 	lds	r30, 0x0142	; 0x800142 <lcd1>
    137e:	f0 91 43 01 	lds	r31, 0x0143	; 0x800143 <lcd1+0x1>
    1382:	98 e0       	ldi	r25, 0x08	; 8
    1384:	69 9f       	mul	r22, r25
    1386:	e0 0d       	add	r30, r0
    1388:	f1 1d       	adc	r31, r1
    138a:	11 24       	eor	r1, r1
    138c:	90 e2       	ldi	r25, 0x20	; 32
    138e:	92 83       	std	Z+2, r25	; 0x02
    1390:	0e c0       	rjmp	.+28     	; 0x13ae <LCD_guage+0xf8>

		// 3rd digit
		if (val < 82)
    1392:	82 35       	cpi	r24, 0x52	; 82
    1394:	60 f4       	brcc	.+24     	; 0x13ae <LCD_guage+0xf8>
			lcd1[8*position + 3] = 0xFF;
    1396:	e0 91 42 01 	lds	r30, 0x0142	; 0x800142 <lcd1>
    139a:	f0 91 43 01 	lds	r31, 0x0143	; 0x800143 <lcd1+0x1>
    139e:	98 e0       	ldi	r25, 0x08	; 8
    13a0:	69 9f       	mul	r22, r25
    13a2:	e0 0d       	add	r30, r0
    13a4:	f1 1d       	adc	r31, r1
    13a6:	11 24       	eor	r1, r1
    13a8:	9f ef       	ldi	r25, 0xFF	; 255
    13aa:	93 83       	std	Z+3, r25	; 0x03
    13ac:	27 c0       	rjmp	.+78     	; 0x13fc <LCD_guage+0x146>
		else if (val < 95)
    13ae:	8f 35       	cpi	r24, 0x5F	; 95
    13b0:	60 f4       	brcc	.+24     	; 0x13ca <LCD_guage+0x114>
			lcd1[8*position + 3] = 4;
    13b2:	e0 91 42 01 	lds	r30, 0x0142	; 0x800142 <lcd1>
    13b6:	f0 91 43 01 	lds	r31, 0x0143	; 0x800143 <lcd1+0x1>
    13ba:	98 e0       	ldi	r25, 0x08	; 8
    13bc:	69 9f       	mul	r22, r25
    13be:	e0 0d       	add	r30, r0
    13c0:	f1 1d       	adc	r31, r1
    13c2:	11 24       	eor	r1, r1
    13c4:	94 e0       	ldi	r25, 0x04	; 4
    13c6:	93 83       	std	Z+3, r25	; 0x03
    13c8:	19 c0       	rjmp	.+50     	; 0x13fc <LCD_guage+0x146>
		else if (val < 108)
    13ca:	8c 36       	cpi	r24, 0x6C	; 108
    13cc:	60 f4       	brcc	.+24     	; 0x13e6 <LCD_guage+0x130>
			lcd1[8*position + 3] = 6;
    13ce:	e0 91 42 01 	lds	r30, 0x0142	; 0x800142 <lcd1>
    13d2:	f0 91 43 01 	lds	r31, 0x0143	; 0x800143 <lcd1+0x1>
    13d6:	98 e0       	ldi	r25, 0x08	; 8
    13d8:	69 9f       	mul	r22, r25
    13da:	e0 0d       	add	r30, r0
    13dc:	f1 1d       	adc	r31, r1
    13de:	11 24       	eor	r1, r1
    13e0:	96 e0       	ldi	r25, 0x06	; 6
    13e2:	93 83       	std	Z+3, r25	; 0x03
    13e4:	0b c0       	rjmp	.+22     	; 0x13fc <LCD_guage+0x146>
		else if (val >= 108)
			lcd1[8*position + 3] = ' ';
    13e6:	e0 91 42 01 	lds	r30, 0x0142	; 0x800142 <lcd1>
    13ea:	f0 91 43 01 	lds	r31, 0x0143	; 0x800143 <lcd1+0x1>
    13ee:	98 e0       	ldi	r25, 0x08	; 8
    13f0:	69 9f       	mul	r22, r25
    13f2:	e0 0d       	add	r30, r0
    13f4:	f1 1d       	adc	r31, r1
    13f6:	11 24       	eor	r1, r1
    13f8:	90 e2       	ldi	r25, 0x20	; 32
    13fa:	93 83       	std	Z+3, r25	; 0x03

		// 4th digit
		if (val < 121)
    13fc:	89 37       	cpi	r24, 0x79	; 121
    13fe:	60 f4       	brcc	.+24     	; 0x1418 <LCD_guage+0x162>
			lcd1[8*position + 4] = 2;
    1400:	e0 91 42 01 	lds	r30, 0x0142	; 0x800142 <lcd1>
    1404:	f0 91 43 01 	lds	r31, 0x0143	; 0x800143 <lcd1+0x1>
    1408:	98 e0       	ldi	r25, 0x08	; 8
    140a:	69 9f       	mul	r22, r25
    140c:	e0 0d       	add	r30, r0
    140e:	f1 1d       	adc	r31, r1
    1410:	11 24       	eor	r1, r1
    1412:	92 e0       	ldi	r25, 0x02	; 2
    1414:	94 83       	std	Z+4, r25	; 0x04
    1416:	19 c0       	rjmp	.+50     	; 0x144a <LCD_guage+0x194>
		else if (val < 134)
    1418:	86 38       	cpi	r24, 0x86	; 134
    141a:	60 f4       	brcc	.+24     	; 0x1434 <LCD_guage+0x17e>
			lcd1[8*position + 4] = '|';
    141c:	e0 91 42 01 	lds	r30, 0x0142	; 0x800142 <lcd1>
    1420:	f0 91 43 01 	lds	r31, 0x0143	; 0x800143 <lcd1+0x1>
    1424:	98 e0       	ldi	r25, 0x08	; 8
    1426:	69 9f       	mul	r22, r25
    1428:	e0 0d       	add	r30, r0
    142a:	f1 1d       	adc	r31, r1
    142c:	11 24       	eor	r1, r1
    142e:	9c e7       	ldi	r25, 0x7C	; 124
    1430:	94 83       	std	Z+4, r25	; 0x04
    1432:	0b c0       	rjmp	.+22     	; 0x144a <LCD_guage+0x194>
		else if (val >= 134)
			lcd1[8*position + 4] = 5;
    1434:	e0 91 42 01 	lds	r30, 0x0142	; 0x800142 <lcd1>
    1438:	f0 91 43 01 	lds	r31, 0x0143	; 0x800143 <lcd1+0x1>
    143c:	98 e0       	ldi	r25, 0x08	; 8
    143e:	69 9f       	mul	r22, r25
    1440:	e0 0d       	add	r30, r0
    1442:	f1 1d       	adc	r31, r1
    1444:	11 24       	eor	r1, r1
    1446:	95 e0       	ldi	r25, 0x05	; 5
    1448:	94 83       	std	Z+4, r25	; 0x04

		// 5th digit
		if (val >= 173)
    144a:	8d 3a       	cpi	r24, 0xAD	; 173
    144c:	60 f0       	brcs	.+24     	; 0x1466 <LCD_guage+0x1b0>
			lcd1[8*position + 5] = 0xFF;
    144e:	e0 91 42 01 	lds	r30, 0x0142	; 0x800142 <lcd1>
    1452:	f0 91 43 01 	lds	r31, 0x0143	; 0x800143 <lcd1+0x1>
    1456:	98 e0       	ldi	r25, 0x08	; 8
    1458:	69 9f       	mul	r22, r25
    145a:	e0 0d       	add	r30, r0
    145c:	f1 1d       	adc	r31, r1
    145e:	11 24       	eor	r1, r1
    1460:	9f ef       	ldi	r25, 0xFF	; 255
    1462:	95 83       	std	Z+5, r25	; 0x05
    1464:	27 c0       	rjmp	.+78     	; 0x14b4 <LCD_guage+0x1fe>
		else if (val >= 160)
    1466:	80 3a       	cpi	r24, 0xA0	; 160
    1468:	60 f0       	brcs	.+24     	; 0x1482 <LCD_guage+0x1cc>
			lcd1[8*position + 5] = 3;
    146a:	e0 91 42 01 	lds	r30, 0x0142	; 0x800142 <lcd1>
    146e:	f0 91 43 01 	lds	r31, 0x0143	; 0x800143 <lcd1+0x1>
    1472:	98 e0       	ldi	r25, 0x08	; 8
    1474:	69 9f       	mul	r22, r25
    1476:	e0 0d       	add	r30, r0
    1478:	f1 1d       	adc	r31, r1
    147a:	11 24       	eor	r1, r1
    147c:	93 e0       	ldi	r25, 0x03	; 3
    147e:	95 83       	std	Z+5, r25	; 0x05
    1480:	19 c0       	rjmp	.+50     	; 0x14b4 <LCD_guage+0x1fe>
		else if (val >= 147)
    1482:	83 39       	cpi	r24, 0x93	; 147
    1484:	60 f0       	brcs	.+24     	; 0x149e <LCD_guage+0x1e8>
			lcd1[8*position + 5] = 1;
    1486:	e0 91 42 01 	lds	r30, 0x0142	; 0x800142 <lcd1>
    148a:	f0 91 43 01 	lds	r31, 0x0143	; 0x800143 <lcd1+0x1>
    148e:	98 e0       	ldi	r25, 0x08	; 8
    1490:	69 9f       	mul	r22, r25
    1492:	e0 0d       	add	r30, r0
    1494:	f1 1d       	adc	r31, r1
    1496:	11 24       	eor	r1, r1
    1498:	91 e0       	ldi	r25, 0x01	; 1
    149a:	95 83       	std	Z+5, r25	; 0x05
    149c:	0b c0       	rjmp	.+22     	; 0x14b4 <LCD_guage+0x1fe>
		else if (val < 147)
			lcd1[8*position + 5] = ' ';
    149e:	e0 91 42 01 	lds	r30, 0x0142	; 0x800142 <lcd1>
    14a2:	f0 91 43 01 	lds	r31, 0x0143	; 0x800143 <lcd1+0x1>
    14a6:	98 e0       	ldi	r25, 0x08	; 8
    14a8:	69 9f       	mul	r22, r25
    14aa:	e0 0d       	add	r30, r0
    14ac:	f1 1d       	adc	r31, r1
    14ae:	11 24       	eor	r1, r1
    14b0:	90 e2       	ldi	r25, 0x20	; 32
    14b2:	95 83       	std	Z+5, r25	; 0x05

		// 6th digit
		if (val >= 199)
    14b4:	87 3c       	cpi	r24, 0xC7	; 199
    14b6:	60 f0       	brcs	.+24     	; 0x14d0 <LCD_guage+0x21a>
			lcd1[8*position + 6] = 0xFF;
    14b8:	e0 91 42 01 	lds	r30, 0x0142	; 0x800142 <lcd1>
    14bc:	f0 91 43 01 	lds	r31, 0x0143	; 0x800143 <lcd1+0x1>
    14c0:	98 e0       	ldi	r25, 0x08	; 8
    14c2:	69 9f       	mul	r22, r25
    14c4:	e0 0d       	add	r30, r0
    14c6:	f1 1d       	adc	r31, r1
    14c8:	11 24       	eor	r1, r1
    14ca:	9f ef       	ldi	r25, 0xFF	; 255
    14cc:	96 83       	std	Z+6, r25	; 0x06
    14ce:	26 c0       	rjmp	.+76     	; 0x151c <LCD_guage+0x266>
		else if (val >= 186)
    14d0:	8a 3b       	cpi	r24, 0xBA	; 186
    14d2:	60 f0       	brcs	.+24     	; 0x14ec <LCD_guage+0x236>
			lcd1[8*position + 6] = 2;
    14d4:	e0 91 42 01 	lds	r30, 0x0142	; 0x800142 <lcd1>
    14d8:	f0 91 43 01 	lds	r31, 0x0143	; 0x800143 <lcd1+0x1>
    14dc:	98 e0       	ldi	r25, 0x08	; 8
    14de:	69 9f       	mul	r22, r25
    14e0:	e0 0d       	add	r30, r0
    14e2:	f1 1d       	adc	r31, r1
    14e4:	11 24       	eor	r1, r1
    14e6:	92 e0       	ldi	r25, 0x02	; 2
    14e8:	96 83       	std	Z+6, r25	; 0x06
    14ea:	18 c0       	rjmp	.+48     	; 0x151c <LCD_guage+0x266>
		else if (val >= 173)
    14ec:	8d 3a       	cpi	r24, 0xAD	; 173
    14ee:	58 f0       	brcs	.+22     	; 0x1506 <LCD_guage+0x250>
			lcd1[8*position + 6] = 0;
    14f0:	e0 91 42 01 	lds	r30, 0x0142	; 0x800142 <lcd1>
    14f4:	f0 91 43 01 	lds	r31, 0x0143	; 0x800143 <lcd1+0x1>
    14f8:	98 e0       	ldi	r25, 0x08	; 8
    14fa:	69 9f       	mul	r22, r25
    14fc:	e0 0d       	add	r30, r0
    14fe:	f1 1d       	adc	r31, r1
    1500:	11 24       	eor	r1, r1
    1502:	16 82       	std	Z+6, r1	; 0x06
    1504:	0b c0       	rjmp	.+22     	; 0x151c <LCD_guage+0x266>
		else if (val < 173)
			lcd1[8*position + 6] = ' ';
    1506:	e0 91 42 01 	lds	r30, 0x0142	; 0x800142 <lcd1>
    150a:	f0 91 43 01 	lds	r31, 0x0143	; 0x800143 <lcd1+0x1>
    150e:	98 e0       	ldi	r25, 0x08	; 8
    1510:	69 9f       	mul	r22, r25
    1512:	e0 0d       	add	r30, r0
    1514:	f1 1d       	adc	r31, r1
    1516:	11 24       	eor	r1, r1
    1518:	90 e2       	ldi	r25, 0x20	; 32
    151a:	96 83       	std	Z+6, r25	; 0x06

		// 7th digit
		if (val >= 238)
    151c:	8e 3e       	cpi	r24, 0xEE	; 238
    151e:	60 f0       	brcs	.+24     	; 0x1538 <LCD_guage+0x282>
			lcd1[8*position + 7] = 0xFF;
    1520:	e0 91 42 01 	lds	r30, 0x0142	; 0x800142 <lcd1>
    1524:	f0 91 43 01 	lds	r31, 0x0143	; 0x800143 <lcd1+0x1>
    1528:	88 e0       	ldi	r24, 0x08	; 8
    152a:	68 9f       	mul	r22, r24
    152c:	e0 0d       	add	r30, r0
    152e:	f1 1d       	adc	r31, r1
    1530:	11 24       	eor	r1, r1
    1532:	8f ef       	ldi	r24, 0xFF	; 255
    1534:	87 83       	std	Z+7, r24	; 0x07
    1536:	08 95       	ret
		else if (val >= 225)
    1538:	81 3e       	cpi	r24, 0xE1	; 225
    153a:	60 f0       	brcs	.+24     	; 0x1554 <LCD_guage+0x29e>
			lcd1[8*position + 7] = 3;
    153c:	e0 91 42 01 	lds	r30, 0x0142	; 0x800142 <lcd1>
    1540:	f0 91 43 01 	lds	r31, 0x0143	; 0x800143 <lcd1+0x1>
    1544:	98 e0       	ldi	r25, 0x08	; 8
    1546:	69 9f       	mul	r22, r25
    1548:	e0 0d       	add	r30, r0
    154a:	f1 1d       	adc	r31, r1
    154c:	11 24       	eor	r1, r1
    154e:	83 e0       	ldi	r24, 0x03	; 3
    1550:	87 83       	std	Z+7, r24	; 0x07
    1552:	08 95       	ret
		else if (val >= 212)
    1554:	84 3d       	cpi	r24, 0xD4	; 212
    1556:	60 f0       	brcs	.+24     	; 0x1570 <LCD_guage+0x2ba>
			lcd1[8*position + 7] = 1;
    1558:	e0 91 42 01 	lds	r30, 0x0142	; 0x800142 <lcd1>
    155c:	f0 91 43 01 	lds	r31, 0x0143	; 0x800143 <lcd1+0x1>
    1560:	88 e0       	ldi	r24, 0x08	; 8
    1562:	68 9f       	mul	r22, r24
    1564:	e0 0d       	add	r30, r0
    1566:	f1 1d       	adc	r31, r1
    1568:	11 24       	eor	r1, r1
    156a:	81 e0       	ldi	r24, 0x01	; 1
    156c:	87 83       	std	Z+7, r24	; 0x07
    156e:	08 95       	ret
		else if (val < 212)
			lcd1[8*position + 7] = ' ';
    1570:	e0 91 42 01 	lds	r30, 0x0142	; 0x800142 <lcd1>
    1574:	f0 91 43 01 	lds	r31, 0x0143	; 0x800143 <lcd1+0x1>
    1578:	98 e0       	ldi	r25, 0x08	; 8
    157a:	69 9f       	mul	r22, r25
    157c:	e0 0d       	add	r30, r0
    157e:	f1 1d       	adc	r31, r1
    1580:	11 24       	eor	r1, r1
    1582:	80 e2       	ldi	r24, 0x20	; 32
    1584:	87 83       	std	Z+7, r24	; 0x07
    1586:	08 95       	ret
	}
	else
	{
		// 1st digit
		if (val < 17)
    1588:	81 31       	cpi	r24, 0x11	; 17
    158a:	90 f4       	brcc	.+36     	; 0x15b0 <LCD_guage+0x2fa>
			lcd2[8*(position-2) + 1] = 0xFF;
    158c:	e6 2f       	mov	r30, r22
    158e:	f0 e0       	ldi	r31, 0x00	; 0
    1590:	32 97       	sbiw	r30, 0x02	; 2
    1592:	ee 0f       	add	r30, r30
    1594:	ff 1f       	adc	r31, r31
    1596:	ee 0f       	add	r30, r30
    1598:	ff 1f       	adc	r31, r31
    159a:	ee 0f       	add	r30, r30
    159c:	ff 1f       	adc	r31, r31
    159e:	20 91 40 01 	lds	r18, 0x0140	; 0x800140 <lcd2>
    15a2:	30 91 41 01 	lds	r19, 0x0141	; 0x800141 <lcd2+0x1>
    15a6:	e2 0f       	add	r30, r18
    15a8:	f3 1f       	adc	r31, r19
    15aa:	9f ef       	ldi	r25, 0xFF	; 255
    15ac:	91 83       	std	Z+1, r25	; 0x01
    15ae:	39 c0       	rjmp	.+114    	; 0x1622 <LCD_guage+0x36c>
		else if (val < 30)
    15b0:	8e 31       	cpi	r24, 0x1E	; 30
    15b2:	90 f4       	brcc	.+36     	; 0x15d8 <LCD_guage+0x322>
			lcd2[8*(position-2) + 1] = 4;
    15b4:	e6 2f       	mov	r30, r22
    15b6:	f0 e0       	ldi	r31, 0x00	; 0
    15b8:	32 97       	sbiw	r30, 0x02	; 2
    15ba:	ee 0f       	add	r30, r30
    15bc:	ff 1f       	adc	r31, r31
    15be:	ee 0f       	add	r30, r30
    15c0:	ff 1f       	adc	r31, r31
    15c2:	ee 0f       	add	r30, r30
    15c4:	ff 1f       	adc	r31, r31
    15c6:	20 91 40 01 	lds	r18, 0x0140	; 0x800140 <lcd2>
    15ca:	30 91 41 01 	lds	r19, 0x0141	; 0x800141 <lcd2+0x1>
    15ce:	e2 0f       	add	r30, r18
    15d0:	f3 1f       	adc	r31, r19
    15d2:	94 e0       	ldi	r25, 0x04	; 4
    15d4:	91 83       	std	Z+1, r25	; 0x01
    15d6:	25 c0       	rjmp	.+74     	; 0x1622 <LCD_guage+0x36c>
		else if (val < 43)
    15d8:	8b 32       	cpi	r24, 0x2B	; 43
    15da:	90 f4       	brcc	.+36     	; 0x1600 <LCD_guage+0x34a>
			lcd2[8*(position-2) + 1] = 6;
    15dc:	e6 2f       	mov	r30, r22
    15de:	f0 e0       	ldi	r31, 0x00	; 0
    15e0:	32 97       	sbiw	r30, 0x02	; 2
    15e2:	ee 0f       	add	r30, r30
    15e4:	ff 1f       	adc	r31, r31
    15e6:	ee 0f       	add	r30, r30
    15e8:	ff 1f       	adc	r31, r31
    15ea:	ee 0f       	add	r30, r30
    15ec:	ff 1f       	adc	r31, r31
    15ee:	20 91 40 01 	lds	r18, 0x0140	; 0x800140 <lcd2>
    15f2:	30 91 41 01 	lds	r19, 0x0141	; 0x800141 <lcd2+0x1>
    15f6:	e2 0f       	add	r30, r18
    15f8:	f3 1f       	adc	r31, r19
    15fa:	96 e0       	ldi	r25, 0x06	; 6
    15fc:	91 83       	std	Z+1, r25	; 0x01
    15fe:	11 c0       	rjmp	.+34     	; 0x1622 <LCD_guage+0x36c>
		else if (val >= 43)
			lcd2[8*(position-2) + 1] = ' ';
    1600:	e6 2f       	mov	r30, r22
    1602:	f0 e0       	ldi	r31, 0x00	; 0
    1604:	32 97       	sbiw	r30, 0x02	; 2
    1606:	ee 0f       	add	r30, r30
    1608:	ff 1f       	adc	r31, r31
    160a:	ee 0f       	add	r30, r30
    160c:	ff 1f       	adc	r31, r31
    160e:	ee 0f       	add	r30, r30
    1610:	ff 1f       	adc	r31, r31
    1612:	20 91 40 01 	lds	r18, 0x0140	; 0x800140 <lcd2>
    1616:	30 91 41 01 	lds	r19, 0x0141	; 0x800141 <lcd2+0x1>
    161a:	e2 0f       	add	r30, r18
    161c:	f3 1f       	adc	r31, r19
    161e:	90 e2       	ldi	r25, 0x20	; 32
    1620:	91 83       	std	Z+1, r25	; 0x01

		// 2nd digit
		if (val < 56)
    1622:	88 33       	cpi	r24, 0x38	; 56
    1624:	90 f4       	brcc	.+36     	; 0x164a <LCD_guage+0x394>
			lcd2[8*(position-2) + 2] = 0xFF;
    1626:	e6 2f       	mov	r30, r22
    1628:	f0 e0       	ldi	r31, 0x00	; 0
    162a:	32 97       	sbiw	r30, 0x02	; 2
    162c:	ee 0f       	add	r30, r30
    162e:	ff 1f       	adc	r31, r31
    1630:	ee 0f       	add	r30, r30
    1632:	ff 1f       	adc	r31, r31
    1634:	ee 0f       	add	r30, r30
    1636:	ff 1f       	adc	r31, r31
    1638:	20 91 40 01 	lds	r18, 0x0140	; 0x800140 <lcd2>
    163c:	30 91 41 01 	lds	r19, 0x0141	; 0x800141 <lcd2+0x1>
    1640:	e2 0f       	add	r30, r18
    1642:	f3 1f       	adc	r31, r19
    1644:	9f ef       	ldi	r25, 0xFF	; 255
    1646:	92 83       	std	Z+2, r25	; 0x02
    1648:	3a c0       	rjmp	.+116    	; 0x16be <LCD_guage+0x408>
		else if (val < 69)
    164a:	85 34       	cpi	r24, 0x45	; 69
    164c:	90 f4       	brcc	.+36     	; 0x1672 <LCD_guage+0x3bc>
			lcd2[8*(position-2) + 2] = 5;
    164e:	e6 2f       	mov	r30, r22
    1650:	f0 e0       	ldi	r31, 0x00	; 0
    1652:	32 97       	sbiw	r30, 0x02	; 2
    1654:	ee 0f       	add	r30, r30
    1656:	ff 1f       	adc	r31, r31
    1658:	ee 0f       	add	r30, r30
    165a:	ff 1f       	adc	r31, r31
    165c:	ee 0f       	add	r30, r30
    165e:	ff 1f       	adc	r31, r31
    1660:	20 91 40 01 	lds	r18, 0x0140	; 0x800140 <lcd2>
    1664:	30 91 41 01 	lds	r19, 0x0141	; 0x800141 <lcd2+0x1>
    1668:	e2 0f       	add	r30, r18
    166a:	f3 1f       	adc	r31, r19
    166c:	95 e0       	ldi	r25, 0x05	; 5
    166e:	92 83       	std	Z+2, r25	; 0x02
    1670:	26 c0       	rjmp	.+76     	; 0x16be <LCD_guage+0x408>
		else if (val < 82)
    1672:	82 35       	cpi	r24, 0x52	; 82
    1674:	90 f4       	brcc	.+36     	; 0x169a <LCD_guage+0x3e4>
			lcd2[8*(position-2) + 2] = 7;
    1676:	e6 2f       	mov	r30, r22
    1678:	f0 e0       	ldi	r31, 0x00	; 0
    167a:	32 97       	sbiw	r30, 0x02	; 2
    167c:	ee 0f       	add	r30, r30
    167e:	ff 1f       	adc	r31, r31
    1680:	ee 0f       	add	r30, r30
    1682:	ff 1f       	adc	r31, r31
    1684:	ee 0f       	add	r30, r30
    1686:	ff 1f       	adc	r31, r31
    1688:	20 91 40 01 	lds	r18, 0x0140	; 0x800140 <lcd2>
    168c:	30 91 41 01 	lds	r19, 0x0141	; 0x800141 <lcd2+0x1>
    1690:	e2 0f       	add	r30, r18
    1692:	f3 1f       	adc	r31, r19
    1694:	97 e0       	ldi	r25, 0x07	; 7
    1696:	92 83       	std	Z+2, r25	; 0x02
    1698:	14 c0       	rjmp	.+40     	; 0x16c2 <LCD_guage+0x40c>
		else if (val >= 82)
			lcd2[8*(position-2) + 2] = ' ';
    169a:	e6 2f       	mov	r30, r22
    169c:	f0 e0       	ldi	r31, 0x00	; 0
    169e:	32 97       	sbiw	r30, 0x02	; 2
    16a0:	ee 0f       	add	r30, r30
    16a2:	ff 1f       	adc	r31, r31
    16a4:	ee 0f       	add	r30, r30
    16a6:	ff 1f       	adc	r31, r31
    16a8:	ee 0f       	add	r30, r30
    16aa:	ff 1f       	adc	r31, r31
    16ac:	20 91 40 01 	lds	r18, 0x0140	; 0x800140 <lcd2>
    16b0:	30 91 41 01 	lds	r19, 0x0141	; 0x800141 <lcd2+0x1>
    16b4:	e2 0f       	add	r30, r18
    16b6:	f3 1f       	adc	r31, r19
    16b8:	90 e2       	ldi	r25, 0x20	; 32
    16ba:	92 83       	std	Z+2, r25	; 0x02
    16bc:	14 c0       	rjmp	.+40     	; 0x16e6 <LCD_guage+0x430>

		// 3rd digit
		if (val < 82)
    16be:	82 35       	cpi	r24, 0x52	; 82
    16c0:	90 f4       	brcc	.+36     	; 0x16e6 <LCD_guage+0x430>
			lcd2[8*(position-2) + 3] = 0xFF;
    16c2:	e6 2f       	mov	r30, r22
    16c4:	f0 e0       	ldi	r31, 0x00	; 0
    16c6:	32 97       	sbiw	r30, 0x02	; 2
    16c8:	ee 0f       	add	r30, r30
    16ca:	ff 1f       	adc	r31, r31
    16cc:	ee 0f       	add	r30, r30
    16ce:	ff 1f       	adc	r31, r31
    16d0:	ee 0f       	add	r30, r30
    16d2:	ff 1f       	adc	r31, r31
    16d4:	20 91 40 01 	lds	r18, 0x0140	; 0x800140 <lcd2>
    16d8:	30 91 41 01 	lds	r19, 0x0141	; 0x800141 <lcd2+0x1>
    16dc:	e2 0f       	add	r30, r18
    16de:	f3 1f       	adc	r31, r19
    16e0:	9f ef       	ldi	r25, 0xFF	; 255
    16e2:	93 83       	std	Z+3, r25	; 0x03
    16e4:	39 c0       	rjmp	.+114    	; 0x1758 <LCD_guage+0x4a2>
		else if (val < 95)
    16e6:	8f 35       	cpi	r24, 0x5F	; 95
    16e8:	90 f4       	brcc	.+36     	; 0x170e <LCD_guage+0x458>
			lcd2[8*(position-2) + 3] = 4;
    16ea:	e6 2f       	mov	r30, r22
    16ec:	f0 e0       	ldi	r31, 0x00	; 0
    16ee:	32 97       	sbiw	r30, 0x02	; 2
    16f0:	ee 0f       	add	r30, r30
    16f2:	ff 1f       	adc	r31, r31
    16f4:	ee 0f       	add	r30, r30
    16f6:	ff 1f       	adc	r31, r31
    16f8:	ee 0f       	add	r30, r30
    16fa:	ff 1f       	adc	r31, r31
    16fc:	20 91 40 01 	lds	r18, 0x0140	; 0x800140 <lcd2>
    1700:	30 91 41 01 	lds	r19, 0x0141	; 0x800141 <lcd2+0x1>
    1704:	e2 0f       	add	r30, r18
    1706:	f3 1f       	adc	r31, r19
    1708:	94 e0       	ldi	r25, 0x04	; 4
    170a:	93 83       	std	Z+3, r25	; 0x03
    170c:	25 c0       	rjmp	.+74     	; 0x1758 <LCD_guage+0x4a2>
		else if (val < 108)
    170e:	8c 36       	cpi	r24, 0x6C	; 108
    1710:	90 f4       	brcc	.+36     	; 0x1736 <LCD_guage+0x480>
			lcd2[8*(position-2) + 3] = 6;
    1712:	e6 2f       	mov	r30, r22
    1714:	f0 e0       	ldi	r31, 0x00	; 0
    1716:	32 97       	sbiw	r30, 0x02	; 2
    1718:	ee 0f       	add	r30, r30
    171a:	ff 1f       	adc	r31, r31
    171c:	ee 0f       	add	r30, r30
    171e:	ff 1f       	adc	r31, r31
    1720:	ee 0f       	add	r30, r30
    1722:	ff 1f       	adc	r31, r31
    1724:	20 91 40 01 	lds	r18, 0x0140	; 0x800140 <lcd2>
    1728:	30 91 41 01 	lds	r19, 0x0141	; 0x800141 <lcd2+0x1>
    172c:	e2 0f       	add	r30, r18
    172e:	f3 1f       	adc	r31, r19
    1730:	96 e0       	ldi	r25, 0x06	; 6
    1732:	93 83       	std	Z+3, r25	; 0x03
    1734:	11 c0       	rjmp	.+34     	; 0x1758 <LCD_guage+0x4a2>
		else if (val >= 108)
			lcd2[8*(position-2) + 3] = ' ';
    1736:	e6 2f       	mov	r30, r22
    1738:	f0 e0       	ldi	r31, 0x00	; 0
    173a:	32 97       	sbiw	r30, 0x02	; 2
    173c:	ee 0f       	add	r30, r30
    173e:	ff 1f       	adc	r31, r31
    1740:	ee 0f       	add	r30, r30
    1742:	ff 1f       	adc	r31, r31
    1744:	ee 0f       	add	r30, r30
    1746:	ff 1f       	adc	r31, r31
    1748:	20 91 40 01 	lds	r18, 0x0140	; 0x800140 <lcd2>
    174c:	30 91 41 01 	lds	r19, 0x0141	; 0x800141 <lcd2+0x1>
    1750:	e2 0f       	add	r30, r18
    1752:	f3 1f       	adc	r31, r19
    1754:	90 e2       	ldi	r25, 0x20	; 32
    1756:	93 83       	std	Z+3, r25	; 0x03

		// 4th digit
		if (val < 121)
    1758:	89 37       	cpi	r24, 0x79	; 121
    175a:	90 f4       	brcc	.+36     	; 0x1780 <LCD_guage+0x4ca>
			lcd2[8*(position-2) + 4] = 2;
    175c:	e6 2f       	mov	r30, r22
    175e:	f0 e0       	ldi	r31, 0x00	; 0
    1760:	32 97       	sbiw	r30, 0x02	; 2
    1762:	ee 0f       	add	r30, r30
    1764:	ff 1f       	adc	r31, r31
    1766:	ee 0f       	add	r30, r30
    1768:	ff 1f       	adc	r31, r31
    176a:	ee 0f       	add	r30, r30
    176c:	ff 1f       	adc	r31, r31
    176e:	20 91 40 01 	lds	r18, 0x0140	; 0x800140 <lcd2>
    1772:	30 91 41 01 	lds	r19, 0x0141	; 0x800141 <lcd2+0x1>
    1776:	e2 0f       	add	r30, r18
    1778:	f3 1f       	adc	r31, r19
    177a:	92 e0       	ldi	r25, 0x02	; 2
    177c:	94 83       	std	Z+4, r25	; 0x04
    177e:	25 c0       	rjmp	.+74     	; 0x17ca <LCD_guage+0x514>
		else if (val < 134)
    1780:	86 38       	cpi	r24, 0x86	; 134
    1782:	90 f4       	brcc	.+36     	; 0x17a8 <LCD_guage+0x4f2>
			lcd2[8*(position-2) + 4] = '|';
    1784:	e6 2f       	mov	r30, r22
    1786:	f0 e0       	ldi	r31, 0x00	; 0
    1788:	32 97       	sbiw	r30, 0x02	; 2
    178a:	ee 0f       	add	r30, r30
    178c:	ff 1f       	adc	r31, r31
    178e:	ee 0f       	add	r30, r30
    1790:	ff 1f       	adc	r31, r31
    1792:	ee 0f       	add	r30, r30
    1794:	ff 1f       	adc	r31, r31
    1796:	20 91 40 01 	lds	r18, 0x0140	; 0x800140 <lcd2>
    179a:	30 91 41 01 	lds	r19, 0x0141	; 0x800141 <lcd2+0x1>
    179e:	e2 0f       	add	r30, r18
    17a0:	f3 1f       	adc	r31, r19
    17a2:	9c e7       	ldi	r25, 0x7C	; 124
    17a4:	94 83       	std	Z+4, r25	; 0x04
    17a6:	11 c0       	rjmp	.+34     	; 0x17ca <LCD_guage+0x514>
		else if (val >= 134)
			lcd2[8*(position-2) + 4] = 5;
    17a8:	e6 2f       	mov	r30, r22
    17aa:	f0 e0       	ldi	r31, 0x00	; 0
    17ac:	32 97       	sbiw	r30, 0x02	; 2
    17ae:	ee 0f       	add	r30, r30
    17b0:	ff 1f       	adc	r31, r31
    17b2:	ee 0f       	add	r30, r30
    17b4:	ff 1f       	adc	r31, r31
    17b6:	ee 0f       	add	r30, r30
    17b8:	ff 1f       	adc	r31, r31
    17ba:	20 91 40 01 	lds	r18, 0x0140	; 0x800140 <lcd2>
    17be:	30 91 41 01 	lds	r19, 0x0141	; 0x800141 <lcd2+0x1>
    17c2:	e2 0f       	add	r30, r18
    17c4:	f3 1f       	adc	r31, r19
    17c6:	95 e0       	ldi	r25, 0x05	; 5
    17c8:	94 83       	std	Z+4, r25	; 0x04

		// 5th digit
		if (val >= 173)
    17ca:	8d 3a       	cpi	r24, 0xAD	; 173
    17cc:	90 f0       	brcs	.+36     	; 0x17f2 <LCD_guage+0x53c>
			lcd2[8*(position-2) + 5] = 0xFF;
    17ce:	e6 2f       	mov	r30, r22
    17d0:	f0 e0       	ldi	r31, 0x00	; 0
    17d2:	32 97       	sbiw	r30, 0x02	; 2
    17d4:	ee 0f       	add	r30, r30
    17d6:	ff 1f       	adc	r31, r31
    17d8:	ee 0f       	add	r30, r30
    17da:	ff 1f       	adc	r31, r31
    17dc:	ee 0f       	add	r30, r30
    17de:	ff 1f       	adc	r31, r31
    17e0:	20 91 40 01 	lds	r18, 0x0140	; 0x800140 <lcd2>
    17e4:	30 91 41 01 	lds	r19, 0x0141	; 0x800141 <lcd2+0x1>
    17e8:	e2 0f       	add	r30, r18
    17ea:	f3 1f       	adc	r31, r19
    17ec:	9f ef       	ldi	r25, 0xFF	; 255
    17ee:	95 83       	std	Z+5, r25	; 0x05
    17f0:	39 c0       	rjmp	.+114    	; 0x1864 <LCD_guage+0x5ae>
		else if (val >= 160)
    17f2:	80 3a       	cpi	r24, 0xA0	; 160
    17f4:	90 f0       	brcs	.+36     	; 0x181a <LCD_guage+0x564>
			lcd2[8*(position-2) + 5] = 3;
    17f6:	e6 2f       	mov	r30, r22
    17f8:	f0 e0       	ldi	r31, 0x00	; 0
    17fa:	32 97       	sbiw	r30, 0x02	; 2
    17fc:	ee 0f       	add	r30, r30
    17fe:	ff 1f       	adc	r31, r31
    1800:	ee 0f       	add	r30, r30
    1802:	ff 1f       	adc	r31, r31
    1804:	ee 0f       	add	r30, r30
    1806:	ff 1f       	adc	r31, r31
    1808:	20 91 40 01 	lds	r18, 0x0140	; 0x800140 <lcd2>
    180c:	30 91 41 01 	lds	r19, 0x0141	; 0x800141 <lcd2+0x1>
    1810:	e2 0f       	add	r30, r18
    1812:	f3 1f       	adc	r31, r19
    1814:	93 e0       	ldi	r25, 0x03	; 3
    1816:	95 83       	std	Z+5, r25	; 0x05
    1818:	25 c0       	rjmp	.+74     	; 0x1864 <LCD_guage+0x5ae>
		else if (val >= 147)
    181a:	83 39       	cpi	r24, 0x93	; 147
    181c:	90 f0       	brcs	.+36     	; 0x1842 <LCD_guage+0x58c>
			lcd2[8*(position-2) + 5] = 1;
    181e:	e6 2f       	mov	r30, r22
    1820:	f0 e0       	ldi	r31, 0x00	; 0
    1822:	32 97       	sbiw	r30, 0x02	; 2
    1824:	ee 0f       	add	r30, r30
    1826:	ff 1f       	adc	r31, r31
    1828:	ee 0f       	add	r30, r30
    182a:	ff 1f       	adc	r31, r31
    182c:	ee 0f       	add	r30, r30
    182e:	ff 1f       	adc	r31, r31
    1830:	20 91 40 01 	lds	r18, 0x0140	; 0x800140 <lcd2>
    1834:	30 91 41 01 	lds	r19, 0x0141	; 0x800141 <lcd2+0x1>
    1838:	e2 0f       	add	r30, r18
    183a:	f3 1f       	adc	r31, r19
    183c:	91 e0       	ldi	r25, 0x01	; 1
    183e:	95 83       	std	Z+5, r25	; 0x05
    1840:	11 c0       	rjmp	.+34     	; 0x1864 <LCD_guage+0x5ae>
		else if (val < 147)
			lcd2[8*(position-2) + 5] = ' ';
    1842:	e6 2f       	mov	r30, r22
    1844:	f0 e0       	ldi	r31, 0x00	; 0
    1846:	32 97       	sbiw	r30, 0x02	; 2
    1848:	ee 0f       	add	r30, r30
    184a:	ff 1f       	adc	r31, r31
    184c:	ee 0f       	add	r30, r30
    184e:	ff 1f       	adc	r31, r31
    1850:	ee 0f       	add	r30, r30
    1852:	ff 1f       	adc	r31, r31
    1854:	20 91 40 01 	lds	r18, 0x0140	; 0x800140 <lcd2>
    1858:	30 91 41 01 	lds	r19, 0x0141	; 0x800141 <lcd2+0x1>
    185c:	e2 0f       	add	r30, r18
    185e:	f3 1f       	adc	r31, r19
    1860:	90 e2       	ldi	r25, 0x20	; 32
    1862:	95 83       	std	Z+5, r25	; 0x05

		// 6th digit
		if (val >= 199)
    1864:	87 3c       	cpi	r24, 0xC7	; 199
    1866:	90 f0       	brcs	.+36     	; 0x188c <LCD_guage+0x5d6>
			lcd2[8*(position-2) + 6] = 0xFF;
    1868:	e6 2f       	mov	r30, r22
    186a:	f0 e0       	ldi	r31, 0x00	; 0
    186c:	32 97       	sbiw	r30, 0x02	; 2
    186e:	ee 0f       	add	r30, r30
    1870:	ff 1f       	adc	r31, r31
    1872:	ee 0f       	add	r30, r30
    1874:	ff 1f       	adc	r31, r31
    1876:	ee 0f       	add	r30, r30
    1878:	ff 1f       	adc	r31, r31
    187a:	20 91 40 01 	lds	r18, 0x0140	; 0x800140 <lcd2>
    187e:	30 91 41 01 	lds	r19, 0x0141	; 0x800141 <lcd2+0x1>
    1882:	e2 0f       	add	r30, r18
    1884:	f3 1f       	adc	r31, r19
    1886:	9f ef       	ldi	r25, 0xFF	; 255
    1888:	96 83       	std	Z+6, r25	; 0x06
    188a:	38 c0       	rjmp	.+112    	; 0x18fc <LCD_guage+0x646>
		else if (val >= 186)
    188c:	8a 3b       	cpi	r24, 0xBA	; 186
    188e:	90 f0       	brcs	.+36     	; 0x18b4 <LCD_guage+0x5fe>
			lcd2[8*(position-2) + 6] = 2;
    1890:	e6 2f       	mov	r30, r22
    1892:	f0 e0       	ldi	r31, 0x00	; 0
    1894:	32 97       	sbiw	r30, 0x02	; 2
    1896:	ee 0f       	add	r30, r30
    1898:	ff 1f       	adc	r31, r31
    189a:	ee 0f       	add	r30, r30
    189c:	ff 1f       	adc	r31, r31
    189e:	ee 0f       	add	r30, r30
    18a0:	ff 1f       	adc	r31, r31
    18a2:	20 91 40 01 	lds	r18, 0x0140	; 0x800140 <lcd2>
    18a6:	30 91 41 01 	lds	r19, 0x0141	; 0x800141 <lcd2+0x1>
    18aa:	e2 0f       	add	r30, r18
    18ac:	f3 1f       	adc	r31, r19
    18ae:	92 e0       	ldi	r25, 0x02	; 2
    18b0:	96 83       	std	Z+6, r25	; 0x06
    18b2:	24 c0       	rjmp	.+72     	; 0x18fc <LCD_guage+0x646>
		else if (val >= 173)
    18b4:	8d 3a       	cpi	r24, 0xAD	; 173
    18b6:	88 f0       	brcs	.+34     	; 0x18da <LCD_guage+0x624>
			lcd2[8*(position-2) + 6] = 0;
    18b8:	e6 2f       	mov	r30, r22
    18ba:	f0 e0       	ldi	r31, 0x00	; 0
    18bc:	32 97       	sbiw	r30, 0x02	; 2
    18be:	ee 0f       	add	r30, r30
    18c0:	ff 1f       	adc	r31, r31
    18c2:	ee 0f       	add	r30, r30
    18c4:	ff 1f       	adc	r31, r31
    18c6:	ee 0f       	add	r30, r30
    18c8:	ff 1f       	adc	r31, r31
    18ca:	20 91 40 01 	lds	r18, 0x0140	; 0x800140 <lcd2>
    18ce:	30 91 41 01 	lds	r19, 0x0141	; 0x800141 <lcd2+0x1>
    18d2:	e2 0f       	add	r30, r18
    18d4:	f3 1f       	adc	r31, r19
    18d6:	16 82       	std	Z+6, r1	; 0x06
    18d8:	11 c0       	rjmp	.+34     	; 0x18fc <LCD_guage+0x646>
		else if (val < 173)
			lcd2[8*(position-2) + 6] = ' ';
    18da:	e6 2f       	mov	r30, r22
    18dc:	f0 e0       	ldi	r31, 0x00	; 0
    18de:	32 97       	sbiw	r30, 0x02	; 2
    18e0:	ee 0f       	add	r30, r30
    18e2:	ff 1f       	adc	r31, r31
    18e4:	ee 0f       	add	r30, r30
    18e6:	ff 1f       	adc	r31, r31
    18e8:	ee 0f       	add	r30, r30
    18ea:	ff 1f       	adc	r31, r31
    18ec:	20 91 40 01 	lds	r18, 0x0140	; 0x800140 <lcd2>
    18f0:	30 91 41 01 	lds	r19, 0x0141	; 0x800141 <lcd2+0x1>
    18f4:	e2 0f       	add	r30, r18
    18f6:	f3 1f       	adc	r31, r19
    18f8:	90 e2       	ldi	r25, 0x20	; 32
    18fa:	96 83       	std	Z+6, r25	; 0x06

		// 7th digit
		if (val >= 238)
    18fc:	8e 3e       	cpi	r24, 0xEE	; 238
    18fe:	90 f0       	brcs	.+36     	; 0x1924 <LCD_guage+0x66e>
			lcd2[8*(position-2) + 7] = 0xFF;
    1900:	e6 2f       	mov	r30, r22
    1902:	f0 e0       	ldi	r31, 0x00	; 0
    1904:	32 97       	sbiw	r30, 0x02	; 2
    1906:	ee 0f       	add	r30, r30
    1908:	ff 1f       	adc	r31, r31
    190a:	ee 0f       	add	r30, r30
    190c:	ff 1f       	adc	r31, r31
    190e:	ee 0f       	add	r30, r30
    1910:	ff 1f       	adc	r31, r31
    1912:	60 91 40 01 	lds	r22, 0x0140	; 0x800140 <lcd2>
    1916:	70 91 41 01 	lds	r23, 0x0141	; 0x800141 <lcd2+0x1>
    191a:	e6 0f       	add	r30, r22
    191c:	f7 1f       	adc	r31, r23
    191e:	8f ef       	ldi	r24, 0xFF	; 255
    1920:	87 83       	std	Z+7, r24	; 0x07
    1922:	08 95       	ret
		else if (val >= 225)
    1924:	81 3e       	cpi	r24, 0xE1	; 225
    1926:	90 f0       	brcs	.+36     	; 0x194c <LCD_guage+0x696>
			lcd2[8*(position-2) + 7] = 3;
    1928:	e6 2f       	mov	r30, r22
    192a:	f0 e0       	ldi	r31, 0x00	; 0
    192c:	32 97       	sbiw	r30, 0x02	; 2
    192e:	ee 0f       	add	r30, r30
    1930:	ff 1f       	adc	r31, r31
    1932:	ee 0f       	add	r30, r30
    1934:	ff 1f       	adc	r31, r31
    1936:	ee 0f       	add	r30, r30
    1938:	ff 1f       	adc	r31, r31
    193a:	60 91 40 01 	lds	r22, 0x0140	; 0x800140 <lcd2>
    193e:	70 91 41 01 	lds	r23, 0x0141	; 0x800141 <lcd2+0x1>
    1942:	e6 0f       	add	r30, r22
    1944:	f7 1f       	adc	r31, r23
    1946:	83 e0       	ldi	r24, 0x03	; 3
    1948:	87 83       	std	Z+7, r24	; 0x07
    194a:	08 95       	ret
		else if (val >= 212)
    194c:	84 3d       	cpi	r24, 0xD4	; 212
    194e:	90 f0       	brcs	.+36     	; 0x1974 <LCD_guage+0x6be>
			lcd2[8*(position-2) + 7] = 1;
    1950:	e6 2f       	mov	r30, r22
    1952:	f0 e0       	ldi	r31, 0x00	; 0
    1954:	32 97       	sbiw	r30, 0x02	; 2
    1956:	ee 0f       	add	r30, r30
    1958:	ff 1f       	adc	r31, r31
    195a:	ee 0f       	add	r30, r30
    195c:	ff 1f       	adc	r31, r31
    195e:	ee 0f       	add	r30, r30
    1960:	ff 1f       	adc	r31, r31
    1962:	60 91 40 01 	lds	r22, 0x0140	; 0x800140 <lcd2>
    1966:	70 91 41 01 	lds	r23, 0x0141	; 0x800141 <lcd2+0x1>
    196a:	e6 0f       	add	r30, r22
    196c:	f7 1f       	adc	r31, r23
    196e:	81 e0       	ldi	r24, 0x01	; 1
    1970:	87 83       	std	Z+7, r24	; 0x07
    1972:	08 95       	ret
		else if (val < 212)
			lcd2[8*(position-2) + 7] = ' ';
    1974:	e6 2f       	mov	r30, r22
    1976:	f0 e0       	ldi	r31, 0x00	; 0
    1978:	32 97       	sbiw	r30, 0x02	; 2
    197a:	ee 0f       	add	r30, r30
    197c:	ff 1f       	adc	r31, r31
    197e:	ee 0f       	add	r30, r30
    1980:	ff 1f       	adc	r31, r31
    1982:	ee 0f       	add	r30, r30
    1984:	ff 1f       	adc	r31, r31
    1986:	80 91 40 01 	lds	r24, 0x0140	; 0x800140 <lcd2>
    198a:	90 91 41 01 	lds	r25, 0x0141	; 0x800141 <lcd2+0x1>
    198e:	e8 0f       	add	r30, r24
    1990:	f9 1f       	adc	r31, r25
    1992:	80 e2       	ldi	r24, 0x20	; 32
    1994:	87 83       	std	Z+7, r24	; 0x07
    1996:	08 95       	ret

00001998 <power_off>:
{		
	uint8_t addr_temp;
	
	// Save trim
	addr_temp = 15*cur_model + 1;
	eeprom_update_byte((uint8_t*)addr_temp,       trim[AILERON]);
    1998:	80 91 cf 05 	lds	r24, 0x05CF	; 0x8005cf <cur_model>
    199c:	c8 2f       	mov	r28, r24
    199e:	cc 0f       	add	r28, r28
    19a0:	c8 0f       	add	r28, r24
    19a2:	8c 2f       	mov	r24, r28
    19a4:	88 0f       	add	r24, r24
    19a6:	88 0f       	add	r24, r24
    19a8:	c8 0f       	add	r28, r24
    19aa:	cf 5f       	subi	r28, 0xFF	; 255
    19ac:	d0 e0       	ldi	r29, 0x00	; 0
    19ae:	07 eb       	ldi	r16, 0xB7	; 183
    19b0:	15 e0       	ldi	r17, 0x05	; 5
    19b2:	f8 01       	movw	r30, r16
    19b4:	60 81       	ld	r22, Z
    19b6:	ce 01       	movw	r24, r28
    19b8:	0e 94 2e 28 	call	0x505c	; 0x505c <eeprom_update_byte>
	eeprom_update_byte((uint8_t*)(addr_temp + 1), trim[ELEVATOR]);
    19bc:	f8 01       	movw	r30, r16
    19be:	61 81       	ldd	r22, Z+1	; 0x01
    19c0:	ce 01       	movw	r24, r28
    19c2:	01 96       	adiw	r24, 0x01	; 1
    19c4:	0e 94 2e 28 	call	0x505c	; 0x505c <eeprom_update_byte>
	eeprom_update_byte((uint8_t*)(addr_temp + 2), trim[RUDDER]);
    19c8:	f8 01       	movw	r30, r16
    19ca:	63 81       	ldd	r22, Z+3	; 0x03
    19cc:	ce 01       	movw	r24, r28
    19ce:	02 96       	adiw	r24, 0x02	; 2
    19d0:	0e 94 2e 28 	call	0x505c	; 0x505c <eeprom_update_byte>
	eeprom_update_byte((uint8_t*)(addr_temp + 3), trim[CH5]);
    19d4:	f8 01       	movw	r30, r16
    19d6:	64 81       	ldd	r22, Z+4	; 0x04
    19d8:	ce 01       	movw	r24, r28
    19da:	03 96       	adiw	r24, 0x03	; 3
    19dc:	0e 94 2e 28 	call	0x505c	; 0x505c <eeprom_update_byte>
	#else
		//round up by default
		__ticks_dc = (uint32_t)(ceil(fabs(__tmp)));
	#endif

	__builtin_avr_delay_cycles(__ticks_dc);
    19e0:	8f e3       	ldi	r24, 0x3F	; 63
    19e2:	9c e9       	ldi	r25, 0x9C	; 156
    19e4:	01 97       	sbiw	r24, 0x01	; 1
    19e6:	f1 f7       	brne	.-4      	; 0x19e4 <power_off+0x4c>
    19e8:	00 c0       	rjmp	.+0      	; 0x19ea <power_off+0x52>
    19ea:	00 00       	nop
	_delay_ms(20);
	
	
	// LCD	
	LCD_home();
    19ec:	0e 94 6a 02 	call	0x4d4	; 0x4d4 <LCD_home>
	LCD_string("      BYE!      ", 16);
    19f0:	60 e1       	ldi	r22, 0x10	; 16
    19f2:	85 e4       	ldi	r24, 0x45	; 69
    19f4:	91 e0       	ldi	r25, 0x01	; 1
    19f6:	0e 94 db 01 	call	0x3b6	; 0x3b6 <LCD_string>
	LCD_NWL();
    19fa:	0e 94 5c 02 	call	0x4b8	; 0x4b8 <LCD_NWL>
	LCD_string("                ", 16);
    19fe:	60 e1       	ldi	r22, 0x10	; 16
    1a00:	86 e5       	ldi	r24, 0x56	; 86
    1a02:	91 e0       	ldi	r25, 0x01	; 1
    1a04:	0e 94 db 01 	call	0x3b6	; 0x3b6 <LCD_string>
	
	
	// Power off sound effect
	buzzer(900);
    1a08:	84 e8       	ldi	r24, 0x84	; 132
    1a0a:	93 e0       	ldi	r25, 0x03	; 3
    1a0c:	0e 94 f3 08 	call	0x11e6	; 0x11e6 <buzzer>
    1a10:	9f ef       	ldi	r25, 0xFF	; 255
    1a12:	e2 e5       	ldi	r30, 0x52	; 82
    1a14:	f7 e0       	ldi	r31, 0x07	; 7
    1a16:	91 50       	subi	r25, 0x01	; 1
    1a18:	e0 40       	sbci	r30, 0x00	; 0
    1a1a:	f0 40       	sbci	r31, 0x00	; 0
    1a1c:	e1 f7       	brne	.-8      	; 0x1a16 <power_off+0x7e>
    1a1e:	00 c0       	rjmp	.+0      	; 0x1a20 <power_off+0x88>
    1a20:	00 00       	nop
	_delay_ms(300);
	buzzer(600);
    1a22:	88 e5       	ldi	r24, 0x58	; 88
    1a24:	92 e0       	ldi	r25, 0x02	; 2
    1a26:	0e 94 f3 08 	call	0x11e6	; 0x11e6 <buzzer>
    1a2a:	2f ef       	ldi	r18, 0xFF	; 255
    1a2c:	81 ee       	ldi	r24, 0xE1	; 225
    1a2e:	94 e0       	ldi	r25, 0x04	; 4
    1a30:	21 50       	subi	r18, 0x01	; 1
    1a32:	80 40       	sbci	r24, 0x00	; 0
    1a34:	90 40       	sbci	r25, 0x00	; 0
    1a36:	e1 f7       	brne	.-8      	; 0x1a30 <power_off+0x98>
    1a38:	00 c0       	rjmp	.+0      	; 0x1a3a <power_off+0xa2>
    1a3a:	00 00       	nop
	_delay_ms(200);
	buzzer(0);
    1a3c:	80 e0       	ldi	r24, 0x00	; 0
    1a3e:	90 e0       	ldi	r25, 0x00	; 0
    1a40:	0e 94 f3 08 	call	0x11e6	; 0x11e6 <buzzer>
    1a44:	ef ef       	ldi	r30, 0xFF	; 255
    1a46:	f2 e5       	ldi	r31, 0x52	; 82
    1a48:	27 e0       	ldi	r18, 0x07	; 7
    1a4a:	e1 50       	subi	r30, 0x01	; 1
    1a4c:	f0 40       	sbci	r31, 0x00	; 0
    1a4e:	20 40       	sbci	r18, 0x00	; 0
    1a50:	e1 f7       	brne	.-8      	; 0x1a4a <power_off+0xb2>
    1a52:	00 c0       	rjmp	.+0      	; 0x1a54 <power_off+0xbc>
    1a54:	00 00       	nop
	_delay_ms(300);
	
	// Turn Power regulator off
	while (1)
	{
		PORTD &= ~PWRTOGL;
    1a56:	5c 98       	cbi	0x0b, 4	; 11
    1a58:	8f ef       	ldi	r24, 0xFF	; 255
    1a5a:	99 e6       	ldi	r25, 0x69	; 105
    1a5c:	e8 e1       	ldi	r30, 0x18	; 24
    1a5e:	81 50       	subi	r24, 0x01	; 1
    1a60:	90 40       	sbci	r25, 0x00	; 0
    1a62:	e0 40       	sbci	r30, 0x00	; 0
    1a64:	e1 f7       	brne	.-8      	; 0x1a5e <power_off+0xc6>
    1a66:	00 c0       	rjmp	.+0      	; 0x1a68 <power_off+0xd0>
    1a68:	00 00       	nop
    1a6a:	f5 cf       	rjmp	.-22     	; 0x1a56 <power_off+0xbe>

00001a6c <__vector_16>:
/****************************************************/
/*      8ms timer									*/
/*													*/
/****************************************************/
ISR (TIMER0_OVF_vect)
{
    1a6c:	1f 92       	push	r1
    1a6e:	0f 92       	push	r0
    1a70:	0f b6       	in	r0, 0x3f	; 63
    1a72:	0f 92       	push	r0
    1a74:	11 24       	eor	r1, r1
    1a76:	2f 93       	push	r18
    1a78:	3f 93       	push	r19
    1a7a:	4f 93       	push	r20
    1a7c:	5f 93       	push	r21
    1a7e:	6f 93       	push	r22
    1a80:	7f 93       	push	r23
    1a82:	8f 93       	push	r24
    1a84:	9f 93       	push	r25
    1a86:	af 93       	push	r26
    1a88:	bf 93       	push	r27
    1a8a:	ef 93       	push	r30
    1a8c:	ff 93       	push	r31
	timer_8ms++;
    1a8e:	80 91 c8 05 	lds	r24, 0x05C8	; 0x8005c8 <timer_8ms>
    1a92:	8f 5f       	subi	r24, 0xFF	; 255
    1a94:	80 93 c8 05 	sts	0x05C8, r24	; 0x8005c8 <timer_8ms>
	timer_24ms++;
    1a98:	80 91 cb 05 	lds	r24, 0x05CB	; 0x8005cb <timer_24ms>
    1a9c:	8f 5f       	subi	r24, 0xFF	; 255
    1a9e:	80 93 cb 05 	sts	0x05CB, r24	; 0x8005cb <timer_24ms>
	tel_timer++;
    1aa2:	80 91 c3 05 	lds	r24, 0x05C3	; 0x8005c3 <tel_timer>
    1aa6:	8f 5f       	subi	r24, 0xFF	; 255
    1aa8:	80 93 c3 05 	sts	0x05C3, r24	; 0x8005c3 <tel_timer>
	timer_8ms_buzzer++;
    1aac:	80 91 c9 05 	lds	r24, 0x05C9	; 0x8005c9 <timer_8ms_buzzer>
    1ab0:	8f 5f       	subi	r24, 0xFF	; 255
    1ab2:	80 93 c9 05 	sts	0x05C9, r24	; 0x8005c9 <timer_8ms_buzzer>
	timer_8ms_power++;
    1ab6:	80 91 c5 05 	lds	r24, 0x05C5	; 0x8005c5 <timer_8ms_power>
    1aba:	8f 5f       	subi	r24, 0xFF	; 255
    1abc:	80 93 c5 05 	sts	0x05C5, r24	; 0x8005c5 <timer_8ms_power>
	TCNT0 = 5;
    1ac0:	85 e0       	ldi	r24, 0x05	; 5
    1ac2:	86 bd       	out	0x26, r24	; 38
	
	// Servo Delay
	if (mixing_val_3 & SERVO_DEL_1)
    1ac4:	80 91 d6 05 	lds	r24, 0x05D6	; 0x8005d6 <mixing_val_3>
    1ac8:	84 ff       	sbrs	r24, 4
    1aca:	17 c0       	rjmp	.+46     	; 0x1afa <__vector_16+0x8e>
	{
		if (channel_mix_temp & CH5_SW)
    1acc:	80 91 b6 05 	lds	r24, 0x05B6	; 0x8005b6 <channel_mix_temp>
    1ad0:	85 ff       	sbrs	r24, 5
    1ad2:	0a c0       	rjmp	.+20     	; 0x1ae8 <__vector_16+0x7c>
		{
			// CH5 down
			if (timer_8ms_Ch5Delay > 5)
    1ad4:	80 91 ca 05 	lds	r24, 0x05CA	; 0x8005ca <timer_8ms_Ch5Delay>
    1ad8:	86 30       	cpi	r24, 0x06	; 6
    1ada:	78 f0       	brcs	.+30     	; 0x1afa <__vector_16+0x8e>
				timer_8ms_Ch5Delay--;
    1adc:	80 91 ca 05 	lds	r24, 0x05CA	; 0x8005ca <timer_8ms_Ch5Delay>
    1ae0:	81 50       	subi	r24, 0x01	; 1
    1ae2:	80 93 ca 05 	sts	0x05CA, r24	; 0x8005ca <timer_8ms_Ch5Delay>
    1ae6:	09 c0       	rjmp	.+18     	; 0x1afa <__vector_16+0x8e>
		}
		else
		{			
			// CH5 up
			if (timer_8ms_Ch5Delay < 250)
    1ae8:	80 91 ca 05 	lds	r24, 0x05CA	; 0x8005ca <timer_8ms_Ch5Delay>
    1aec:	8a 3f       	cpi	r24, 0xFA	; 250
    1aee:	28 f4       	brcc	.+10     	; 0x1afa <__vector_16+0x8e>
				timer_8ms_Ch5Delay++;
    1af0:	80 91 ca 05 	lds	r24, 0x05CA	; 0x8005ca <timer_8ms_Ch5Delay>
    1af4:	8f 5f       	subi	r24, 0xFF	; 255
    1af6:	80 93 ca 05 	sts	0x05CA, r24	; 0x8005ca <timer_8ms_Ch5Delay>
		}
	}
	
	// 1s counter
	if (timer_8ms > 123)
    1afa:	80 91 c8 05 	lds	r24, 0x05C8	; 0x8005c8 <timer_8ms>
    1afe:	8c 37       	cpi	r24, 0x7C	; 124
    1b00:	c0 f0       	brcs	.+48     	; 0x1b32 <__vector_16+0xc6>
	{
		runtime++;
    1b02:	80 91 c6 05 	lds	r24, 0x05C6	; 0x8005c6 <runtime>
    1b06:	90 91 c7 05 	lds	r25, 0x05C7	; 0x8005c7 <runtime+0x1>
    1b0a:	01 96       	adiw	r24, 0x01	; 1
    1b0c:	90 93 c7 05 	sts	0x05C7, r25	; 0x8005c7 <runtime+0x1>
    1b10:	80 93 c6 05 	sts	0x05C6, r24	; 0x8005c6 <runtime>
		if (runtime > runtime_set)
    1b14:	20 91 c6 05 	lds	r18, 0x05C6	; 0x8005c6 <runtime>
    1b18:	30 91 c7 05 	lds	r19, 0x05C7	; 0x8005c7 <runtime+0x1>
    1b1c:	80 91 d0 05 	lds	r24, 0x05D0	; 0x8005d0 <runtime_set>
    1b20:	90 91 d1 05 	lds	r25, 0x05D1	; 0x8005d1 <runtime_set+0x1>
    1b24:	82 17       	cp	r24, r18
    1b26:	93 07       	cpc	r25, r19
    1b28:	10 f4       	brcc	.+4      	; 0x1b2e <__vector_16+0xc2>
			power_off();
    1b2a:	0e 94 cc 0c 	call	0x1998	; 0x1998 <power_off>
		timer_8ms = 0;
    1b2e:	10 92 c8 05 	sts	0x05C8, r1	; 0x8005c8 <timer_8ms>
	}
	
}
    1b32:	ff 91       	pop	r31
    1b34:	ef 91       	pop	r30
    1b36:	bf 91       	pop	r27
    1b38:	af 91       	pop	r26
    1b3a:	9f 91       	pop	r25
    1b3c:	8f 91       	pop	r24
    1b3e:	7f 91       	pop	r23
    1b40:	6f 91       	pop	r22
    1b42:	5f 91       	pop	r21
    1b44:	4f 91       	pop	r20
    1b46:	3f 91       	pop	r19
    1b48:	2f 91       	pop	r18
    1b4a:	0f 90       	pop	r0
    1b4c:	0f be       	out	0x3f, r0	; 63
    1b4e:	0f 90       	pop	r0
    1b50:	1f 90       	pop	r1
    1b52:	18 95       	reti

00001b54 <menu>:
		
	}
	
}
uint8_t menu()
{
    1b54:	2f 92       	push	r2
    1b56:	3f 92       	push	r3
    1b58:	4f 92       	push	r4
    1b5a:	5f 92       	push	r5
    1b5c:	6f 92       	push	r6
    1b5e:	7f 92       	push	r7
    1b60:	8f 92       	push	r8
    1b62:	9f 92       	push	r9
    1b64:	af 92       	push	r10
    1b66:	bf 92       	push	r11
    1b68:	cf 92       	push	r12
    1b6a:	df 92       	push	r13
    1b6c:	ef 92       	push	r14
    1b6e:	ff 92       	push	r15
    1b70:	0f 93       	push	r16
    1b72:	1f 93       	push	r17
    1b74:	cf 93       	push	r28
    1b76:	df 93       	push	r29
    1b78:	00 d0       	rcall	.+0      	; 0x1b7a <menu+0x26>
    1b7a:	00 d0       	rcall	.+0      	; 0x1b7c <menu+0x28>
    1b7c:	00 d0       	rcall	.+0      	; 0x1b7e <menu+0x2a>
    1b7e:	cd b7       	in	r28, 0x3d	; 61
    1b80:	de b7       	in	r29, 0x3e	; 62
	char* menu_display_h;
	char* menu_display_l;
	uint8_t enter = 0;
	uint8_t addr;
	uint8_t pre_addr;
	menu_input = 0;
    1b82:	10 92 ce 05 	sts	0x05CE, r1	; 0x8005ce <menu_input>
	LCD_CLEAR();
    1b86:	0e 94 60 02 	call	0x4c0	; 0x4c0 <LCD_CLEAR>
			if (enter)
			{
				menu_display_h = " Model Number   ";
				menu_display_l = " Model     Exit ";
				
				menu_display_l[7] = cur_model + 49;
    1b8a:	0f 2e       	mov	r0, r31
    1b8c:	ff e0       	ldi	r31, 0x0F	; 15
    1b8e:	8f 2e       	mov	r8, r31
    1b90:	f3 e0       	ldi	r31, 0x03	; 3
    1b92:	9f 2e       	mov	r9, r31
    1b94:	f0 2d       	mov	r31, r0
									menu_input = 0;
								else if (menu_input > 7)
									menu_input = 7;
								
								cur_model = menu_input;
								menu_display_l[7] = menu_input + 49;
    1b96:	79 2c       	mov	r7, r9
    1b98:	58 2c       	mov	r5, r8
    1b9a:	69 2c       	mov	r6, r9
									menu_input = 3;
								
								switch (menu_input)
								{
									case 3:
										runtime_set = RUNTIME10s;
    1b9c:	8b 82       	std	Y+3, r8	; 0x03
	LCD_CLEAR();
	
	while (1)
	{
		// Cursor input
		enter = menu_read();
    1b9e:	0e 94 fd 05 	call	0xbfa	; 0xbfa <menu_read>
		if (menu_input < 0)
    1ba2:	90 91 ce 05 	lds	r25, 0x05CE	; 0x8005ce <menu_input>
    1ba6:	99 23       	and	r25, r25
    1ba8:	2c f4       	brge	.+10     	; 0x1bb4 <menu+0x60>
			menu_input = MENU_NUM;
    1baa:	9c e0       	ldi	r25, 0x0C	; 12
    1bac:	90 93 ce 05 	sts	0x05CE, r25	; 0x8005ce <menu_input>
    1bb0:	0c 94 01 20 	jmp	0x4002	; 0x4002 <menu+0x24ae>
		else if (menu_input > MENU_NUM)
    1bb4:	9d 30       	cpi	r25, 0x0D	; 13
    1bb6:	1c f0       	brlt	.+6      	; 0x1bbe <menu+0x6a>
			menu_input = 0;
    1bb8:	10 92 ce 05 	sts	0x05CE, r1	; 0x8005ce <menu_input>
    1bbc:	02 c0       	rjmp	.+4      	; 0x1bc2 <menu+0x6e>


		////////// Set model number //////////////////////////////////////////////
		if (menu_input == 0)
    1bbe:	91 11       	cpse	r25, r1
    1bc0:	64 c1       	rjmp	.+712    	; 0x1e8a <menu+0x336>
			// Display code 
			menu_display_h = ">Model Number   ";
			menu_display_l = " Mixing         ";
			
			// Enter Model Number mode
			if (enter)
    1bc2:	88 23       	and	r24, r24
    1bc4:	11 f4       	brne	.+4      	; 0x1bca <menu+0x76>
    1bc6:	0c 94 05 20 	jmp	0x400a	; 0x400a <menu+0x24b6>
			{
				menu_display_h = " Model Number   ";
				menu_display_l = " Model     Exit ";
				
				menu_display_l[7] = cur_model + 49;
    1bca:	80 91 cf 05 	lds	r24, 0x05CF	; 0x8005cf <cur_model>
    1bce:	8f 5c       	subi	r24, 0xCF	; 207
    1bd0:	f4 01       	movw	r30, r8
    1bd2:	87 83       	std	Z+7, r24	; 0x07
				
				LCD_home();
    1bd4:	0e 94 6a 02 	call	0x4d4	; 0x4d4 <LCD_home>
				LCD_string(menu_display_h, 16);
    1bd8:	60 e1       	ldi	r22, 0x10	; 16
    1bda:	88 e7       	ldi	r24, 0x78	; 120
    1bdc:	91 e0       	ldi	r25, 0x01	; 1
    1bde:	0e 94 db 01 	call	0x3b6	; 0x3b6 <LCD_string>
						menu_input = 1;
					
					// Model number select
					if (menu_input == 0)
					{
						menu_display_l[0]  = '>';
    1be2:	1e e3       	ldi	r17, 0x3E	; 62
					// Cursor limit
					enter = menu_read();
					if (menu_input < 0)	
						menu_input = 0;
					else if (menu_input > 1)
						menu_input = 1;
    1be4:	01 e0       	ldi	r16, 0x01	; 1
    1be6:	fb 80       	ldd	r15, Y+3	; 0x03
				LCD_string(menu_display_h, 16);
				
				while (1)
				{
					// Cursor limit
					enter = menu_read();
    1be8:	0e 94 fd 05 	call	0xbfa	; 0xbfa <menu_read>
					if (menu_input < 0)	
    1bec:	90 91 ce 05 	lds	r25, 0x05CE	; 0x8005ce <menu_input>
    1bf0:	99 23       	and	r25, r25
    1bf2:	1c f4       	brge	.+6      	; 0x1bfa <menu+0xa6>
						menu_input = 0;
    1bf4:	10 92 ce 05 	sts	0x05CE, r1	; 0x8005ce <menu_input>
    1bf8:	07 c0       	rjmp	.+14     	; 0x1c08 <menu+0xb4>
					else if (menu_input > 1)
    1bfa:	92 30       	cpi	r25, 0x02	; 2
    1bfc:	1c f0       	brlt	.+6      	; 0x1c04 <menu+0xb0>
						menu_input = 1;
    1bfe:	00 93 ce 05 	sts	0x05CE, r16	; 0x8005ce <menu_input>
    1c02:	36 c0       	rjmp	.+108    	; 0x1c70 <menu+0x11c>
					
					// Model number select
					if (menu_input == 0)
    1c04:	91 11       	cpse	r25, r1
    1c06:	31 c0       	rjmp	.+98     	; 0x1c6a <menu+0x116>
					{
						menu_display_l[0]  = '>';
    1c08:	f4 01       	movw	r30, r8
    1c0a:	10 83       	st	Z, r17
						menu_display_l[10] = ' ';
    1c0c:	20 e2       	ldi	r18, 0x20	; 32
    1c0e:	22 87       	std	Z+10, r18	; 0x0a
						
						if (enter)
    1c10:	88 23       	and	r24, r24
    1c12:	09 f4       	brne	.+2      	; 0x1c16 <menu+0xc2>
    1c14:	2e c1       	rjmp	.+604    	; 0x1e72 <menu+0x31e>
						{
							menu_input = cur_model;
    1c16:	80 91 cf 05 	lds	r24, 0x05CF	; 0x8005cf <cur_model>
    1c1a:	80 93 ce 05 	sts	0x05CE, r24	; 0x8005ce <menu_input>
							
							while (1)
							{
								enter = menu_read();
    1c1e:	0e 94 fd 05 	call	0xbfa	; 0xbfa <menu_read>
								if (menu_input < 0)
    1c22:	90 91 ce 05 	lds	r25, 0x05CE	; 0x8005ce <menu_input>
    1c26:	99 23       	and	r25, r25
    1c28:	1c f4       	brge	.+6      	; 0x1c30 <menu+0xdc>
									menu_input = 0;
    1c2a:	10 92 ce 05 	sts	0x05CE, r1	; 0x8005ce <menu_input>
    1c2e:	05 c0       	rjmp	.+10     	; 0x1c3a <menu+0xe6>
								else if (menu_input > 7)
    1c30:	98 30       	cpi	r25, 0x08	; 8
    1c32:	1c f0       	brlt	.+6      	; 0x1c3a <menu+0xe6>
									menu_input = 7;
    1c34:	37 e0       	ldi	r19, 0x07	; 7
    1c36:	30 93 ce 05 	sts	0x05CE, r19	; 0x8005ce <menu_input>
								
								cur_model = menu_input;
    1c3a:	90 91 ce 05 	lds	r25, 0x05CE	; 0x8005ce <menu_input>
    1c3e:	90 93 cf 05 	sts	0x05CF, r25	; 0x8005cf <cur_model>
								menu_display_l[7] = menu_input + 49;
    1c42:	9f 5c       	subi	r25, 0xCF	; 207
    1c44:	f4 01       	movw	r30, r8
    1c46:	97 83       	std	Z+7, r25	; 0x07
								
								if (enter)
    1c48:	88 23       	and	r24, r24
    1c4a:	19 f0       	breq	.+6      	; 0x1c52 <menu+0xfe>
								{
									menu_input = 0;
    1c4c:	10 92 ce 05 	sts	0x05CE, r1	; 0x8005ce <menu_input>
									break;
    1c50:	10 c1       	rjmp	.+544    	; 0x1e72 <menu+0x31e>
								}
								
								// Display
								LCD_home();
    1c52:	0e 94 6a 02 	call	0x4d4	; 0x4d4 <LCD_home>
								LCD_NWL();
    1c56:	0e 94 5c 02 	call	0x4b8	; 0x4b8 <LCD_NWL>
								LCD_string(menu_display_l, 16);
    1c5a:	60 e1       	ldi	r22, 0x10	; 16
    1c5c:	85 2d       	mov	r24, r5
    1c5e:	96 2d       	mov	r25, r6
    1c60:	0e 94 db 01 	call	0x3b6	; 0x3b6 <LCD_string>
								
								buzzer_switch();
    1c64:	0e 94 1b 09 	call	0x1236	; 0x1236 <buzzer_switch>
								
							}
    1c68:	da cf       	rjmp	.-76     	; 0x1c1e <menu+0xca>
						}
					}
					// Exit
					else if (menu_input == 1)
    1c6a:	91 30       	cpi	r25, 0x01	; 1
    1c6c:	09 f0       	breq	.+2      	; 0x1c70 <menu+0x11c>
    1c6e:	01 c1       	rjmp	.+514    	; 0x1e72 <menu+0x31e>
					{
						menu_display_l[0]  = ' ';
    1c70:	20 e2       	ldi	r18, 0x20	; 32
    1c72:	f4 01       	movw	r30, r8
    1c74:	20 83       	st	Z, r18
						menu_display_l[10] = '>';
    1c76:	12 87       	std	Z+10, r17	; 0x0a
						
						if (enter)
    1c78:	88 23       	and	r24, r24
    1c7a:	09 f4       	brne	.+2      	; 0x1c7e <menu+0x12a>
    1c7c:	fa c0       	rjmp	.+500    	; 0x1e72 <menu+0x31e>
						{
							// Save previous model data
							pre_addr = cur_model * 15 + 1;
							
							eeprom_update_byte((uint8_t*)pre_addr,       trim[AILERON]);
    1c7e:	80 91 cf 05 	lds	r24, 0x05CF	; 0x8005cf <cur_model>
    1c82:	38 2f       	mov	r19, r24
    1c84:	33 0f       	add	r19, r19
    1c86:	38 0f       	add	r19, r24
    1c88:	83 2f       	mov	r24, r19
    1c8a:	88 0f       	add	r24, r24
    1c8c:	88 0f       	add	r24, r24
    1c8e:	38 0f       	add	r19, r24
    1c90:	3f 5f       	subi	r19, 0xFF	; 255
    1c92:	83 2f       	mov	r24, r19
    1c94:	90 e0       	ldi	r25, 0x00	; 0
    1c96:	9a 83       	std	Y+2, r25	; 0x02
    1c98:	89 83       	std	Y+1, r24	; 0x01
    1c9a:	07 eb       	ldi	r16, 0xB7	; 183
    1c9c:	15 e0       	ldi	r17, 0x05	; 5
    1c9e:	f8 01       	movw	r30, r16
    1ca0:	60 81       	ld	r22, Z
    1ca2:	0e 94 2e 28 	call	0x505c	; 0x505c <eeprom_update_byte>
							eeprom_update_byte((uint8_t*)(pre_addr + 1), trim[ELEVATOR]);
    1ca6:	f8 01       	movw	r30, r16
    1ca8:	61 81       	ldd	r22, Z+1	; 0x01
    1caa:	89 81       	ldd	r24, Y+1	; 0x01
    1cac:	9a 81       	ldd	r25, Y+2	; 0x02
    1cae:	01 96       	adiw	r24, 0x01	; 1
    1cb0:	0e 94 2e 28 	call	0x505c	; 0x505c <eeprom_update_byte>
							eeprom_update_byte((uint8_t*)(pre_addr + 2), trim[RUDDER]);
    1cb4:	f8 01       	movw	r30, r16
    1cb6:	63 81       	ldd	r22, Z+3	; 0x03
    1cb8:	89 81       	ldd	r24, Y+1	; 0x01
    1cba:	9a 81       	ldd	r25, Y+2	; 0x02
    1cbc:	02 96       	adiw	r24, 0x02	; 2
    1cbe:	0e 94 2e 28 	call	0x505c	; 0x505c <eeprom_update_byte>
							eeprom_update_byte((uint8_t*)(pre_addr + 3), trim[CH5]);
    1cc2:	f8 01       	movw	r30, r16
    1cc4:	64 81       	ldd	r22, Z+4	; 0x04
    1cc6:	89 81       	ldd	r24, Y+1	; 0x01
    1cc8:	9a 81       	ldd	r25, Y+2	; 0x02
    1cca:	03 96       	adiw	r24, 0x03	; 3
    1ccc:	0e 94 2e 28 	call	0x505c	; 0x505c <eeprom_update_byte>
							
							eeprom_update_byte((uint8_t*)(pre_addr + 4), mixing_val_1);
    1cd0:	60 91 db 05 	lds	r22, 0x05DB	; 0x8005db <mixing_val_1>
    1cd4:	89 81       	ldd	r24, Y+1	; 0x01
    1cd6:	9a 81       	ldd	r25, Y+2	; 0x02
    1cd8:	04 96       	adiw	r24, 0x04	; 4
    1cda:	0e 94 2e 28 	call	0x505c	; 0x505c <eeprom_update_byte>
							eeprom_update_byte((uint8_t*)(pre_addr + 5), mixing_val_2);
    1cde:	60 91 cd 05 	lds	r22, 0x05CD	; 0x8005cd <mixing_val_2>
    1ce2:	89 81       	ldd	r24, Y+1	; 0x01
    1ce4:	9a 81       	ldd	r25, Y+2	; 0x02
    1ce6:	05 96       	adiw	r24, 0x05	; 5
    1ce8:	0e 94 2e 28 	call	0x505c	; 0x505c <eeprom_update_byte>
							eeprom_update_byte((uint8_t*)(pre_addr + 6), mixing_val_3);
    1cec:	60 91 d6 05 	lds	r22, 0x05D6	; 0x8005d6 <mixing_val_3>
    1cf0:	89 81       	ldd	r24, Y+1	; 0x01
    1cf2:	9a 81       	ldd	r25, Y+2	; 0x02
    1cf4:	06 96       	adiw	r24, 0x06	; 6
    1cf6:	0e 94 2e 28 	call	0x505c	; 0x505c <eeprom_update_byte>
							
							eeprom_update_byte((uint8_t*)(pre_addr + 7),  sw[0]);
    1cfa:	ed ed       	ldi	r30, 0xDD	; 221
    1cfc:	f5 e0       	ldi	r31, 0x05	; 5
    1cfe:	60 81       	ld	r22, Z
    1d00:	89 81       	ldd	r24, Y+1	; 0x01
    1d02:	9a 81       	ldd	r25, Y+2	; 0x02
    1d04:	07 96       	adiw	r24, 0x07	; 7
    1d06:	0e 94 2e 28 	call	0x505c	; 0x505c <eeprom_update_byte>
							eeprom_update_byte((uint8_t*)(pre_addr + 8),  sw[1]);
    1d0a:	60 91 de 05 	lds	r22, 0x05DE	; 0x8005de <sw+0x1>
    1d0e:	89 81       	ldd	r24, Y+1	; 0x01
    1d10:	9a 81       	ldd	r25, Y+2	; 0x02
    1d12:	08 96       	adiw	r24, 0x08	; 8
    1d14:	0e 94 2e 28 	call	0x505c	; 0x505c <eeprom_update_byte>
							eeprom_update_byte((uint8_t*)(pre_addr + 9),  sw[2]);
    1d18:	60 91 df 05 	lds	r22, 0x05DF	; 0x8005df <sw+0x2>
    1d1c:	89 81       	ldd	r24, Y+1	; 0x01
    1d1e:	9a 81       	ldd	r25, Y+2	; 0x02
    1d20:	09 96       	adiw	r24, 0x09	; 9
    1d22:	0e 94 2e 28 	call	0x505c	; 0x505c <eeprom_update_byte>
							eeprom_update_byte((uint8_t*)(pre_addr + 10), sw[3]);
    1d26:	60 91 e0 05 	lds	r22, 0x05E0	; 0x8005e0 <sw+0x3>
    1d2a:	89 81       	ldd	r24, Y+1	; 0x01
    1d2c:	9a 81       	ldd	r25, Y+2	; 0x02
    1d2e:	0a 96       	adiw	r24, 0x0a	; 10
    1d30:	0e 94 2e 28 	call	0x505c	; 0x505c <eeprom_update_byte>
							eeprom_update_byte((uint8_t*)(pre_addr + 11), sw[4]);
    1d34:	60 91 e1 05 	lds	r22, 0x05E1	; 0x8005e1 <sw+0x4>
    1d38:	89 81       	ldd	r24, Y+1	; 0x01
    1d3a:	9a 81       	ldd	r25, Y+2	; 0x02
    1d3c:	0b 96       	adiw	r24, 0x0b	; 11
    1d3e:	0e 94 2e 28 	call	0x505c	; 0x505c <eeprom_update_byte>
							eeprom_update_byte((uint8_t*)(pre_addr + 12), sw[5]);
    1d42:	60 91 e2 05 	lds	r22, 0x05E2	; 0x8005e2 <sw+0x5>
    1d46:	89 81       	ldd	r24, Y+1	; 0x01
    1d48:	9a 81       	ldd	r25, Y+2	; 0x02
    1d4a:	0c 96       	adiw	r24, 0x0c	; 12
    1d4c:	0e 94 2e 28 	call	0x505c	; 0x505c <eeprom_update_byte>
							eeprom_update_byte((uint8_t*)(pre_addr + 13), sw[6]);
    1d50:	60 91 e3 05 	lds	r22, 0x05E3	; 0x8005e3 <sw+0x6>
    1d54:	89 81       	ldd	r24, Y+1	; 0x01
    1d56:	9a 81       	ldd	r25, Y+2	; 0x02
    1d58:	0d 96       	adiw	r24, 0x0d	; 13
    1d5a:	0e 94 2e 28 	call	0x505c	; 0x505c <eeprom_update_byte>
							eeprom_update_byte((uint8_t*)(pre_addr + 14), sw[7]);
    1d5e:	60 91 e4 05 	lds	r22, 0x05E4	; 0x8005e4 <sw+0x7>
    1d62:	89 81       	ldd	r24, Y+1	; 0x01
    1d64:	9a 81       	ldd	r25, Y+2	; 0x02
    1d66:	0e 96       	adiw	r24, 0x0e	; 14
    1d68:	0e 94 2e 28 	call	0x505c	; 0x505c <eeprom_update_byte>
							
							eeprom_update_byte((uint8_t*)121, cur_model);
    1d6c:	60 91 cf 05 	lds	r22, 0x05CF	; 0x8005cf <cur_model>
    1d70:	89 e7       	ldi	r24, 0x79	; 121
    1d72:	90 e0       	ldi	r25, 0x00	; 0
    1d74:	0e 94 2e 28 	call	0x505c	; 0x505c <eeprom_update_byte>
							
							// Call new model data
							addr = menu_input * 15 + 1;
							
							trim[AILERON]  = eeprom_read_byte((const uint8_t*)addr      );
    1d78:	80 91 ce 05 	lds	r24, 0x05CE	; 0x8005ce <menu_input>
    1d7c:	f8 2f       	mov	r31, r24
    1d7e:	ff 0f       	add	r31, r31
    1d80:	f8 0f       	add	r31, r24
    1d82:	8f 2f       	mov	r24, r31
    1d84:	88 0f       	add	r24, r24
    1d86:	88 0f       	add	r24, r24
    1d88:	f8 0f       	add	r31, r24
    1d8a:	ff 5f       	subi	r31, 0xFF	; 255
    1d8c:	2f 2f       	mov	r18, r31
    1d8e:	30 e0       	ldi	r19, 0x00	; 0
    1d90:	3a 83       	std	Y+2, r19	; 0x02
    1d92:	29 83       	std	Y+1, r18	; 0x01
    1d94:	c9 01       	movw	r24, r18
    1d96:	0e 94 20 28 	call	0x5040	; 0x5040 <eeprom_read_byte>
    1d9a:	f8 01       	movw	r30, r16
    1d9c:	80 83       	st	Z, r24
							trim[ELEVATOR] = eeprom_read_byte((const uint8_t*)(addr + 1));
    1d9e:	89 81       	ldd	r24, Y+1	; 0x01
    1da0:	9a 81       	ldd	r25, Y+2	; 0x02
    1da2:	01 96       	adiw	r24, 0x01	; 1
    1da4:	0e 94 20 28 	call	0x5040	; 0x5040 <eeprom_read_byte>
    1da8:	f8 01       	movw	r30, r16
    1daa:	81 83       	std	Z+1, r24	; 0x01
							trim[RUDDER]   = eeprom_read_byte((const uint8_t*)(addr + 2));
    1dac:	89 81       	ldd	r24, Y+1	; 0x01
    1dae:	9a 81       	ldd	r25, Y+2	; 0x02
    1db0:	02 96       	adiw	r24, 0x02	; 2
    1db2:	0e 94 20 28 	call	0x5040	; 0x5040 <eeprom_read_byte>
    1db6:	f8 01       	movw	r30, r16
    1db8:	83 83       	std	Z+3, r24	; 0x03
							trim[CH5]      = eeprom_read_byte((const uint8_t*)(addr + 3));
    1dba:	89 81       	ldd	r24, Y+1	; 0x01
    1dbc:	9a 81       	ldd	r25, Y+2	; 0x02
    1dbe:	03 96       	adiw	r24, 0x03	; 3
    1dc0:	0e 94 20 28 	call	0x5040	; 0x5040 <eeprom_read_byte>
    1dc4:	f8 01       	movw	r30, r16
    1dc6:	84 83       	std	Z+4, r24	; 0x04
							
							mixing_val_1 = eeprom_read_byte((const uint8_t*)(addr + 4));
    1dc8:	89 81       	ldd	r24, Y+1	; 0x01
    1dca:	9a 81       	ldd	r25, Y+2	; 0x02
    1dcc:	04 96       	adiw	r24, 0x04	; 4
    1dce:	0e 94 20 28 	call	0x5040	; 0x5040 <eeprom_read_byte>
    1dd2:	80 93 db 05 	sts	0x05DB, r24	; 0x8005db <mixing_val_1>
							mixing_val_2 = eeprom_read_byte((const uint8_t*)(addr + 5));
    1dd6:	89 81       	ldd	r24, Y+1	; 0x01
    1dd8:	9a 81       	ldd	r25, Y+2	; 0x02
    1dda:	05 96       	adiw	r24, 0x05	; 5
    1ddc:	0e 94 20 28 	call	0x5040	; 0x5040 <eeprom_read_byte>
    1de0:	80 93 cd 05 	sts	0x05CD, r24	; 0x8005cd <mixing_val_2>
							mixing_val_3 = eeprom_read_byte((const uint8_t*)(addr + 6));
    1de4:	89 81       	ldd	r24, Y+1	; 0x01
    1de6:	9a 81       	ldd	r25, Y+2	; 0x02
    1de8:	06 96       	adiw	r24, 0x06	; 6
    1dea:	0e 94 20 28 	call	0x5040	; 0x5040 <eeprom_read_byte>
    1dee:	80 93 d6 05 	sts	0x05D6, r24	; 0x8005d6 <mixing_val_3>
							
							sw[0] = eeprom_read_byte((const uint8_t*)(addr + 7));
    1df2:	89 81       	ldd	r24, Y+1	; 0x01
    1df4:	9a 81       	ldd	r25, Y+2	; 0x02
    1df6:	07 96       	adiw	r24, 0x07	; 7
    1df8:	0e 94 20 28 	call	0x5040	; 0x5040 <eeprom_read_byte>
    1dfc:	ed ed       	ldi	r30, 0xDD	; 221
    1dfe:	f5 e0       	ldi	r31, 0x05	; 5
    1e00:	80 83       	st	Z, r24
							sw[1] = eeprom_read_byte((const uint8_t*)(addr + 8));
    1e02:	89 81       	ldd	r24, Y+1	; 0x01
    1e04:	9a 81       	ldd	r25, Y+2	; 0x02
    1e06:	08 96       	adiw	r24, 0x08	; 8
    1e08:	0e 94 20 28 	call	0x5040	; 0x5040 <eeprom_read_byte>
    1e0c:	80 93 de 05 	sts	0x05DE, r24	; 0x8005de <sw+0x1>
							sw[2] = eeprom_read_byte((const uint8_t*)(addr + 9));
    1e10:	89 81       	ldd	r24, Y+1	; 0x01
    1e12:	9a 81       	ldd	r25, Y+2	; 0x02
    1e14:	09 96       	adiw	r24, 0x09	; 9
    1e16:	0e 94 20 28 	call	0x5040	; 0x5040 <eeprom_read_byte>
    1e1a:	80 93 df 05 	sts	0x05DF, r24	; 0x8005df <sw+0x2>
							sw[3] = eeprom_read_byte((const uint8_t*)(addr + 10));
    1e1e:	89 81       	ldd	r24, Y+1	; 0x01
    1e20:	9a 81       	ldd	r25, Y+2	; 0x02
    1e22:	0a 96       	adiw	r24, 0x0a	; 10
    1e24:	0e 94 20 28 	call	0x5040	; 0x5040 <eeprom_read_byte>
    1e28:	80 93 e0 05 	sts	0x05E0, r24	; 0x8005e0 <sw+0x3>
							sw[4] = eeprom_read_byte((const uint8_t*)(addr + 11));
    1e2c:	89 81       	ldd	r24, Y+1	; 0x01
    1e2e:	9a 81       	ldd	r25, Y+2	; 0x02
    1e30:	0b 96       	adiw	r24, 0x0b	; 11
    1e32:	0e 94 20 28 	call	0x5040	; 0x5040 <eeprom_read_byte>
    1e36:	80 93 e1 05 	sts	0x05E1, r24	; 0x8005e1 <sw+0x4>
							sw[5] = eeprom_read_byte((const uint8_t*)(addr + 12));
    1e3a:	89 81       	ldd	r24, Y+1	; 0x01
    1e3c:	9a 81       	ldd	r25, Y+2	; 0x02
    1e3e:	0c 96       	adiw	r24, 0x0c	; 12
    1e40:	0e 94 20 28 	call	0x5040	; 0x5040 <eeprom_read_byte>
    1e44:	80 93 e2 05 	sts	0x05E2, r24	; 0x8005e2 <sw+0x5>
							sw[6] = eeprom_read_byte((const uint8_t*)(addr + 13));
    1e48:	89 81       	ldd	r24, Y+1	; 0x01
    1e4a:	9a 81       	ldd	r25, Y+2	; 0x02
    1e4c:	0d 96       	adiw	r24, 0x0d	; 13
    1e4e:	0e 94 20 28 	call	0x5040	; 0x5040 <eeprom_read_byte>
    1e52:	80 93 e3 05 	sts	0x05E3, r24	; 0x8005e3 <sw+0x6>
							sw[7] = eeprom_read_byte((const uint8_t*)(addr + 14));
    1e56:	89 81       	ldd	r24, Y+1	; 0x01
    1e58:	9a 81       	ldd	r25, Y+2	; 0x02
    1e5a:	0e 96       	adiw	r24, 0x0e	; 14
    1e5c:	0e 94 20 28 	call	0x5040	; 0x5040 <eeprom_read_byte>
    1e60:	80 93 e4 05 	sts	0x05E4, r24	; 0x8005e4 <sw+0x7>
							
							menu_input = 0;
    1e64:	10 92 ce 05 	sts	0x05CE, r1	; 0x8005ce <menu_input>
			
			// Enter Model Number mode
			if (enter)
			{
				menu_display_h = " Model Number   ";
				menu_display_l = " Model     Exit ";
    1e68:	14 01       	movw	r2, r8
			menu_display_l = " Mixing         ";
			
			// Enter Model Number mode
			if (enter)
			{
				menu_display_h = " Model Number   ";
    1e6a:	08 e7       	ldi	r16, 0x78	; 120
    1e6c:	11 e0       	ldi	r17, 0x01	; 1
							sw[5] = eeprom_read_byte((const uint8_t*)(addr + 12));
							sw[6] = eeprom_read_byte((const uint8_t*)(addr + 13));
							sw[7] = eeprom_read_byte((const uint8_t*)(addr + 14));
							
							menu_input = 0;
							break;
    1e6e:	0c 94 79 20 	jmp	0x40f2	; 0x40f2 <menu+0x259e>
						}
					}
					
					
					// Display
					LCD_home();
    1e72:	0e 94 6a 02 	call	0x4d4	; 0x4d4 <LCD_home>
					LCD_NWL();
    1e76:	0e 94 5c 02 	call	0x4b8	; 0x4b8 <LCD_NWL>
					LCD_string(menu_display_l, 16);
    1e7a:	60 e1       	ldi	r22, 0x10	; 16
    1e7c:	8f 2d       	mov	r24, r15
    1e7e:	97 2d       	mov	r25, r7
    1e80:	0e 94 db 01 	call	0x3b6	; 0x3b6 <LCD_string>
					
					buzzer_switch();
    1e84:	0e 94 1b 09 	call	0x1236	; 0x1236 <buzzer_switch>
					
				} // while
    1e88:	af ce       	rjmp	.-674    	; 0x1be8 <menu+0x94>
			} // if (enter)
		} // if (menu_input == 0)
		
		
		////////// Mixing setting ////////////////////////////////////////////////
		else if (menu_input == 1)
    1e8a:	91 30       	cpi	r25, 0x01	; 1
    1e8c:	09 f0       	breq	.+2      	; 0x1e90 <menu+0x33c>
    1e8e:	46 c1       	rjmp	.+652    	; 0x211c <menu+0x5c8>
		{
			// Display code
			menu_display_h = " Model Number   ";
			menu_display_l = ">Mixing         ";
			
			if (enter)
    1e90:	88 23       	and	r24, r24
    1e92:	11 f4       	brne	.+4      	; 0x1e98 <menu+0x344>
    1e94:	0c 94 0e 20 	jmp	0x401c	; 0x401c <menu+0x24c8>
			{
				menu_input_temp = menu_input;
				menu_input = 0;
    1e98:	10 92 ce 05 	sts	0x05CE, r1	; 0x8005ce <menu_input>
				LCD_CLEAR();
    1e9c:	0e 94 60 02 	call	0x4c0	; 0x4c0 <LCD_CLEAR>
		////////// Mixing setting ////////////////////////////////////////////////
		else if (menu_input == 1)
		{
			// Display code
			menu_display_h = " Model Number   ";
			menu_display_l = ">Mixing         ";
    1ea0:	07 e6       	ldi	r16, 0x67	; 103
    1ea2:	11 e0       	ldi	r17, 0x01	; 1
		
		////////// Mixing setting ////////////////////////////////////////////////
		else if (menu_input == 1)
		{
			// Display code
			menu_display_h = " Model Number   ";
    1ea4:	28 e7       	ldi	r18, 0x78	; 120
    1ea6:	31 e0       	ldi	r19, 0x01	; 1
						else
							menu_display_h[10] = ' ';
						if (mixing_val_1 & VTAIL)
							menu_display_l[10] = 'V';
						else
							menu_display_l[10] = ' ';
    1ea8:	0f 2e       	mov	r0, r31
    1eaa:	f9 e8       	ldi	r31, 0x89	; 137
    1eac:	ef 2e       	mov	r14, r31
    1eae:	f1 e0       	ldi	r31, 0x01	; 1
    1eb0:	ff 2e       	mov	r15, r31
    1eb2:	f0 2d       	mov	r31, r0
    1eb4:	68 94       	set
    1eb6:	44 24       	eor	r4, r4
    1eb8:	45 f8       	bld	r4, 5
					
					// Display & stat /////////////
					if (menu_input == 0)
					{
						// Display init
						menu_display_h = ">Elevon         ";
    1eba:	0f 2e       	mov	r0, r31
    1ebc:	fa e9       	ldi	r31, 0x9A	; 154
    1ebe:	cf 2e       	mov	r12, r31
    1ec0:	f1 e0       	ldi	r31, 0x01	; 1
    1ec2:	df 2e       	mov	r13, r31
    1ec4:	f0 2d       	mov	r31, r0
						if (mixing_val_1 & ELEVON)
							menu_display_h[10] = 'V';
						else
							menu_display_h[10] = ' ';
						if (mixing_val_1 & VTAIL)
							menu_display_l[10] = 'V';
    1ec6:	0f 2e       	mov	r0, r31
    1ec8:	f6 e5       	ldi	r31, 0x56	; 86
    1eca:	3f 2e       	mov	r3, r31
    1ecc:	f0 2d       	mov	r31, r0
						else
							menu_display_h[10] = ' ';
						if (mixing_val_1 & VTAIL)
							menu_display_l[10] = 'V';
						else
							menu_display_l[10] = ' ';
    1ece:	0f 2e       	mov	r0, r31
    1ed0:	fb ea       	ldi	r31, 0xAB	; 171
    1ed2:	af 2e       	mov	r10, r31
    1ed4:	f1 e0       	ldi	r31, 0x01	; 1
    1ed6:	bf 2e       	mov	r11, r31
    1ed8:	f0 2d       	mov	r31, r0
						
					}
					else if (menu_input == 1)
					{
						// Display init
						menu_display_h = " Elevon         ";
    1eda:	3a 83       	std	Y+2, r19	; 0x02
    1edc:	29 83       	std	Y+1, r18	; 0x01
				LCD_CLEAR();
				
				while (1)
				{
					// Cursor limit
					enter = menu_read();
    1ede:	0e 94 fd 05 	call	0xbfa	; 0xbfa <menu_read>
					if (menu_input < 0)
    1ee2:	90 91 ce 05 	lds	r25, 0x05CE	; 0x8005ce <menu_input>
    1ee6:	99 23       	and	r25, r25
    1ee8:	1c f4       	brge	.+6      	; 0x1ef0 <menu+0x39c>
						menu_input = 0;
    1eea:	10 92 ce 05 	sts	0x05CE, r1	; 0x8005ce <menu_input>
    1eee:	08 c0       	rjmp	.+16     	; 0x1f00 <menu+0x3ac>
					else if (menu_input > 5)
    1ef0:	96 30       	cpi	r25, 0x06	; 6
    1ef2:	24 f0       	brlt	.+8      	; 0x1efc <menu+0x3a8>
						menu_input = 5;
    1ef4:	95 e0       	ldi	r25, 0x05	; 5
    1ef6:	90 93 ce 05 	sts	0x05CE, r25	; 0x8005ce <menu_input>
    1efa:	dc c0       	rjmp	.+440    	; 0x20b4 <menu+0x560>
					
					
					// Display & stat /////////////
					if (menu_input == 0)
    1efc:	91 11       	cpse	r25, r1
    1efe:	26 c0       	rjmp	.+76     	; 0x1f4c <menu+0x3f8>
					{
						// Display init
						menu_display_h = ">Elevon         ";
						menu_display_l = " Vtail          ";
						
						if ((enter) && !(mixing_val_1 & VTAIL))
    1f00:	88 23       	and	r24, r24
    1f02:	69 f0       	breq	.+26     	; 0x1f1e <menu+0x3ca>
    1f04:	80 91 db 05 	lds	r24, 0x05DB	; 0x8005db <mixing_val_1>
    1f08:	86 fd       	sbrc	r24, 6
    1f0a:	09 c0       	rjmp	.+18     	; 0x1f1e <menu+0x3ca>
						{
							if (mixing_val_1 & ELEVON)
    1f0c:	85 ff       	sbrs	r24, 5
    1f0e:	04 c0       	rjmp	.+8      	; 0x1f18 <menu+0x3c4>
								mixing_val_1 &= ~ELEVON;
    1f10:	8f 7d       	andi	r24, 0xDF	; 223
    1f12:	80 93 db 05 	sts	0x05DB, r24	; 0x8005db <mixing_val_1>
    1f16:	03 c0       	rjmp	.+6      	; 0x1f1e <menu+0x3ca>
							else
								mixing_val_1 |= ELEVON;
    1f18:	80 62       	ori	r24, 0x20	; 32
    1f1a:	80 93 db 05 	sts	0x05DB, r24	; 0x8005db <mixing_val_1>
						}
						
						if (mixing_val_1 & ELEVON)
    1f1e:	80 91 db 05 	lds	r24, 0x05DB	; 0x8005db <mixing_val_1>
    1f22:	85 ff       	sbrs	r24, 5
    1f24:	03 c0       	rjmp	.+6      	; 0x1f2c <menu+0x3d8>
							menu_display_h[10] = 'V';
    1f26:	f6 01       	movw	r30, r12
    1f28:	32 86       	std	Z+10, r3	; 0x0a
    1f2a:	02 c0       	rjmp	.+4      	; 0x1f30 <menu+0x3dc>
						else
							menu_display_h[10] = ' ';
    1f2c:	f6 01       	movw	r30, r12
    1f2e:	42 86       	std	Z+10, r4	; 0x0a
						if (mixing_val_1 & VTAIL)
    1f30:	86 ff       	sbrs	r24, 6
    1f32:	06 c0       	rjmp	.+12     	; 0x1f40 <menu+0x3ec>
							menu_display_l[10] = 'V';
    1f34:	f7 01       	movw	r30, r14
    1f36:	32 86       	std	Z+10, r3	; 0x0a
					// Display & stat /////////////
					if (menu_input == 0)
					{
						// Display init
						menu_display_h = ">Elevon         ";
						menu_display_l = " Vtail          ";
    1f38:	87 01       	movw	r16, r14
					
					// Display & stat /////////////
					if (menu_input == 0)
					{
						// Display init
						menu_display_h = ">Elevon         ";
    1f3a:	da 82       	std	Y+2, r13	; 0x02
    1f3c:	c9 82       	std	Y+1, r12	; 0x01
    1f3e:	de c0       	rjmp	.+444    	; 0x20fc <menu+0x5a8>
						else
							menu_display_h[10] = ' ';
						if (mixing_val_1 & VTAIL)
							menu_display_l[10] = 'V';
						else
							menu_display_l[10] = ' ';
    1f40:	f7 01       	movw	r30, r14
    1f42:	42 86       	std	Z+10, r4	; 0x0a
					// Display & stat /////////////
					if (menu_input == 0)
					{
						// Display init
						menu_display_h = ">Elevon         ";
						menu_display_l = " Vtail          ";
    1f44:	87 01       	movw	r16, r14
					
					// Display & stat /////////////
					if (menu_input == 0)
					{
						// Display init
						menu_display_h = ">Elevon         ";
    1f46:	da 82       	std	Y+2, r13	; 0x02
    1f48:	c9 82       	std	Y+1, r12	; 0x01
    1f4a:	d8 c0       	rjmp	.+432    	; 0x20fc <menu+0x5a8>
							menu_display_l[10] = 'V';
						else
							menu_display_l[10] = ' ';
						
					}
					else if (menu_input == 1)
    1f4c:	91 30       	cpi	r25, 0x01	; 1
    1f4e:	51 f5       	brne	.+84     	; 0x1fa4 <menu+0x450>
					{
						// Display init
						menu_display_h = " Elevon         ";
						menu_display_l = ">Vtail          ";
						
						if ((enter) && !(mixing_val_1 & ELEVON))
    1f50:	88 23       	and	r24, r24
    1f52:	69 f0       	breq	.+26     	; 0x1f6e <menu+0x41a>
    1f54:	80 91 db 05 	lds	r24, 0x05DB	; 0x8005db <mixing_val_1>
    1f58:	85 fd       	sbrc	r24, 5
    1f5a:	0d c0       	rjmp	.+26     	; 0x1f76 <menu+0x422>
						{
							if (mixing_val_1 & VTAIL)
    1f5c:	86 ff       	sbrs	r24, 6
    1f5e:	04 c0       	rjmp	.+8      	; 0x1f68 <menu+0x414>
								mixing_val_1 &= ~VTAIL;
    1f60:	8f 7b       	andi	r24, 0xBF	; 191
    1f62:	80 93 db 05 	sts	0x05DB, r24	; 0x8005db <mixing_val_1>
    1f66:	03 c0       	rjmp	.+6      	; 0x1f6e <menu+0x41a>
							else
								mixing_val_1 |= VTAIL;
    1f68:	80 64       	ori	r24, 0x40	; 64
    1f6a:	80 93 db 05 	sts	0x05DB, r24	; 0x8005db <mixing_val_1>
						}
						
						if (mixing_val_1 & ELEVON)
    1f6e:	80 91 db 05 	lds	r24, 0x05DB	; 0x8005db <mixing_val_1>
    1f72:	85 ff       	sbrs	r24, 5
    1f74:	03 c0       	rjmp	.+6      	; 0x1f7c <menu+0x428>
							menu_display_h[10] = 'V';
    1f76:	30 92 c6 01 	sts	0x01C6, r3	; 0x8001c6 <battery_alarm+0x82>
    1f7a:	02 c0       	rjmp	.+4      	; 0x1f80 <menu+0x42c>
						else
							menu_display_h[10] = ' ';
    1f7c:	40 92 c6 01 	sts	0x01C6, r4	; 0x8001c6 <battery_alarm+0x82>
						if (mixing_val_1 & VTAIL)
    1f80:	86 ff       	sbrs	r24, 6
    1f82:	08 c0       	rjmp	.+16     	; 0x1f94 <menu+0x440>
							menu_display_l[10] = 'V';
    1f84:	f5 01       	movw	r30, r10
    1f86:	32 86       	std	Z+10, r3	; 0x0a
					}
					else if (menu_input == 1)
					{
						// Display init
						menu_display_h = " Elevon         ";
						menu_display_l = ">Vtail          ";
    1f88:	85 01       	movw	r16, r10
						
					}
					else if (menu_input == 1)
					{
						// Display init
						menu_display_h = " Elevon         ";
    1f8a:	2c eb       	ldi	r18, 0xBC	; 188
    1f8c:	31 e0       	ldi	r19, 0x01	; 1
    1f8e:	3a 83       	std	Y+2, r19	; 0x02
    1f90:	29 83       	std	Y+1, r18	; 0x01
    1f92:	b4 c0       	rjmp	.+360    	; 0x20fc <menu+0x5a8>
						else
							menu_display_h[10] = ' ';
						if (mixing_val_1 & VTAIL)
							menu_display_l[10] = 'V';
						else
							menu_display_l[10] = ' ';
    1f94:	f5 01       	movw	r30, r10
    1f96:	42 86       	std	Z+10, r4	; 0x0a
					}
					else if (menu_input == 1)
					{
						// Display init
						menu_display_h = " Elevon         ";
						menu_display_l = ">Vtail          ";
    1f98:	85 01       	movw	r16, r10
						
					}
					else if (menu_input == 1)
					{
						// Display init
						menu_display_h = " Elevon         ";
    1f9a:	2c eb       	ldi	r18, 0xBC	; 188
    1f9c:	31 e0       	ldi	r19, 0x01	; 1
    1f9e:	3a 83       	std	Y+2, r19	; 0x02
    1fa0:	29 83       	std	Y+1, r18	; 0x01
    1fa2:	ac c0       	rjmp	.+344    	; 0x20fc <menu+0x5a8>
							menu_display_l[10] = 'V';
						else
							menu_display_l[10] = ' ';
							
					}
					else if (menu_input == 2)
    1fa4:	92 30       	cpi	r25, 0x02	; 2
    1fa6:	31 f5       	brne	.+76     	; 0x1ff4 <menu+0x4a0>
					{
						// Display init
						menu_display_h = " Vtail          ";
						menu_display_l = ">Diff Thrust    ";
						
						if (enter)
    1fa8:	88 23       	and	r24, r24
    1faa:	59 f0       	breq	.+22     	; 0x1fc2 <menu+0x46e>
						{
							if (mixing_val_1 & DIFF_THRUST)
    1fac:	80 91 db 05 	lds	r24, 0x05DB	; 0x8005db <mixing_val_1>
    1fb0:	84 ff       	sbrs	r24, 4
    1fb2:	04 c0       	rjmp	.+8      	; 0x1fbc <menu+0x468>
								mixing_val_1 &= ~DIFF_THRUST;
    1fb4:	8f 7e       	andi	r24, 0xEF	; 239
    1fb6:	80 93 db 05 	sts	0x05DB, r24	; 0x8005db <mixing_val_1>
    1fba:	03 c0       	rjmp	.+6      	; 0x1fc2 <menu+0x46e>
							else
								mixing_val_1 |= DIFF_THRUST;
    1fbc:	80 61       	ori	r24, 0x10	; 16
    1fbe:	80 93 db 05 	sts	0x05DB, r24	; 0x8005db <mixing_val_1>
						}
						
						if (mixing_val_1 & VTAIL)
    1fc2:	80 91 db 05 	lds	r24, 0x05DB	; 0x8005db <mixing_val_1>
    1fc6:	86 ff       	sbrs	r24, 6
    1fc8:	03 c0       	rjmp	.+6      	; 0x1fd0 <menu+0x47c>
							menu_display_h[10] = 'V';
    1fca:	f7 01       	movw	r30, r14
    1fcc:	32 86       	std	Z+10, r3	; 0x0a
    1fce:	02 c0       	rjmp	.+4      	; 0x1fd4 <menu+0x480>
						else
							menu_display_h[10] = ' ';
    1fd0:	f7 01       	movw	r30, r14
    1fd2:	42 86       	std	Z+10, r4	; 0x0a
						if (mixing_val_1 & DIFF_THRUST)
    1fd4:	84 ff       	sbrs	r24, 4
    1fd6:	07 c0       	rjmp	.+14     	; 0x1fe6 <menu+0x492>
							menu_display_l[13] = 'V';
    1fd8:	30 92 da 01 	sts	0x01DA, r3	; 0x8001da <battery_alarm+0x96>
					}
					else if (menu_input == 2)
					{
						// Display init
						menu_display_h = " Vtail          ";
						menu_display_l = ">Diff Thrust    ";
    1fdc:	0d ec       	ldi	r16, 0xCD	; 205
    1fde:	11 e0       	ldi	r17, 0x01	; 1
							
					}
					else if (menu_input == 2)
					{
						// Display init
						menu_display_h = " Vtail          ";
    1fe0:	fa 82       	std	Y+2, r15	; 0x02
    1fe2:	e9 82       	std	Y+1, r14	; 0x01
    1fe4:	8b c0       	rjmp	.+278    	; 0x20fc <menu+0x5a8>
						else
							menu_display_h[10] = ' ';
						if (mixing_val_1 & DIFF_THRUST)
							menu_display_l[13] = 'V';
						else
							menu_display_l[13] = ' ';
    1fe6:	40 92 da 01 	sts	0x01DA, r4	; 0x8001da <battery_alarm+0x96>
					}
					else if (menu_input == 2)
					{
						// Display init
						menu_display_h = " Vtail          ";
						menu_display_l = ">Diff Thrust    ";
    1fea:	0d ec       	ldi	r16, 0xCD	; 205
    1fec:	11 e0       	ldi	r17, 0x01	; 1
							
					}
					else if (menu_input == 2)
					{
						// Display init
						menu_display_h = " Vtail          ";
    1fee:	fa 82       	std	Y+2, r15	; 0x02
    1ff0:	e9 82       	std	Y+1, r14	; 0x01
    1ff2:	84 c0       	rjmp	.+264    	; 0x20fc <menu+0x5a8>
							menu_display_l[13] = 'V';
						else
							menu_display_l[13] = ' ';
						
					}
					else if (menu_input == 3)
    1ff4:	93 30       	cpi	r25, 0x03	; 3
    1ff6:	51 f5       	brne	.+84     	; 0x204c <menu+0x4f8>
					{
						// Display init
						menu_display_h = " Diff Thrust    ";
						menu_display_l = ">Flaperon       ";
						
						if (enter)
    1ff8:	88 23       	and	r24, r24
    1ffa:	59 f0       	breq	.+22     	; 0x2012 <menu+0x4be>
						{
							if (mixing_val_1 & FLAPERON)
    1ffc:	80 91 db 05 	lds	r24, 0x05DB	; 0x8005db <mixing_val_1>
    2000:	88 23       	and	r24, r24
    2002:	24 f4       	brge	.+8      	; 0x200c <menu+0x4b8>
								mixing_val_1 &= ~FLAPERON;
    2004:	8f 77       	andi	r24, 0x7F	; 127
    2006:	80 93 db 05 	sts	0x05DB, r24	; 0x8005db <mixing_val_1>
    200a:	03 c0       	rjmp	.+6      	; 0x2012 <menu+0x4be>
							else
								mixing_val_1 |= FLAPERON;
    200c:	80 68       	ori	r24, 0x80	; 128
    200e:	80 93 db 05 	sts	0x05DB, r24	; 0x8005db <mixing_val_1>
						}
						
						if (mixing_val_1 & DIFF_THRUST)
    2012:	80 91 db 05 	lds	r24, 0x05DB	; 0x8005db <mixing_val_1>
    2016:	84 ff       	sbrs	r24, 4
    2018:	03 c0       	rjmp	.+6      	; 0x2020 <menu+0x4cc>
							menu_display_h[13] = 'V';
    201a:	30 92 fc 01 	sts	0x01FC, r3	; 0x8001fc <battery_alarm+0xb8>
    201e:	02 c0       	rjmp	.+4      	; 0x2024 <menu+0x4d0>
						else
							menu_display_h[13] = ' ';
    2020:	40 92 fc 01 	sts	0x01FC, r4	; 0x8001fc <battery_alarm+0xb8>
						if (mixing_val_1 & FLAPERON)
    2024:	88 23       	and	r24, r24
    2026:	4c f4       	brge	.+18     	; 0x203a <menu+0x4e6>
							menu_display_l[10] = 'V';
    2028:	30 92 e8 01 	sts	0x01E8, r3	; 0x8001e8 <battery_alarm+0xa4>
					}
					else if (menu_input == 3)
					{
						// Display init
						menu_display_h = " Diff Thrust    ";
						menu_display_l = ">Flaperon       ";
    202c:	0e ed       	ldi	r16, 0xDE	; 222
    202e:	11 e0       	ldi	r17, 0x01	; 1
						
					}
					else if (menu_input == 3)
					{
						// Display init
						menu_display_h = " Diff Thrust    ";
    2030:	2f ee       	ldi	r18, 0xEF	; 239
    2032:	31 e0       	ldi	r19, 0x01	; 1
    2034:	3a 83       	std	Y+2, r19	; 0x02
    2036:	29 83       	std	Y+1, r18	; 0x01
    2038:	61 c0       	rjmp	.+194    	; 0x20fc <menu+0x5a8>
						else
							menu_display_h[13] = ' ';
						if (mixing_val_1 & FLAPERON)
							menu_display_l[10] = 'V';
						else
							menu_display_l[10] = ' ';
    203a:	40 92 e8 01 	sts	0x01E8, r4	; 0x8001e8 <battery_alarm+0xa4>
					}
					else if (menu_input == 3)
					{
						// Display init
						menu_display_h = " Diff Thrust    ";
						menu_display_l = ">Flaperon       ";
    203e:	0e ed       	ldi	r16, 0xDE	; 222
    2040:	11 e0       	ldi	r17, 0x01	; 1
						
					}
					else if (menu_input == 3)
					{
						// Display init
						menu_display_h = " Diff Thrust    ";
    2042:	8f ee       	ldi	r24, 0xEF	; 239
    2044:	91 e0       	ldi	r25, 0x01	; 1
    2046:	9a 83       	std	Y+2, r25	; 0x02
    2048:	89 83       	std	Y+1, r24	; 0x01
    204a:	58 c0       	rjmp	.+176    	; 0x20fc <menu+0x5a8>
							menu_display_l[10] = 'V';
						else
							menu_display_l[10] = ' ';
						
					}
					else if (menu_input == 4)
    204c:	94 30       	cpi	r25, 0x04	; 4
    204e:	81 f5       	brne	.+96     	; 0x20b0 <menu+0x55c>
					{
						// Display init
						menu_display_h = " Flaperon       ";
						menu_display_l = ">User           ";
						
						if (enter)
    2050:	88 23       	and	r24, r24
    2052:	79 f0       	breq	.+30     	; 0x2072 <menu+0x51e>
						{
							if (mixing_val_3 & USER_MIX)
    2054:	80 91 d6 05 	lds	r24, 0x05D6	; 0x8005d6 <mixing_val_3>
    2058:	86 ff       	sbrs	r24, 6
    205a:	06 c0       	rjmp	.+12     	; 0x2068 <menu+0x514>
								mixing_val_3 &= ~USER_MIX;
    205c:	80 91 d6 05 	lds	r24, 0x05D6	; 0x8005d6 <mixing_val_3>
    2060:	8f 7b       	andi	r24, 0xBF	; 191
    2062:	80 93 d6 05 	sts	0x05D6, r24	; 0x8005d6 <mixing_val_3>
    2066:	05 c0       	rjmp	.+10     	; 0x2072 <menu+0x51e>
							else
								mixing_val_3 |= USER_MIX;
    2068:	80 91 d6 05 	lds	r24, 0x05D6	; 0x8005d6 <mixing_val_3>
    206c:	80 64       	ori	r24, 0x40	; 64
    206e:	80 93 d6 05 	sts	0x05D6, r24	; 0x8005d6 <mixing_val_3>
						}
						
						if (mixing_val_1 & FLAPERON)
    2072:	80 91 db 05 	lds	r24, 0x05DB	; 0x8005db <mixing_val_1>
    2076:	88 23       	and	r24, r24
    2078:	1c f4       	brge	.+6      	; 0x2080 <menu+0x52c>
							menu_display_h[10] = 'V';
    207a:	30 92 1b 02 	sts	0x021B, r3	; 0x80021b <battery_alarm+0xd7>
    207e:	02 c0       	rjmp	.+4      	; 0x2084 <menu+0x530>
						else
							menu_display_h[10] = ' ';
    2080:	40 92 1b 02 	sts	0x021B, r4	; 0x80021b <battery_alarm+0xd7>
						if (mixing_val_3 & USER_MIX)
    2084:	80 91 d6 05 	lds	r24, 0x05D6	; 0x8005d6 <mixing_val_3>
    2088:	86 ff       	sbrs	r24, 6
    208a:	09 c0       	rjmp	.+18     	; 0x209e <menu+0x54a>
							menu_display_l[10] = 'V';
    208c:	30 92 0a 02 	sts	0x020A, r3	; 0x80020a <battery_alarm+0xc6>
					}
					else if (menu_input == 4)
					{
						// Display init
						menu_display_h = " Flaperon       ";
						menu_display_l = ">User           ";
    2090:	00 e0       	ldi	r16, 0x00	; 0
    2092:	12 e0       	ldi	r17, 0x02	; 2
						
					}
					else if (menu_input == 4)
					{
						// Display init
						menu_display_h = " Flaperon       ";
    2094:	e1 e1       	ldi	r30, 0x11	; 17
    2096:	f2 e0       	ldi	r31, 0x02	; 2
    2098:	fa 83       	std	Y+2, r31	; 0x02
    209a:	e9 83       	std	Y+1, r30	; 0x01
    209c:	2f c0       	rjmp	.+94     	; 0x20fc <menu+0x5a8>
						else
							menu_display_h[10] = ' ';
						if (mixing_val_3 & USER_MIX)
							menu_display_l[10] = 'V';
						else
							menu_display_l[10] = ' ';
    209e:	40 92 0a 02 	sts	0x020A, r4	; 0x80020a <battery_alarm+0xc6>
					}
					else if (menu_input == 4)
					{
						// Display init
						menu_display_h = " Flaperon       ";
						menu_display_l = ">User           ";
    20a2:	00 e0       	ldi	r16, 0x00	; 0
    20a4:	12 e0       	ldi	r17, 0x02	; 2
						
					}
					else if (menu_input == 4)
					{
						// Display init
						menu_display_h = " Flaperon       ";
    20a6:	21 e1       	ldi	r18, 0x11	; 17
    20a8:	32 e0       	ldi	r19, 0x02	; 2
    20aa:	3a 83       	std	Y+2, r19	; 0x02
    20ac:	29 83       	std	Y+1, r18	; 0x01
    20ae:	26 c0       	rjmp	.+76     	; 0x20fc <menu+0x5a8>
							menu_display_l[10] = 'V';
						else
							menu_display_l[10] = ' ';
						
					}
					else if (menu_input == 5)
    20b0:	95 30       	cpi	r25, 0x05	; 5
    20b2:	21 f5       	brne	.+72     	; 0x20fc <menu+0x5a8>
					{
						// Display init
						menu_display_h = " User           ";
						menu_display_l = ">Exit           ";
						
						if (enter)
    20b4:	88 23       	and	r24, r24
    20b6:	69 f0       	breq	.+26     	; 0x20d2 <menu+0x57e>
						{
							menu_input = menu_input_temp;
    20b8:	81 e0       	ldi	r24, 0x01	; 1
    20ba:	80 93 ce 05 	sts	0x05CE, r24	; 0x8005ce <menu_input>
					}
					else if (menu_input == 5)
					{
						// Display init
						menu_display_h = " User           ";
						menu_display_l = ">Exit           ";
    20be:	0f 2e       	mov	r0, r31
    20c0:	f2 e2       	ldi	r31, 0x22	; 34
    20c2:	2f 2e       	mov	r2, r31
    20c4:	f2 e0       	ldi	r31, 0x02	; 2
    20c6:	3f 2e       	mov	r3, r31
    20c8:	f0 2d       	mov	r31, r0
						
					}
					else if (menu_input == 5)
					{
						// Display init
						menu_display_h = " User           ";
    20ca:	03 e3       	ldi	r16, 0x33	; 51
    20cc:	12 e0       	ldi	r17, 0x02	; 2
						menu_display_l = ">Exit           ";
						
						if (enter)
						{
							menu_input = menu_input_temp;
							break;
    20ce:	0c 94 79 20 	jmp	0x40f2	; 0x40f2 <menu+0x259e>
						}
						
						if (mixing_val_1 & USER_MIX)
    20d2:	80 91 db 05 	lds	r24, 0x05DB	; 0x8005db <mixing_val_1>
    20d6:	86 ff       	sbrs	r24, 6
    20d8:	09 c0       	rjmp	.+18     	; 0x20ec <menu+0x598>
							menu_display_h[10] = 'V';
    20da:	30 92 3d 02 	sts	0x023D, r3	; 0x80023d <battery_alarm+0xf9>
					}
					else if (menu_input == 5)
					{
						// Display init
						menu_display_h = " User           ";
						menu_display_l = ">Exit           ";
    20de:	02 e2       	ldi	r16, 0x22	; 34
    20e0:	12 e0       	ldi	r17, 0x02	; 2
						
					}
					else if (menu_input == 5)
					{
						// Display init
						menu_display_h = " User           ";
    20e2:	83 e3       	ldi	r24, 0x33	; 51
    20e4:	92 e0       	ldi	r25, 0x02	; 2
    20e6:	9a 83       	std	Y+2, r25	; 0x02
    20e8:	89 83       	std	Y+1, r24	; 0x01
    20ea:	08 c0       	rjmp	.+16     	; 0x20fc <menu+0x5a8>
						}
						
						if (mixing_val_1 & USER_MIX)
							menu_display_h[10] = 'V';
						else
							menu_display_h[10] = ' ';
    20ec:	40 92 3d 02 	sts	0x023D, r4	; 0x80023d <battery_alarm+0xf9>
					}
					else if (menu_input == 5)
					{
						// Display init
						menu_display_h = " User           ";
						menu_display_l = ">Exit           ";
    20f0:	02 e2       	ldi	r16, 0x22	; 34
    20f2:	12 e0       	ldi	r17, 0x02	; 2
						
					}
					else if (menu_input == 5)
					{
						// Display init
						menu_display_h = " User           ";
    20f4:	e3 e3       	ldi	r30, 0x33	; 51
    20f6:	f2 e0       	ldi	r31, 0x02	; 2
    20f8:	fa 83       	std	Y+2, r31	; 0x02
    20fa:	e9 83       	std	Y+1, r30	; 0x01
						
					}
					
					
					// LCD drive
					LCD_string(menu_display_h, 16);
    20fc:	60 e1       	ldi	r22, 0x10	; 16
    20fe:	89 81       	ldd	r24, Y+1	; 0x01
    2100:	9a 81       	ldd	r25, Y+2	; 0x02
    2102:	0e 94 db 01 	call	0x3b6	; 0x3b6 <LCD_string>
					LCD_NWL();
    2106:	0e 94 5c 02 	call	0x4b8	; 0x4b8 <LCD_NWL>
					LCD_string(menu_display_l, 16);
    210a:	60 e1       	ldi	r22, 0x10	; 16
    210c:	c8 01       	movw	r24, r16
    210e:	0e 94 db 01 	call	0x3b6	; 0x3b6 <LCD_string>
					LCD_home();
    2112:	0e 94 6a 02 	call	0x4d4	; 0x4d4 <LCD_home>
					
					// Buzzer drive
					buzzer_switch();
    2116:	0e 94 1b 09 	call	0x1236	; 0x1236 <buzzer_switch>
					
				} // while (1)
    211a:	e1 ce       	rjmp	.-574    	; 0x1ede <menu+0x38a>
			} // if (enter)
		} // else if (menu_input == 1)
	
		
		////////// Channel Reverse ///////////////////////////////////////////////
		else if (menu_input == 2)
    211c:	92 30       	cpi	r25, 0x02	; 2
    211e:	09 f0       	breq	.+2      	; 0x2122 <menu+0x5ce>
    2120:	f5 c0       	rjmp	.+490    	; 0x230c <menu+0x7b8>
		{
			// Display
			menu_display_h = " Mixing         ";
			menu_display_l = ">Reverse        ";
			
			if (enter)
    2122:	88 23       	and	r24, r24
    2124:	11 f4       	brne	.+4      	; 0x212a <menu+0x5d6>
    2126:	0c 94 17 20 	jmp	0x402e	; 0x402e <menu+0x24da>
			{
				// Cursor init
				menu_input_temp = menu_input;
				menu_input = 0;
    212a:	10 92 ce 05 	sts	0x05CE, r1	; 0x8005ce <menu_input>
				LCD_CLEAR();
    212e:	0e 94 60 02 	call	0x4c0	; 0x4c0 <LCD_CLEAR>
							menu_display_l[5] = 'N';
						// CH5
						if (mixing_val_1 & REVERSE_CH5)
							menu_display_l[14] = 'R';
						else
							menu_display_l[14] = 'N';
    2132:	0f 2e       	mov	r0, r31
    2134:	fe e4       	ldi	r31, 0x4E	; 78
    2136:	cf 2e       	mov	r12, r31
    2138:	f0 2d       	mov	r31, r0
					
					// Display init & stat ////////////
					if (menu_input < 4)
					{
						// Display init
						menu_display_h = " Ail     Ele    ";
    213a:	0f 2e       	mov	r0, r31
    213c:	f5 e5       	ldi	r31, 0x55	; 85
    213e:	ef 2e       	mov	r14, r31
    2140:	f2 e0       	ldi	r31, 0x02	; 2
    2142:	ff 2e       	mov	r15, r31
    2144:	f0 2d       	mov	r31, r0
							menu_display_l[5] = 'R';
						else
							menu_display_l[5] = 'N';
						// CH5
						if (mixing_val_1 & REVERSE_CH5)
							menu_display_l[14] = 'R';
    2146:	0f 2e       	mov	r0, r31
    2148:	f2 e5       	ldi	r31, 0x52	; 82
    214a:	4f 2e       	mov	r4, r31
    214c:	f0 2d       	mov	r31, r0
					// Cursor limit
					enter = menu_read();
					if (menu_input < 0)
						menu_input = 0;
					else if (menu_input > 4)
						menu_input = 4;
    214e:	68 94       	set
    2150:	dd 24       	eor	r13, r13
    2152:	d2 f8       	bld	r13, 2
							else
								mixing_val_1 |= REVERSE_CH5;
						}
					}
					else
						menu_display_l[8] = ' ';
    2154:	68 94       	set
    2156:	bb 24       	eor	r11, r11
    2158:	b5 f8       	bld	r11, 5
					// Exit
					if (menu_input == 4)
					{
						// Cursor move
						menu_display_h[8] = ' ';
						menu_display_l[0] = '>';
    215a:	0f 2e       	mov	r0, r31
    215c:	fe e3       	ldi	r31, 0x3E	; 62
    215e:	af 2e       	mov	r10, r31
    2160:	f0 2d       	mov	r31, r0
				LCD_CLEAR();
				
				while (1)
				{
					// Cursor limit
					enter = menu_read();
    2162:	0e 94 fd 05 	call	0xbfa	; 0xbfa <menu_read>
					if (menu_input < 0)
    2166:	90 91 ce 05 	lds	r25, 0x05CE	; 0x8005ce <menu_input>
    216a:	99 23       	and	r25, r25
    216c:	1c f4       	brge	.+6      	; 0x2174 <menu+0x620>
						menu_input = 0;
    216e:	10 92 ce 05 	sts	0x05CE, r1	; 0x8005ce <menu_input>
    2172:	07 c0       	rjmp	.+14     	; 0x2182 <menu+0x62e>
					else if (menu_input > 4)
    2174:	95 30       	cpi	r25, 0x05	; 5
    2176:	1c f0       	brlt	.+6      	; 0x217e <menu+0x62a>
						menu_input = 4;
    2178:	d0 92 ce 05 	sts	0x05CE, r13	; 0x8005ce <menu_input>
    217c:	2f c0       	rjmp	.+94     	; 0x21dc <menu+0x688>
					
					
					// Display init & stat ////////////
					if (menu_input < 4)
    217e:	94 30       	cpi	r25, 0x04	; 4
    2180:	6c f5       	brge	.+90     	; 0x21dc <menu+0x688>
						// Display init
						menu_display_h = " Ail     Ele    ";
						menu_display_l = " Rud     CH5    ";
						
						// Aileron
						if (mixing_val_1 & REVERSE_AIL)
    2182:	90 91 db 05 	lds	r25, 0x05DB	; 0x8005db <mixing_val_1>
    2186:	90 ff       	sbrs	r25, 0
    2188:	03 c0       	rjmp	.+6      	; 0x2190 <menu+0x63c>
							menu_display_h[5] = 'R';
    218a:	f7 01       	movw	r30, r14
    218c:	45 82       	std	Z+5, r4	; 0x05
    218e:	02 c0       	rjmp	.+4      	; 0x2194 <menu+0x640>
						else
							menu_display_h[5] = 'N';
    2190:	f7 01       	movw	r30, r14
    2192:	c5 82       	std	Z+5, r12	; 0x05
						// Elevator
						if (mixing_val_1 & REVERSE_ELE)
    2194:	91 ff       	sbrs	r25, 1
    2196:	03 c0       	rjmp	.+6      	; 0x219e <menu+0x64a>
							menu_display_h[14] = 'R';
    2198:	f7 01       	movw	r30, r14
    219a:	46 86       	std	Z+14, r4	; 0x0e
    219c:	02 c0       	rjmp	.+4      	; 0x21a2 <menu+0x64e>
						else
							menu_display_h[14] = 'N';
    219e:	f7 01       	movw	r30, r14
    21a0:	c6 86       	std	Z+14, r12	; 0x0e
						// Rudder
						if (mixing_val_1 & REVERSE_RUD)
    21a2:	92 ff       	sbrs	r25, 2
    21a4:	03 c0       	rjmp	.+6      	; 0x21ac <menu+0x658>
							menu_display_l[5] = 'R';
    21a6:	40 92 49 02 	sts	0x0249, r4	; 0x800249 <battery_alarm+0x105>
    21aa:	02 c0       	rjmp	.+4      	; 0x21b0 <menu+0x65c>
						else
							menu_display_l[5] = 'N';
    21ac:	c0 92 49 02 	sts	0x0249, r12	; 0x800249 <battery_alarm+0x105>
						// CH5
						if (mixing_val_1 & REVERSE_CH5)
    21b0:	93 ff       	sbrs	r25, 3
    21b2:	0a c0       	rjmp	.+20     	; 0x21c8 <menu+0x674>
							menu_display_l[14] = 'R';
    21b4:	40 92 52 02 	sts	0x0252, r4	; 0x800252 <battery_alarm+0x10e>
					// Display init & stat ////////////
					if (menu_input < 4)
					{
						// Display init
						menu_display_h = " Ail     Ele    ";
						menu_display_l = " Rud     CH5    ";
    21b8:	0f 2e       	mov	r0, r31
    21ba:	f4 e4       	ldi	r31, 0x44	; 68
    21bc:	2f 2e       	mov	r2, r31
    21be:	f2 e0       	ldi	r31, 0x02	; 2
    21c0:	3f 2e       	mov	r3, r31
    21c2:	f0 2d       	mov	r31, r0
					
					// Display init & stat ////////////
					if (menu_input < 4)
					{
						// Display init
						menu_display_h = " Ail     Ele    ";
    21c4:	87 01       	movw	r16, r14
    21c6:	2a c0       	rjmp	.+84     	; 0x221c <menu+0x6c8>
							menu_display_l[5] = 'N';
						// CH5
						if (mixing_val_1 & REVERSE_CH5)
							menu_display_l[14] = 'R';
						else
							menu_display_l[14] = 'N';
    21c8:	c0 92 52 02 	sts	0x0252, r12	; 0x800252 <battery_alarm+0x10e>
					// Display init & stat ////////////
					if (menu_input < 4)
					{
						// Display init
						menu_display_h = " Ail     Ele    ";
						menu_display_l = " Rud     CH5    ";
    21cc:	0f 2e       	mov	r0, r31
    21ce:	f4 e4       	ldi	r31, 0x44	; 68
    21d0:	2f 2e       	mov	r2, r31
    21d2:	f2 e0       	ldi	r31, 0x02	; 2
    21d4:	3f 2e       	mov	r3, r31
    21d6:	f0 2d       	mov	r31, r0
					
					// Display init & stat ////////////
					if (menu_input < 4)
					{
						// Display init
						menu_display_h = " Ail     Ele    ";
    21d8:	87 01       	movw	r16, r14
    21da:	20 c0       	rjmp	.+64     	; 0x221c <menu+0x6c8>
						// Display init
						menu_display_h = " Rud     CH5    ";
						menu_display_l = " Exit           ";
						
						// Aileron
						if (mixing_val_1 & REVERSE_RUD)
    21dc:	90 91 db 05 	lds	r25, 0x05DB	; 0x8005db <mixing_val_1>
    21e0:	92 ff       	sbrs	r25, 2
    21e2:	03 c0       	rjmp	.+6      	; 0x21ea <menu+0x696>
							menu_display_h[5] = 'R';
    21e4:	40 92 49 02 	sts	0x0249, r4	; 0x800249 <battery_alarm+0x105>
    21e8:	02 c0       	rjmp	.+4      	; 0x21ee <menu+0x69a>
						else
							menu_display_h[5] = 'N';
    21ea:	c0 92 49 02 	sts	0x0249, r12	; 0x800249 <battery_alarm+0x105>
						// Elevator
						if (mixing_val_1 & REVERSE_CH5)
    21ee:	93 ff       	sbrs	r25, 3
    21f0:	0b c0       	rjmp	.+22     	; 0x2208 <menu+0x6b4>
							menu_display_h[14] = 'R';
    21f2:	40 92 52 02 	sts	0x0252, r4	; 0x800252 <battery_alarm+0x10e>
					}
					else
					{
						// Display init
						menu_display_h = " Rud     CH5    ";
						menu_display_l = " Exit           ";
    21f6:	0f 2e       	mov	r0, r31
    21f8:	f6 e6       	ldi	r31, 0x66	; 102
    21fa:	2f 2e       	mov	r2, r31
    21fc:	f2 e0       	ldi	r31, 0x02	; 2
    21fe:	3f 2e       	mov	r3, r31
    2200:	f0 2d       	mov	r31, r0
							menu_display_l[14] = 'N';
					}
					else
					{
						// Display init
						menu_display_h = " Rud     CH5    ";
    2202:	04 e4       	ldi	r16, 0x44	; 68
    2204:	12 e0       	ldi	r17, 0x02	; 2
    2206:	0a c0       	rjmp	.+20     	; 0x221c <menu+0x6c8>
							menu_display_h[5] = 'N';
						// Elevator
						if (mixing_val_1 & REVERSE_CH5)
							menu_display_h[14] = 'R';
						else
							menu_display_h[14] = 'N';
    2208:	c0 92 52 02 	sts	0x0252, r12	; 0x800252 <battery_alarm+0x10e>
					}
					else
					{
						// Display init
						menu_display_h = " Rud     CH5    ";
						menu_display_l = " Exit           ";
    220c:	0f 2e       	mov	r0, r31
    220e:	f6 e6       	ldi	r31, 0x66	; 102
    2210:	2f 2e       	mov	r2, r31
    2212:	f2 e0       	ldi	r31, 0x02	; 2
    2214:	3f 2e       	mov	r3, r31
    2216:	f0 2d       	mov	r31, r0
							menu_display_l[14] = 'N';
					}
					else
					{
						// Display init
						menu_display_h = " Rud     CH5    ";
    2218:	04 e4       	ldi	r16, 0x44	; 68
    221a:	12 e0       	ldi	r17, 0x02	; 2
					}
					
					
					// Cursor move & val set //////////
					// Aileron
					if (menu_input == 0)
    221c:	90 91 ce 05 	lds	r25, 0x05CE	; 0x8005ce <menu_input>
    2220:	91 11       	cpse	r25, r1
    2222:	14 c0       	rjmp	.+40     	; 0x224c <menu+0x6f8>
					{
						// Cursor move
						menu_display_h[0] = '>';
    2224:	f8 01       	movw	r30, r16
    2226:	a0 82       	st	Z, r10
						
						if (enter)
    2228:	88 23       	and	r24, r24
    222a:	11 f4       	brne	.+4      	; 0x2230 <menu+0x6dc>
    222c:	0c 94 a4 20 	jmp	0x4148	; 0x4148 <menu+0x25f4>
						{
							if (mixing_val_1 & REVERSE_AIL)
    2230:	20 91 db 05 	lds	r18, 0x05DB	; 0x8005db <mixing_val_1>
    2234:	20 ff       	sbrs	r18, 0
    2236:	05 c0       	rjmp	.+10     	; 0x2242 <menu+0x6ee>
								mixing_val_1 &= ~REVERSE_AIL;
    2238:	2e 7f       	andi	r18, 0xFE	; 254
    223a:	20 93 db 05 	sts	0x05DB, r18	; 0x8005db <mixing_val_1>
    223e:	0c 94 a4 20 	jmp	0x4148	; 0x4148 <menu+0x25f4>
							else
								mixing_val_1 |= REVERSE_AIL;
    2242:	21 60       	ori	r18, 0x01	; 1
    2244:	20 93 db 05 	sts	0x05DB, r18	; 0x8005db <mixing_val_1>
    2248:	0c 94 a4 20 	jmp	0x4148	; 0x4148 <menu+0x25f4>
						}
					}
					else
						menu_display_h[0] = ' ';
    224c:	f8 01       	movw	r30, r16
    224e:	b0 82       	st	Z, r11
					
					
					// Elevator
					if (menu_input == 1)
    2250:	91 30       	cpi	r25, 0x01	; 1
    2252:	99 f4       	brne	.+38     	; 0x227a <menu+0x726>
					{
						// Cursor move
						menu_display_h[8] = '>';
    2254:	a0 86       	std	Z+8, r10	; 0x08
						
						if (enter)
    2256:	88 23       	and	r24, r24
    2258:	11 f4       	brne	.+4      	; 0x225e <menu+0x70a>
    225a:	0c 94 a8 20 	jmp	0x4150	; 0x4150 <menu+0x25fc>
						{
							if (mixing_val_1 & REVERSE_ELE)
    225e:	20 91 db 05 	lds	r18, 0x05DB	; 0x8005db <mixing_val_1>
    2262:	21 ff       	sbrs	r18, 1
    2264:	05 c0       	rjmp	.+10     	; 0x2270 <menu+0x71c>
								mixing_val_1 &= ~REVERSE_ELE;
    2266:	2d 7f       	andi	r18, 0xFD	; 253
    2268:	20 93 db 05 	sts	0x05DB, r18	; 0x8005db <mixing_val_1>
    226c:	0c 94 a8 20 	jmp	0x4150	; 0x4150 <menu+0x25fc>
							else
								mixing_val_1 |= REVERSE_ELE;
    2270:	22 60       	ori	r18, 0x02	; 2
    2272:	20 93 db 05 	sts	0x05DB, r18	; 0x8005db <mixing_val_1>
    2276:	0c 94 a8 20 	jmp	0x4150	; 0x4150 <menu+0x25fc>
						}
					}
					else
						menu_display_h[8] = ' ';
    227a:	f8 01       	movw	r30, r16
    227c:	b0 86       	std	Z+8, r11	; 0x08
					
					
					// Rudder
					if (menu_input == 2)
    227e:	92 30       	cpi	r25, 0x02	; 2
    2280:	a1 f4       	brne	.+40     	; 0x22aa <menu+0x756>
					{
						// Cursor move
						menu_display_l[0] = '>';
    2282:	f1 01       	movw	r30, r2
    2284:	a0 82       	st	Z, r10
						
						if (enter)
    2286:	88 23       	and	r24, r24
    2288:	11 f4       	brne	.+4      	; 0x228e <menu+0x73a>
    228a:	0c 94 ac 20 	jmp	0x4158	; 0x4158 <menu+0x2604>
						{
							if (mixing_val_1 & REVERSE_RUD)
    228e:	80 91 db 05 	lds	r24, 0x05DB	; 0x8005db <mixing_val_1>
    2292:	82 ff       	sbrs	r24, 2
    2294:	05 c0       	rjmp	.+10     	; 0x22a0 <menu+0x74c>
								mixing_val_1 &= ~REVERSE_RUD;
    2296:	8b 7f       	andi	r24, 0xFB	; 251
    2298:	80 93 db 05 	sts	0x05DB, r24	; 0x8005db <mixing_val_1>
    229c:	0c 94 ac 20 	jmp	0x4158	; 0x4158 <menu+0x2604>
							else
								mixing_val_1 |= REVERSE_RUD;
    22a0:	84 60       	ori	r24, 0x04	; 4
    22a2:	80 93 db 05 	sts	0x05DB, r24	; 0x8005db <mixing_val_1>
    22a6:	0c 94 ac 20 	jmp	0x4158	; 0x4158 <menu+0x2604>
						}
					}
					else
						menu_display_l[0] = ' ';
    22aa:	f1 01       	movw	r30, r2
    22ac:	b0 82       	st	Z, r11
					
					
					// CH5
					if (menu_input == 3)
    22ae:	93 30       	cpi	r25, 0x03	; 3
    22b0:	79 f4       	brne	.+30     	; 0x22d0 <menu+0x77c>
					{
						// Cursor move
						menu_display_l[8] = '>';
    22b2:	a0 86       	std	Z+8, r10	; 0x08
						
						if (enter)
    22b4:	88 23       	and	r24, r24
    22b6:	d9 f0       	breq	.+54     	; 0x22ee <menu+0x79a>
						{
							if (mixing_val_1 & REVERSE_CH5)
    22b8:	80 91 db 05 	lds	r24, 0x05DB	; 0x8005db <mixing_val_1>
    22bc:	83 ff       	sbrs	r24, 3
    22be:	04 c0       	rjmp	.+8      	; 0x22c8 <menu+0x774>
								mixing_val_1 &= ~REVERSE_CH5;
    22c0:	87 7f       	andi	r24, 0xF7	; 247
    22c2:	80 93 db 05 	sts	0x05DB, r24	; 0x8005db <mixing_val_1>
    22c6:	13 c0       	rjmp	.+38     	; 0x22ee <menu+0x79a>
							else
								mixing_val_1 |= REVERSE_CH5;
    22c8:	88 60       	ori	r24, 0x08	; 8
    22ca:	80 93 db 05 	sts	0x05DB, r24	; 0x8005db <mixing_val_1>
    22ce:	0f c0       	rjmp	.+30     	; 0x22ee <menu+0x79a>
						}
					}
					else
						menu_display_l[8] = ' ';
    22d0:	f1 01       	movw	r30, r2
    22d2:	b0 86       	std	Z+8, r11	; 0x08
					
					
					// Exit
					if (menu_input == 4)
    22d4:	94 30       	cpi	r25, 0x04	; 4
    22d6:	59 f4       	brne	.+22     	; 0x22ee <menu+0x79a>
					{
						// Cursor move
						menu_display_h[8] = ' ';
    22d8:	f8 01       	movw	r30, r16
    22da:	b0 86       	std	Z+8, r11	; 0x08
						menu_display_l[0] = '>';
    22dc:	f1 01       	movw	r30, r2
    22de:	a0 82       	st	Z, r10
						menu_display_l[8] = ' ';
							
						if (enter)
    22e0:	88 23       	and	r24, r24
    22e2:	29 f0       	breq	.+10     	; 0x22ee <menu+0x79a>
						{
							menu_input = menu_input_temp;
    22e4:	82 e0       	ldi	r24, 0x02	; 2
    22e6:	80 93 ce 05 	sts	0x05CE, r24	; 0x8005ce <menu_input>
							break;
    22ea:	0c 94 79 20 	jmp	0x40f2	; 0x40f2 <menu+0x259e>
						}
					}
					*/
						
					// LCD drive
					LCD_string(menu_display_h, 16);
    22ee:	60 e1       	ldi	r22, 0x10	; 16
    22f0:	c8 01       	movw	r24, r16
    22f2:	0e 94 db 01 	call	0x3b6	; 0x3b6 <LCD_string>
					LCD_NWL();
    22f6:	0e 94 5c 02 	call	0x4b8	; 0x4b8 <LCD_NWL>
					LCD_string(menu_display_l, 16);
    22fa:	60 e1       	ldi	r22, 0x10	; 16
    22fc:	c1 01       	movw	r24, r2
    22fe:	0e 94 db 01 	call	0x3b6	; 0x3b6 <LCD_string>
					LCD_home();
    2302:	0e 94 6a 02 	call	0x4d4	; 0x4d4 <LCD_home>
					
					// Buzzer drive
					buzzer_switch();
    2306:	0e 94 1b 09 	call	0x1236	; 0x1236 <buzzer_switch>
					
					
				} // while
    230a:	2b cf       	rjmp	.-426    	; 0x2162 <menu+0x60e>
			} // if (enter)
		} // else if (menu_input == 2)
		
		
		////////// Dual Rate /////////////////////////////////////////////////////
		else if (menu_input == 3)
    230c:	93 30       	cpi	r25, 0x03	; 3
    230e:	09 f0       	breq	.+2      	; 0x2312 <menu+0x7be>
    2310:	fa c0       	rjmp	.+500    	; 0x2506 <menu+0x9b2>
		{
			// Display
			menu_display_h = " Reverse        ";
			menu_display_l = ">Dual Rate      ";
			
			if (enter)
    2312:	88 23       	and	r24, r24
    2314:	11 f4       	brne	.+4      	; 0x231a <menu+0x7c6>
    2316:	0c 94 20 20 	jmp	0x4040	; 0x4040 <menu+0x24ec>
			{
				menu_input_temp = menu_input;
				menu_input = 0;
    231a:	10 92 ce 05 	sts	0x05CE, r1	; 0x8005ce <menu_input>
				LCD_CLEAR();
    231e:	0e 94 60 02 	call	0x4c0	; 0x4c0 <LCD_CLEAR>
							menu_display_h[5] = 'N';
						// Elevator
						if (mixing_val_2 & CH5_DR)
							menu_display_h[14] = 'D';
						else
							menu_display_h[14] = 'N';
    2322:	0f 2e       	mov	r0, r31
    2324:	fe e4       	ldi	r31, 0x4E	; 78
    2326:	ef 2e       	mov	r14, r31
    2328:	f0 2d       	mov	r31, r0
							menu_display_h[5] = 'D';
						else
							menu_display_h[5] = 'N';
						// Elevator
						if (mixing_val_2 & CH5_DR)
							menu_display_h[14] = 'D';
    232a:	0f 2e       	mov	r0, r31
    232c:	f4 e4       	ldi	r31, 0x44	; 68
    232e:	ff 2e       	mov	r15, r31
    2330:	f0 2d       	mov	r31, r0
					
					// Display init & stat ////////////
					if (menu_input < 4)
					{
						// Display init
						menu_display_h = " Ail     Ele    ";
    2332:	0f 2e       	mov	r0, r31
    2334:	f5 e5       	ldi	r31, 0x55	; 85
    2336:	cf 2e       	mov	r12, r31
    2338:	f2 e0       	ldi	r31, 0x02	; 2
    233a:	df 2e       	mov	r13, r31
    233c:	f0 2d       	mov	r31, r0
							menu_display_h[14] = 'D';
						else
							menu_display_h[14] = 'N';
						
					}
					menu_display_h[15] = ' ';
    233e:	68 94       	set
    2340:	bb 24       	eor	r11, r11
    2342:	b5 f8       	bld	r11, 5
					// Exit
					if (menu_input == 4)
					{
						// Cursor move
						menu_display_h[8] = ' ';
						menu_display_l[0] = '>';
    2344:	0f 2e       	mov	r0, r31
    2346:	fe e3       	ldi	r31, 0x3E	; 62
    2348:	4f 2e       	mov	r4, r31
    234a:	f0 2d       	mov	r31, r0
				menu_input = 0;
				LCD_CLEAR();
				
				while (1)
				{
					enter = menu_read();
    234c:	0e 94 fd 05 	call	0xbfa	; 0xbfa <menu_read>
    2350:	a8 2e       	mov	r10, r24
					if (menu_input < 0)		// Since max # of channel is 5
    2352:	80 91 ce 05 	lds	r24, 0x05CE	; 0x8005ce <menu_input>
    2356:	88 23       	and	r24, r24
    2358:	1c f4       	brge	.+6      	; 0x2360 <menu+0x80c>
						menu_input = 0;
    235a:	10 92 ce 05 	sts	0x05CE, r1	; 0x8005ce <menu_input>
    235e:	05 c0       	rjmp	.+10     	; 0x236a <menu+0x816>
					else if (menu_input > 4)
    2360:	85 30       	cpi	r24, 0x05	; 5
    2362:	1c f0       	brlt	.+6      	; 0x236a <menu+0x816>
						menu_input = 4;
    2364:	f4 e0       	ldi	r31, 0x04	; 4
    2366:	f0 93 ce 05 	sts	0x05CE, r31	; 0x8005ce <menu_input>
					
					switch_read();
    236a:	0e 94 83 05 	call	0xb06	; 0xb06 <switch_read>
					set_switch();
    236e:	0e 94 9b 06 	call	0xd36	; 0xd36 <set_switch>
					
					// Display init & stat ////////////
					if (menu_input < 4)
    2372:	80 91 ce 05 	lds	r24, 0x05CE	; 0x8005ce <menu_input>
    2376:	84 30       	cpi	r24, 0x04	; 4
    2378:	6c f5       	brge	.+90     	; 0x23d4 <menu+0x880>
						// Display init
						menu_display_h = " Ail     Ele    ";
						menu_display_l = " Rud     CH5    ";
						
						// Aileron
						if (mixing_val_2 & AIL_DR)
    237a:	80 91 cd 05 	lds	r24, 0x05CD	; 0x8005cd <mixing_val_2>
    237e:	80 ff       	sbrs	r24, 0
    2380:	03 c0       	rjmp	.+6      	; 0x2388 <menu+0x834>
							menu_display_h[5] = 'D';
    2382:	f6 01       	movw	r30, r12
    2384:	f5 82       	std	Z+5, r15	; 0x05
    2386:	02 c0       	rjmp	.+4      	; 0x238c <menu+0x838>
						else
							menu_display_h[5] = 'N';
    2388:	f6 01       	movw	r30, r12
    238a:	e5 82       	std	Z+5, r14	; 0x05
						// Elevator
						if (mixing_val_2 & ELE_DR)
    238c:	81 ff       	sbrs	r24, 1
    238e:	03 c0       	rjmp	.+6      	; 0x2396 <menu+0x842>
							menu_display_h[14] = 'D';
    2390:	f6 01       	movw	r30, r12
    2392:	f6 86       	std	Z+14, r15	; 0x0e
    2394:	02 c0       	rjmp	.+4      	; 0x239a <menu+0x846>
						else
							menu_display_h[14] = 'N';
    2396:	f6 01       	movw	r30, r12
    2398:	e6 86       	std	Z+14, r14	; 0x0e
						// Rudder
						if (mixing_val_2 & RUD_DR)
    239a:	83 ff       	sbrs	r24, 3
    239c:	03 c0       	rjmp	.+6      	; 0x23a4 <menu+0x850>
							menu_display_l[5] = 'D';
    239e:	f0 92 49 02 	sts	0x0249, r15	; 0x800249 <battery_alarm+0x105>
    23a2:	02 c0       	rjmp	.+4      	; 0x23a8 <menu+0x854>
						else
							menu_display_l[5] = 'N';
    23a4:	e0 92 49 02 	sts	0x0249, r14	; 0x800249 <battery_alarm+0x105>
						// CH5
						if (mixing_val_2 & CH5_DR)
    23a8:	84 ff       	sbrs	r24, 4
    23aa:	0a c0       	rjmp	.+20     	; 0x23c0 <menu+0x86c>
							menu_display_l[14] = 'D';
    23ac:	f0 92 52 02 	sts	0x0252, r15	; 0x800252 <battery_alarm+0x10e>
					// Display init & stat ////////////
					if (menu_input < 4)
					{
						// Display init
						menu_display_h = " Ail     Ele    ";
						menu_display_l = " Rud     CH5    ";
    23b0:	0f 2e       	mov	r0, r31
    23b2:	f4 e4       	ldi	r31, 0x44	; 68
    23b4:	2f 2e       	mov	r2, r31
    23b6:	f2 e0       	ldi	r31, 0x02	; 2
    23b8:	3f 2e       	mov	r3, r31
    23ba:	f0 2d       	mov	r31, r0
					
					// Display init & stat ////////////
					if (menu_input < 4)
					{
						// Display init
						menu_display_h = " Ail     Ele    ";
    23bc:	86 01       	movw	r16, r12
    23be:	2a c0       	rjmp	.+84     	; 0x2414 <menu+0x8c0>
							menu_display_l[5] = 'N';
						// CH5
						if (mixing_val_2 & CH5_DR)
							menu_display_l[14] = 'D';
						else
							menu_display_l[14] = 'N';
    23c0:	e0 92 52 02 	sts	0x0252, r14	; 0x800252 <battery_alarm+0x10e>
					// Display init & stat ////////////
					if (menu_input < 4)
					{
						// Display init
						menu_display_h = " Ail     Ele    ";
						menu_display_l = " Rud     CH5    ";
    23c4:	0f 2e       	mov	r0, r31
    23c6:	f4 e4       	ldi	r31, 0x44	; 68
    23c8:	2f 2e       	mov	r2, r31
    23ca:	f2 e0       	ldi	r31, 0x02	; 2
    23cc:	3f 2e       	mov	r3, r31
    23ce:	f0 2d       	mov	r31, r0
					
					// Display init & stat ////////////
					if (menu_input < 4)
					{
						// Display init
						menu_display_h = " Ail     Ele    ";
    23d0:	86 01       	movw	r16, r12
    23d2:	20 c0       	rjmp	.+64     	; 0x2414 <menu+0x8c0>
						// Display init
						menu_display_h = " Rud     CH5   ";
						menu_display_l = " Exit           ";
						
						// Aileron
						if (mixing_val_2 & RUD_DR)
    23d4:	80 91 cd 05 	lds	r24, 0x05CD	; 0x8005cd <mixing_val_2>
    23d8:	83 ff       	sbrs	r24, 3
    23da:	03 c0       	rjmp	.+6      	; 0x23e2 <menu+0x88e>
							menu_display_h[5] = 'D';
    23dc:	f0 92 7c 02 	sts	0x027C, r15	; 0x80027c <battery_alarm+0x138>
    23e0:	02 c0       	rjmp	.+4      	; 0x23e6 <menu+0x892>
						else
							menu_display_h[5] = 'N';
    23e2:	e0 92 7c 02 	sts	0x027C, r14	; 0x80027c <battery_alarm+0x138>
						// Elevator
						if (mixing_val_2 & CH5_DR)
    23e6:	84 ff       	sbrs	r24, 4
    23e8:	0b c0       	rjmp	.+22     	; 0x2400 <menu+0x8ac>
							menu_display_h[14] = 'D';
    23ea:	f0 92 85 02 	sts	0x0285, r15	; 0x800285 <battery_alarm+0x141>
					}
					else
					{
						// Display init
						menu_display_h = " Rud     CH5   ";
						menu_display_l = " Exit           ";
    23ee:	0f 2e       	mov	r0, r31
    23f0:	f6 e6       	ldi	r31, 0x66	; 102
    23f2:	2f 2e       	mov	r2, r31
    23f4:	f2 e0       	ldi	r31, 0x02	; 2
    23f6:	3f 2e       	mov	r3, r31
    23f8:	f0 2d       	mov	r31, r0
							menu_display_l[14] = 'N';
					}
					else
					{
						// Display init
						menu_display_h = " Rud     CH5   ";
    23fa:	07 e7       	ldi	r16, 0x77	; 119
    23fc:	12 e0       	ldi	r17, 0x02	; 2
    23fe:	0a c0       	rjmp	.+20     	; 0x2414 <menu+0x8c0>
							menu_display_h[5] = 'N';
						// Elevator
						if (mixing_val_2 & CH5_DR)
							menu_display_h[14] = 'D';
						else
							menu_display_h[14] = 'N';
    2400:	e0 92 85 02 	sts	0x0285, r14	; 0x800285 <battery_alarm+0x141>
					}
					else
					{
						// Display init
						menu_display_h = " Rud     CH5   ";
						menu_display_l = " Exit           ";
    2404:	0f 2e       	mov	r0, r31
    2406:	f6 e6       	ldi	r31, 0x66	; 102
    2408:	2f 2e       	mov	r2, r31
    240a:	f2 e0       	ldi	r31, 0x02	; 2
    240c:	3f 2e       	mov	r3, r31
    240e:	f0 2d       	mov	r31, r0
							menu_display_l[14] = 'N';
					}
					else
					{
						// Display init
						menu_display_h = " Rud     CH5   ";
    2410:	07 e7       	ldi	r16, 0x77	; 119
    2412:	12 e0       	ldi	r17, 0x02	; 2
							menu_display_h[14] = 'D';
						else
							menu_display_h[14] = 'N';
						
					}
					menu_display_h[15] = ' ';
    2414:	f8 01       	movw	r30, r16
    2416:	b7 86       	std	Z+15, r11	; 0x0f
					
					
					// Cursor move & val set //////////
					// Aileron
					if (menu_input == 0)
    2418:	80 91 ce 05 	lds	r24, 0x05CE	; 0x8005ce <menu_input>
    241c:	81 11       	cpse	r24, r1
    241e:	13 c0       	rjmp	.+38     	; 0x2446 <menu+0x8f2>
					{
						// Cursor move
						menu_display_h[0] = '>';
    2420:	40 82       	st	Z, r4
						
						if (enter)
    2422:	aa 20       	and	r10, r10
    2424:	11 f4       	brne	.+4      	; 0x242a <menu+0x8d6>
    2426:	0c 94 b0 20 	jmp	0x4160	; 0x4160 <menu+0x260c>
						{
							if (mixing_val_2 & AIL_DR)
    242a:	90 91 cd 05 	lds	r25, 0x05CD	; 0x8005cd <mixing_val_2>
    242e:	90 ff       	sbrs	r25, 0
    2430:	05 c0       	rjmp	.+10     	; 0x243c <menu+0x8e8>
								mixing_val_2 &= ~AIL_DR;
    2432:	9e 7f       	andi	r25, 0xFE	; 254
    2434:	90 93 cd 05 	sts	0x05CD, r25	; 0x8005cd <mixing_val_2>
    2438:	0c 94 b0 20 	jmp	0x4160	; 0x4160 <menu+0x260c>
							else
								mixing_val_2 |= AIL_DR;
    243c:	91 60       	ori	r25, 0x01	; 1
    243e:	90 93 cd 05 	sts	0x05CD, r25	; 0x8005cd <mixing_val_2>
    2442:	0c 94 b0 20 	jmp	0x4160	; 0x4160 <menu+0x260c>
						}
					}
					else
						menu_display_h[0] = ' ';
    2446:	f8 01       	movw	r30, r16
    2448:	b0 82       	st	Z, r11
					
					
					// Elevator
					if (menu_input == 1)
    244a:	81 30       	cpi	r24, 0x01	; 1
    244c:	99 f4       	brne	.+38     	; 0x2474 <menu+0x920>
					{
						// Cursor move
						menu_display_h[8] = '>';
    244e:	40 86       	std	Z+8, r4	; 0x08
						
						if (enter)
    2450:	aa 20       	and	r10, r10
    2452:	11 f4       	brne	.+4      	; 0x2458 <menu+0x904>
    2454:	0c 94 b4 20 	jmp	0x4168	; 0x4168 <menu+0x2614>
						{
							if (mixing_val_2 & ELE_DR)
    2458:	90 91 cd 05 	lds	r25, 0x05CD	; 0x8005cd <mixing_val_2>
    245c:	91 ff       	sbrs	r25, 1
    245e:	05 c0       	rjmp	.+10     	; 0x246a <menu+0x916>
								mixing_val_2 &= ~ELE_DR;
    2460:	9d 7f       	andi	r25, 0xFD	; 253
    2462:	90 93 cd 05 	sts	0x05CD, r25	; 0x8005cd <mixing_val_2>
    2466:	0c 94 b4 20 	jmp	0x4168	; 0x4168 <menu+0x2614>
							else
								mixing_val_2 |= ELE_DR;
    246a:	92 60       	ori	r25, 0x02	; 2
    246c:	90 93 cd 05 	sts	0x05CD, r25	; 0x8005cd <mixing_val_2>
    2470:	0c 94 b4 20 	jmp	0x4168	; 0x4168 <menu+0x2614>
						}
					}
					else
						menu_display_h[8] = ' ';
    2474:	f8 01       	movw	r30, r16
    2476:	b0 86       	std	Z+8, r11	; 0x08
					
					
					// Rudder
					if (menu_input == 2)
    2478:	82 30       	cpi	r24, 0x02	; 2
    247a:	a1 f4       	brne	.+40     	; 0x24a4 <menu+0x950>
					{
						// Cursor move
						menu_display_l[0] = '>';
    247c:	f1 01       	movw	r30, r2
    247e:	40 82       	st	Z, r4
						
						if (enter)
    2480:	aa 20       	and	r10, r10
    2482:	11 f4       	brne	.+4      	; 0x2488 <menu+0x934>
    2484:	0c 94 b8 20 	jmp	0x4170	; 0x4170 <menu+0x261c>
						{
							if (mixing_val_2 & RUD_DR)
    2488:	80 91 cd 05 	lds	r24, 0x05CD	; 0x8005cd <mixing_val_2>
    248c:	83 ff       	sbrs	r24, 3
    248e:	05 c0       	rjmp	.+10     	; 0x249a <menu+0x946>
								mixing_val_2 &= ~RUD_DR;
    2490:	87 7f       	andi	r24, 0xF7	; 247
    2492:	80 93 cd 05 	sts	0x05CD, r24	; 0x8005cd <mixing_val_2>
    2496:	0c 94 b8 20 	jmp	0x4170	; 0x4170 <menu+0x261c>
							else
								mixing_val_2 |= RUD_DR;
    249a:	88 60       	ori	r24, 0x08	; 8
    249c:	80 93 cd 05 	sts	0x05CD, r24	; 0x8005cd <mixing_val_2>
    24a0:	0c 94 b8 20 	jmp	0x4170	; 0x4170 <menu+0x261c>
						}
					}
					else
						menu_display_l[0] = ' ';
    24a4:	f1 01       	movw	r30, r2
    24a6:	b0 82       	st	Z, r11
				
					
					// CH5
					if (menu_input == 3)
    24a8:	83 30       	cpi	r24, 0x03	; 3
    24aa:	79 f4       	brne	.+30     	; 0x24ca <menu+0x976>
					{
						// Cursor move
						menu_display_l[8] = '>';
    24ac:	40 86       	std	Z+8, r4	; 0x08
						
						if (enter)
    24ae:	aa 20       	and	r10, r10
    24b0:	d9 f0       	breq	.+54     	; 0x24e8 <menu+0x994>
						{
							if (mixing_val_2 & CH5_DR)
    24b2:	80 91 cd 05 	lds	r24, 0x05CD	; 0x8005cd <mixing_val_2>
    24b6:	84 ff       	sbrs	r24, 4
    24b8:	04 c0       	rjmp	.+8      	; 0x24c2 <menu+0x96e>
								mixing_val_2 &= ~CH5_DR;
    24ba:	8f 7e       	andi	r24, 0xEF	; 239
    24bc:	80 93 cd 05 	sts	0x05CD, r24	; 0x8005cd <mixing_val_2>
    24c0:	13 c0       	rjmp	.+38     	; 0x24e8 <menu+0x994>
							else
								mixing_val_2 |= CH5_DR;
    24c2:	80 61       	ori	r24, 0x10	; 16
    24c4:	80 93 cd 05 	sts	0x05CD, r24	; 0x8005cd <mixing_val_2>
    24c8:	0f c0       	rjmp	.+30     	; 0x24e8 <menu+0x994>
						}
					}
					else
						menu_display_l[8] = ' ';
    24ca:	f1 01       	movw	r30, r2
    24cc:	b0 86       	std	Z+8, r11	; 0x08
					
					// Exit
					if (menu_input == 4)
    24ce:	84 30       	cpi	r24, 0x04	; 4
    24d0:	59 f4       	brne	.+22     	; 0x24e8 <menu+0x994>
					{
						// Cursor move
						menu_display_h[8] = ' ';
    24d2:	f8 01       	movw	r30, r16
    24d4:	b0 86       	std	Z+8, r11	; 0x08
						menu_display_l[0] = '>';
    24d6:	f1 01       	movw	r30, r2
    24d8:	40 82       	st	Z, r4
						menu_display_l[8] = ' ';
						
						if (enter)
    24da:	aa 20       	and	r10, r10
    24dc:	29 f0       	breq	.+10     	; 0x24e8 <menu+0x994>
						{
							menu_input = menu_input_temp;
    24de:	83 e0       	ldi	r24, 0x03	; 3
    24e0:	80 93 ce 05 	sts	0x05CE, r24	; 0x8005ce <menu_input>
							break;
    24e4:	0c 94 79 20 	jmp	0x40f2	; 0x40f2 <menu+0x259e>
						}
					}
					
					
					// LCD drive
					LCD_home();
    24e8:	0e 94 6a 02 	call	0x4d4	; 0x4d4 <LCD_home>
					LCD_string(menu_display_h, 16);
    24ec:	60 e1       	ldi	r22, 0x10	; 16
    24ee:	c8 01       	movw	r24, r16
    24f0:	0e 94 db 01 	call	0x3b6	; 0x3b6 <LCD_string>
					LCD_NWL();
    24f4:	0e 94 5c 02 	call	0x4b8	; 0x4b8 <LCD_NWL>
					LCD_string(menu_display_l, 16);
    24f8:	60 e1       	ldi	r22, 0x10	; 16
    24fa:	c1 01       	movw	r24, r2
    24fc:	0e 94 db 01 	call	0x3b6	; 0x3b6 <LCD_string>
					
					
					// Buzzer drive
					buzzer_switch();
    2500:	0e 94 1b 09 	call	0x1236	; 0x1236 <buzzer_switch>
					
					
				} // while (1)
    2504:	23 cf       	rjmp	.-442    	; 0x234c <menu+0x7f8>
			}// if (enter)
		} // else if (menu_input == 3)
		
		
		////////// Trim //////////////////////////////////////////////////////////
		else if (menu_input == 4)
    2506:	94 30       	cpi	r25, 0x04	; 4
    2508:	09 f0       	breq	.+2      	; 0x250c <menu+0x9b8>
    250a:	4a c2       	rjmp	.+1172   	; 0x29a0 <menu+0xe4c>
		{
			// Display
			menu_display_h = " Dual Rate      ";
			menu_display_l = ">Trim           ";
			
			if (enter)
    250c:	88 23       	and	r24, r24
    250e:	11 f4       	brne	.+4      	; 0x2514 <menu+0x9c0>
    2510:	0c 94 29 20 	jmp	0x4052	; 0x4052 <menu+0x24fe>
			{
				menu_input_temp = menu_input;
				menu_input = cur_model;
    2514:	80 91 cf 05 	lds	r24, 0x05CF	; 0x8005cf <cur_model>
    2518:	80 93 ce 05 	sts	0x05CE, r24	; 0x8005ce <menu_input>
				LCD_CLEAR();
    251c:	0e 94 60 02 	call	0x4c0	; 0x4c0 <LCD_CLEAR>
							menu_display_l[13] = '-';
							menu_display_l[14] = 48 - trim[RUDDER];
						}
						else
						{	
							menu_display_l[13] = ' ';
    2520:	0f 2e       	mov	r0, r31
    2522:	f7 e8       	ldi	r31, 0x87	; 135
    2524:	ef 2e       	mov	r14, r31
    2526:	f2 e0       	ldi	r31, 0x02	; 2
    2528:	ff 2e       	mov	r15, r31
    252a:	f0 2d       	mov	r31, r0
    252c:	68 94       	set
    252e:	bb 24       	eor	r11, r11
    2530:	b5 f8       	bld	r11, 5

					// Display & stat /////////////////
					if (menu_input < 4)
					{
						// Display init
						menu_display_h = " Ail     Ele    ";
    2532:	0f 2e       	mov	r0, r31
    2534:	f5 e5       	ldi	r31, 0x55	; 85
    2536:	cf 2e       	mov	r12, r31
    2538:	f2 e0       	ldi	r31, 0x02	; 2
    253a:	df 2e       	mov	r13, r31
    253c:	f0 2d       	mov	r31, r0
							menu_display_l[6] = trim[THROTTLE] + 48;
						}
						// Rudder
						if (trim[RUDDER] < 0)
						{	
							menu_display_l[13] = '-';
    253e:	0f 2e       	mov	r0, r31
    2540:	fd e2       	ldi	r31, 0x2D	; 45
    2542:	af 2e       	mov	r10, r31
    2544:	f0 2d       	mov	r31, r0
							menu_display_l[14] = 48 - trim[RUDDER];
    2546:	0f 2e       	mov	r0, r31
    2548:	f0 e3       	ldi	r31, 0x30	; 48
    254a:	4f 2e       	mov	r4, r31
    254c:	f0 2d       	mov	r31, r0
									
									// Trim limit
									if (trim[CH5] > TRIM_LIM)
										trim[CH5] = TRIM_LIM;
									else if (trim[CH5] < -TRIM_LIM)
										trim[CH5] = -TRIM_LIM;
    254e:	9a 82       	std	Y+2, r9	; 0x02
    2550:	89 82       	std	Y+1, r8	; 0x01
    2552:	96 2c       	mov	r9, r6
    2554:	67 2c       	mov	r6, r7
				menu_input_temp = menu_input;
				menu_input = cur_model;
				LCD_CLEAR();
				while (1)
				{
					enter = menu_read();
    2556:	0e 94 fd 05 	call	0xbfa	; 0xbfa <menu_read>
					if (menu_input < 0)		// Since max # of models is 8, limit model # input
    255a:	90 91 ce 05 	lds	r25, 0x05CE	; 0x8005ce <menu_input>
    255e:	99 23       	and	r25, r25
    2560:	1c f4       	brge	.+6      	; 0x2568 <menu+0xa14>
						menu_input = 0;
    2562:	10 92 ce 05 	sts	0x05CE, r1	; 0x8005ce <menu_input>
    2566:	09 c0       	rjmp	.+18     	; 0x257a <menu+0xa26>
					else if (menu_input > 5)
    2568:	96 30       	cpi	r25, 0x06	; 6
    256a:	24 f0       	brlt	.+8      	; 0x2574 <menu+0xa20>
						menu_input = 5;
    256c:	95 e0       	ldi	r25, 0x05	; 5
    256e:	90 93 ce 05 	sts	0x05CE, r25	; 0x8005ce <menu_input>
    2572:	49 c0       	rjmp	.+146    	; 0x2606 <menu+0xab2>
					

					// Display & stat /////////////////
					if (menu_input < 4)
    2574:	94 30       	cpi	r25, 0x04	; 4
    2576:	0c f0       	brlt	.+2      	; 0x257a <menu+0xa26>
    2578:	46 c0       	rjmp	.+140    	; 0x2606 <menu+0xab2>
						// Display init
						menu_display_h = " Ail     Ele    ";
						menu_display_l = " Thr     Rud    ";
						
						// Aileron
						if (trim[AILERON] < 0)
    257a:	e7 eb       	ldi	r30, 0xB7	; 183
    257c:	f5 e0       	ldi	r31, 0x05	; 5
    257e:	90 81       	ld	r25, Z
    2580:	99 23       	and	r25, r25
    2582:	44 f4       	brge	.+16     	; 0x2594 <menu+0xa40>
						{
							menu_display_h[5] = '-';
    2584:	f6 01       	movw	r30, r12
    2586:	a5 82       	std	Z+5, r10	; 0x05
							menu_display_h[6] = 48 - trim[AILERON];
    2588:	f4 2d       	mov	r31, r4
    258a:	f9 1b       	sub	r31, r25
    258c:	9f 2f       	mov	r25, r31
    258e:	f6 01       	movw	r30, r12
    2590:	96 83       	std	Z+6, r25	; 0x06
    2592:	04 c0       	rjmp	.+8      	; 0x259c <menu+0xa48>
						}
						else
						{
							menu_display_h[5] = ' ';
    2594:	f6 01       	movw	r30, r12
    2596:	b5 82       	std	Z+5, r11	; 0x05
							menu_display_h[6] = trim[AILERON] + 48;
    2598:	90 5d       	subi	r25, 0xD0	; 208
    259a:	96 83       	std	Z+6, r25	; 0x06
						}
						// Elevator
						if (trim[ELEVATOR] < 0)
    259c:	90 91 b8 05 	lds	r25, 0x05B8	; 0x8005b8 <trim+0x1>
    25a0:	99 23       	and	r25, r25
    25a2:	44 f4       	brge	.+16     	; 0x25b4 <menu+0xa60>
						{	
							menu_display_h[13] = '-';
    25a4:	f6 01       	movw	r30, r12
    25a6:	a5 86       	std	Z+13, r10	; 0x0d
							menu_display_h[14] = 48 - trim[ELEVATOR];
    25a8:	f4 2d       	mov	r31, r4
    25aa:	f9 1b       	sub	r31, r25
    25ac:	9f 2f       	mov	r25, r31
    25ae:	f6 01       	movw	r30, r12
    25b0:	96 87       	std	Z+14, r25	; 0x0e
    25b2:	04 c0       	rjmp	.+8      	; 0x25bc <menu+0xa68>
						}
						else
						{	
							menu_display_h[13] = ' ';
    25b4:	f6 01       	movw	r30, r12
    25b6:	b5 86       	std	Z+13, r11	; 0x0d
							menu_display_h[14] = trim[ELEVATOR] + 48;
    25b8:	90 5d       	subi	r25, 0xD0	; 208
    25ba:	96 87       	std	Z+14, r25	; 0x0e
						}
						// Throttle
						if (trim[THROTTLE] < 0)
    25bc:	90 91 b9 05 	lds	r25, 0x05B9	; 0x8005b9 <trim+0x2>
    25c0:	99 23       	and	r25, r25
    25c2:	44 f4       	brge	.+16     	; 0x25d4 <menu+0xa80>
						{
							menu_display_l[5] = '-';
    25c4:	f7 01       	movw	r30, r14
    25c6:	a5 82       	std	Z+5, r10	; 0x05
							menu_display_l[6] = 48 - trim[THROTTLE];
    25c8:	f4 2d       	mov	r31, r4
    25ca:	f9 1b       	sub	r31, r25
    25cc:	9f 2f       	mov	r25, r31
    25ce:	f7 01       	movw	r30, r14
    25d0:	96 83       	std	Z+6, r25	; 0x06
    25d2:	04 c0       	rjmp	.+8      	; 0x25dc <menu+0xa88>
						}
						else
						{	
							menu_display_l[5] = ' ';
    25d4:	f7 01       	movw	r30, r14
    25d6:	b5 82       	std	Z+5, r11	; 0x05
							menu_display_l[6] = trim[THROTTLE] + 48;
    25d8:	90 5d       	subi	r25, 0xD0	; 208
    25da:	96 83       	std	Z+6, r25	; 0x06
						}
						// Rudder
						if (trim[RUDDER] < 0)
    25dc:	90 91 ba 05 	lds	r25, 0x05BA	; 0x8005ba <trim+0x3>
    25e0:	99 23       	and	r25, r25
    25e2:	54 f4       	brge	.+20     	; 0x25f8 <menu+0xaa4>
						{	
							menu_display_l[13] = '-';
    25e4:	f7 01       	movw	r30, r14
    25e6:	a5 86       	std	Z+13, r10	; 0x0d
							menu_display_l[14] = 48 - trim[RUDDER];
    25e8:	f4 2d       	mov	r31, r4
    25ea:	f9 1b       	sub	r31, r25
    25ec:	9f 2f       	mov	r25, r31
    25ee:	f7 01       	movw	r30, r14
    25f0:	96 87       	std	Z+14, r25	; 0x0e
					// Display & stat /////////////////
					if (menu_input < 4)
					{
						// Display init
						menu_display_h = " Ail     Ele    ";
						menu_display_l = " Thr     Rud    ";
    25f2:	17 01       	movw	r2, r14

					// Display & stat /////////////////
					if (menu_input < 4)
					{
						// Display init
						menu_display_h = " Ail     Ele    ";
    25f4:	86 01       	movw	r16, r12
    25f6:	40 c0       	rjmp	.+128    	; 0x2678 <menu+0xb24>
							menu_display_l[13] = '-';
							menu_display_l[14] = 48 - trim[RUDDER];
						}
						else
						{	
							menu_display_l[13] = ' ';
    25f8:	f7 01       	movw	r30, r14
    25fa:	b5 86       	std	Z+13, r11	; 0x0d
							menu_display_l[14] = trim[RUDDER] + 48;
    25fc:	90 5d       	subi	r25, 0xD0	; 208
    25fe:	96 87       	std	Z+14, r25	; 0x0e
					// Display & stat /////////////////
					if (menu_input < 4)
					{
						// Display init
						menu_display_h = " Ail     Ele    ";
						menu_display_l = " Thr     Rud    ";
    2600:	17 01       	movw	r2, r14

					// Display & stat /////////////////
					if (menu_input < 4)
					{
						// Display init
						menu_display_h = " Ail     Ele    ";
    2602:	86 01       	movw	r16, r12
    2604:	39 c0       	rjmp	.+114    	; 0x2678 <menu+0xb24>
						// Display init
						menu_display_h = " Thr     Rud    ";
						menu_display_l = " CH5     Exit   ";
						
						// Throttle
						if (trim[THROTTLE] < 0)
    2606:	90 91 b9 05 	lds	r25, 0x05B9	; 0x8005b9 <trim+0x2>
    260a:	99 23       	and	r25, r25
    260c:	1c f4       	brge	.+6      	; 0x2614 <menu+0xac0>
						{
							menu_display_h[5] = '-';
    260e:	f7 01       	movw	r30, r14
    2610:	a5 82       	std	Z+5, r10	; 0x05
    2612:	04 c0       	rjmp	.+8      	; 0x261c <menu+0xac8>
							menu_display_l[6] = 48 - trim[THROTTLE];
						}
						else
						{
							menu_display_h[5] = ' ';
    2614:	f7 01       	movw	r30, r14
    2616:	b5 82       	std	Z+5, r11	; 0x05
							menu_display_h[6] = trim[THROTTLE] + 48;
    2618:	90 5d       	subi	r25, 0xD0	; 208
    261a:	96 83       	std	Z+6, r25	; 0x06
						}
						// Rudder
						if (trim[RUDDER] < 0)
    261c:	90 91 ba 05 	lds	r25, 0x05BA	; 0x8005ba <trim+0x3>
    2620:	99 23       	and	r25, r25
    2622:	44 f4       	brge	.+16     	; 0x2634 <menu+0xae0>
						{
							menu_display_h[13] = '-';
    2624:	f7 01       	movw	r30, r14
    2626:	a5 86       	std	Z+13, r10	; 0x0d
							menu_display_h[14] = 48 - trim[RUDDER];
    2628:	f4 2d       	mov	r31, r4
    262a:	f9 1b       	sub	r31, r25
    262c:	9f 2f       	mov	r25, r31
    262e:	f7 01       	movw	r30, r14
    2630:	96 87       	std	Z+14, r25	; 0x0e
    2632:	04 c0       	rjmp	.+8      	; 0x263c <menu+0xae8>
						}
						else
						{
							menu_display_h[13] = ' ';
    2634:	f7 01       	movw	r30, r14
    2636:	b5 86       	std	Z+13, r11	; 0x0d
							menu_display_h[14] = trim[RUDDER] + 48;
    2638:	90 5d       	subi	r25, 0xD0	; 208
    263a:	96 87       	std	Z+14, r25	; 0x0e
						}
						
						// CH5
						if (trim[CH5] < 0)
    263c:	90 91 bb 05 	lds	r25, 0x05BB	; 0x8005bb <trim+0x4>
    2640:	99 23       	and	r25, r25
    2642:	74 f4       	brge	.+28     	; 0x2660 <menu+0xb0c>
						{
							menu_display_l[5] = '-';
    2644:	a0 92 9d 02 	sts	0x029D, r10	; 0x80029d <battery_alarm+0x159>
							menu_display_l[6] = 48 - trim[CH5];
    2648:	f4 2d       	mov	r31, r4
    264a:	f9 1b       	sub	r31, r25
    264c:	f0 93 9e 02 	sts	0x029E, r31	; 0x80029e <battery_alarm+0x15a>
					}
					else
					{
						// Display init
						menu_display_h = " Thr     Rud    ";
						menu_display_l = " CH5     Exit   ";
    2650:	0f 2e       	mov	r0, r31
    2652:	f8 e9       	ldi	r31, 0x98	; 152
    2654:	2f 2e       	mov	r2, r31
    2656:	f2 e0       	ldi	r31, 0x02	; 2
    2658:	3f 2e       	mov	r3, r31
    265a:	f0 2d       	mov	r31, r0
						
					}
					else
					{
						// Display init
						menu_display_h = " Thr     Rud    ";
    265c:	87 01       	movw	r16, r14
    265e:	0c c0       	rjmp	.+24     	; 0x2678 <menu+0xb24>
							menu_display_l[5] = '-';
							menu_display_l[6] = 48 - trim[CH5];
						}
						else
						{
							menu_display_l[5] = ' ';
    2660:	b0 92 9d 02 	sts	0x029D, r11	; 0x80029d <battery_alarm+0x159>
							menu_display_l[6] = trim[CH5] + 48;
    2664:	90 5d       	subi	r25, 0xD0	; 208
    2666:	90 93 9e 02 	sts	0x029E, r25	; 0x80029e <battery_alarm+0x15a>
					}
					else
					{
						// Display init
						menu_display_h = " Thr     Rud    ";
						menu_display_l = " CH5     Exit   ";
    266a:	0f 2e       	mov	r0, r31
    266c:	f8 e9       	ldi	r31, 0x98	; 152
    266e:	2f 2e       	mov	r2, r31
    2670:	f2 e0       	ldi	r31, 0x02	; 2
    2672:	3f 2e       	mov	r3, r31
    2674:	f0 2d       	mov	r31, r0
						
					}
					else
					{
						// Display init
						menu_display_h = " Thr     Rud    ";
    2676:	87 01       	movw	r16, r14
					}
					
					
					// Cursor move & val set //////////
					// Aileron
					if (menu_input == 0)
    2678:	90 91 ce 05 	lds	r25, 0x05CE	; 0x8005ce <menu_input>
    267c:	91 11       	cpse	r25, r1
    267e:	42 c0       	rjmp	.+132    	; 0x2704 <menu+0xbb0>
					{
						// Cursor move
						menu_display_h[0] = '>';
    2680:	9e e3       	ldi	r25, 0x3E	; 62
    2682:	f8 01       	movw	r30, r16
    2684:	90 83       	st	Z, r25
						
						if (enter)
    2686:	88 23       	and	r24, r24
    2688:	11 f4       	brne	.+4      	; 0x268e <menu+0xb3a>
    268a:	0c 94 e2 20 	jmp	0x41c4	; 0x41c4 <menu+0x2670>
								{
									trim[AILERON] -= menu_input;
									
									// Trim limit
									if (trim[AILERON] > TRIM_LIM)
										trim[AILERON] = TRIM_LIM;
    268e:	0f 2e       	mov	r0, r31
    2690:	f9 e0       	ldi	r31, 0x09	; 9
    2692:	7f 2e       	mov	r7, r31
    2694:	f0 2d       	mov	r31, r0
						{
							// menu_input = 0;
							
							while (1)
							{
								enter = menu_read();
    2696:	0e 94 fd 05 	call	0xbfa	; 0xbfa <menu_read>
								
								// if menu button is pressed
								if (menu_input)
    269a:	90 91 ce 05 	lds	r25, 0x05CE	; 0x8005ce <menu_input>
    269e:	99 23       	and	r25, r25
    26a0:	a1 f0       	breq	.+40     	; 0x26ca <menu+0xb76>
								{
									trim[AILERON] -= menu_input;
    26a2:	e7 eb       	ldi	r30, 0xB7	; 183
    26a4:	f5 e0       	ldi	r31, 0x05	; 5
    26a6:	20 81       	ld	r18, Z
    26a8:	29 1b       	sub	r18, r25
									
									// Trim limit
									if (trim[AILERON] > TRIM_LIM)
    26aa:	2a 30       	cpi	r18, 0x0A	; 10
    26ac:	14 f0       	brlt	.+4      	; 0x26b2 <menu+0xb5e>
										trim[AILERON] = TRIM_LIM;
    26ae:	70 82       	st	Z, r7
    26b0:	0a c0       	rjmp	.+20     	; 0x26c6 <menu+0xb72>
									else if (trim[AILERON] < -TRIM_LIM)
    26b2:	27 3f       	cpi	r18, 0xF7	; 247
    26b4:	24 f0       	brlt	.+8      	; 0x26be <menu+0xb6a>
								enter = menu_read();
								
								// if menu button is pressed
								if (menu_input)
								{
									trim[AILERON] -= menu_input;
    26b6:	e7 eb       	ldi	r30, 0xB7	; 183
    26b8:	f5 e0       	ldi	r31, 0x05	; 5
    26ba:	20 83       	st	Z, r18
    26bc:	04 c0       	rjmp	.+8      	; 0x26c6 <menu+0xb72>
									
									// Trim limit
									if (trim[AILERON] > TRIM_LIM)
										trim[AILERON] = TRIM_LIM;
									else if (trim[AILERON] < -TRIM_LIM)
										trim[AILERON] = -TRIM_LIM;
    26be:	27 ef       	ldi	r18, 0xF7	; 247
    26c0:	e7 eb       	ldi	r30, 0xB7	; 183
    26c2:	f5 e0       	ldi	r31, 0x05	; 5
    26c4:	20 83       	st	Z, r18
										
									menu_input = 0;
    26c6:	10 92 ce 05 	sts	0x05CE, r1	; 0x8005ce <menu_input>
								}
								
								// Exit
								if (enter)
    26ca:	81 11       	cpse	r24, r1
    26cc:	0c 94 c1 20 	jmp	0x4182	; 0x4182 <menu+0x262e>
								{
									//menu_input = 0;
									break;
								}
								// Display
								if (trim[AILERON] < 0)
    26d0:	e7 eb       	ldi	r30, 0xB7	; 183
    26d2:	f5 e0       	ldi	r31, 0x05	; 5
    26d4:	80 81       	ld	r24, Z
    26d6:	88 23       	and	r24, r24
    26d8:	44 f4       	brge	.+16     	; 0x26ea <menu+0xb96>
								{
									menu_display_h[5] = '-';
    26da:	f8 01       	movw	r30, r16
    26dc:	a5 82       	std	Z+5, r10	; 0x05
									menu_display_h[6] = 48 - trim[AILERON];
    26de:	f4 2d       	mov	r31, r4
    26e0:	f8 1b       	sub	r31, r24
    26e2:	8f 2f       	mov	r24, r31
    26e4:	f8 01       	movw	r30, r16
    26e6:	86 83       	std	Z+6, r24	; 0x06
    26e8:	04 c0       	rjmp	.+8      	; 0x26f2 <menu+0xb9e>
								}
								else
								{
									menu_display_h[5] = ' ';
    26ea:	f8 01       	movw	r30, r16
    26ec:	b5 82       	std	Z+5, r11	; 0x05
									menu_display_h[6] = trim[AILERON] + 48;
    26ee:	80 5d       	subi	r24, 0xD0	; 208
    26f0:	86 83       	std	Z+6, r24	; 0x06
								}
								
								// LCD drive
								LCD_string(menu_display_h, 16);
    26f2:	60 e1       	ldi	r22, 0x10	; 16
    26f4:	c8 01       	movw	r24, r16
    26f6:	0e 94 db 01 	call	0x3b6	; 0x3b6 <LCD_string>
								LCD_home();
    26fa:	0e 94 6a 02 	call	0x4d4	; 0x4d4 <LCD_home>
								
								// Buzzer drive
								buzzer_switch();
    26fe:	0e 94 1b 09 	call	0x1236	; 0x1236 <buzzer_switch>
								
							} //while (1)
    2702:	c9 cf       	rjmp	.-110    	; 0x2696 <menu+0xb42>
							
						} //if (enter)
					} //if (menu_input == 0)
					else
						menu_display_h[0] = ' ';
    2704:	f8 01       	movw	r30, r16
    2706:	b0 82       	st	Z, r11
					
					// Elevator
					if (menu_input == 1)
    2708:	91 30       	cpi	r25, 0x01	; 1
    270a:	09 f0       	breq	.+2      	; 0x270e <menu+0xbba>
    270c:	42 c0       	rjmp	.+132    	; 0x2792 <menu+0xc3e>
					{
						// Cursor move
						menu_display_h[8] = '>';
    270e:	9e e3       	ldi	r25, 0x3E	; 62
    2710:	90 87       	std	Z+8, r25	; 0x08
						
						if (enter)
    2712:	88 23       	and	r24, r24
    2714:	09 f4       	brne	.+2      	; 0x2718 <menu+0xbc4>
    2716:	89 c0       	rjmp	.+274    	; 0x282a <menu+0xcd6>
						{
							menu_input = 0;
    2718:	10 92 ce 05 	sts	0x05CE, r1	; 0x8005ce <menu_input>
								{
									trim[ELEVATOR] -= menu_input;
									
									// Trim limit
									if (trim[ELEVATOR] > TRIM_LIM)
										trim[ELEVATOR] = TRIM_LIM;
    271c:	0f 2e       	mov	r0, r31
    271e:	f9 e0       	ldi	r31, 0x09	; 9
    2720:	7f 2e       	mov	r7, r31
    2722:	f0 2d       	mov	r31, r0
						{
							menu_input = 0;
							
							while (1)
							{
								enter = menu_read();
    2724:	0e 94 fd 05 	call	0xbfa	; 0xbfa <menu_read>
								
								// if menu button is pressed
								if (menu_input)
    2728:	90 91 ce 05 	lds	r25, 0x05CE	; 0x8005ce <menu_input>
    272c:	99 23       	and	r25, r25
    272e:	91 f0       	breq	.+36     	; 0x2754 <menu+0xc00>
								{
									trim[ELEVATOR] -= menu_input;
    2730:	20 91 b8 05 	lds	r18, 0x05B8	; 0x8005b8 <trim+0x1>
    2734:	29 1b       	sub	r18, r25
									
									// Trim limit
									if (trim[ELEVATOR] > TRIM_LIM)
    2736:	2a 30       	cpi	r18, 0x0A	; 10
    2738:	1c f0       	brlt	.+6      	; 0x2740 <menu+0xbec>
										trim[ELEVATOR] = TRIM_LIM;
    273a:	70 92 b8 05 	sts	0x05B8, r7	; 0x8005b8 <trim+0x1>
    273e:	08 c0       	rjmp	.+16     	; 0x2750 <menu+0xbfc>
									else if (trim[ELEVATOR] < -TRIM_LIM)
    2740:	27 3f       	cpi	r18, 0xF7	; 247
    2742:	1c f0       	brlt	.+6      	; 0x274a <menu+0xbf6>
								enter = menu_read();
								
								// if menu button is pressed
								if (menu_input)
								{
									trim[ELEVATOR] -= menu_input;
    2744:	20 93 b8 05 	sts	0x05B8, r18	; 0x8005b8 <trim+0x1>
    2748:	03 c0       	rjmp	.+6      	; 0x2750 <menu+0xbfc>
									
									// Trim limit
									if (trim[ELEVATOR] > TRIM_LIM)
										trim[ELEVATOR] = TRIM_LIM;
									else if (trim[ELEVATOR] < -TRIM_LIM)
										trim[ELEVATOR] = -TRIM_LIM;
    274a:	f7 ef       	ldi	r31, 0xF7	; 247
    274c:	f0 93 b8 05 	sts	0x05B8, r31	; 0x8005b8 <trim+0x1>
									
									menu_input = 0;
    2750:	10 92 ce 05 	sts	0x05CE, r1	; 0x8005ce <menu_input>
								}
								
								// Exit
								if (enter)
    2754:	88 23       	and	r24, r24
    2756:	21 f0       	breq	.+8      	; 0x2760 <menu+0xc0c>
								{
									menu_input = 1;
    2758:	91 e0       	ldi	r25, 0x01	; 1
    275a:	90 93 ce 05 	sts	0x05CE, r25	; 0x8005ce <menu_input>
									break;
    275e:	65 c0       	rjmp	.+202    	; 0x282a <menu+0xcd6>
								}
								// Display
								if (trim[ELEVATOR] < 0)
    2760:	80 91 b8 05 	lds	r24, 0x05B8	; 0x8005b8 <trim+0x1>
    2764:	88 23       	and	r24, r24
    2766:	44 f4       	brge	.+16     	; 0x2778 <menu+0xc24>
								{
									menu_display_h[13] = '-';
    2768:	f8 01       	movw	r30, r16
    276a:	a5 86       	std	Z+13, r10	; 0x0d
									menu_display_h[14] = 48 - trim[ELEVATOR];
    276c:	f4 2d       	mov	r31, r4
    276e:	f8 1b       	sub	r31, r24
    2770:	8f 2f       	mov	r24, r31
    2772:	f8 01       	movw	r30, r16
    2774:	86 87       	std	Z+14, r24	; 0x0e
    2776:	04 c0       	rjmp	.+8      	; 0x2780 <menu+0xc2c>
								}
								else
								{
									menu_display_h[13] = ' ';
    2778:	f8 01       	movw	r30, r16
    277a:	b5 86       	std	Z+13, r11	; 0x0d
									menu_display_h[14] = trim[ELEVATOR] + 48;
    277c:	80 5d       	subi	r24, 0xD0	; 208
    277e:	86 87       	std	Z+14, r24	; 0x0e
								}
								
								// LCD drive
								LCD_string(menu_display_h, 16);
    2780:	60 e1       	ldi	r22, 0x10	; 16
    2782:	c8 01       	movw	r24, r16
    2784:	0e 94 db 01 	call	0x3b6	; 0x3b6 <LCD_string>
								LCD_home();
    2788:	0e 94 6a 02 	call	0x4d4	; 0x4d4 <LCD_home>
								
								// Buzzer drive
								buzzer_switch();
    278c:	0e 94 1b 09 	call	0x1236	; 0x1236 <buzzer_switch>
								
							} //while (1)
    2790:	c9 cf       	rjmp	.-110    	; 0x2724 <menu+0xbd0>
							
						} //if(enter)
					}
					else
						menu_display_h[8] = ' ';
    2792:	f8 01       	movw	r30, r16
    2794:	b0 86       	std	Z+8, r11	; 0x08
					
					// Throttle
					if (menu_input == 2)
    2796:	90 91 ce 05 	lds	r25, 0x05CE	; 0x8005ce <menu_input>
    279a:	92 30       	cpi	r25, 0x02	; 2
    279c:	09 f0       	breq	.+2      	; 0x27a0 <menu+0xc4c>
    279e:	45 c0       	rjmp	.+138    	; 0x282a <menu+0xcd6>
					{
						// Cursor move
						menu_display_l[0] = '>';
    27a0:	9e e3       	ldi	r25, 0x3E	; 62
    27a2:	f1 01       	movw	r30, r2
    27a4:	90 83       	st	Z, r25
						
						if (enter)
    27a6:	88 23       	and	r24, r24
    27a8:	09 f4       	brne	.+2      	; 0x27ac <menu+0xc58>
    27aa:	8a c0       	rjmp	.+276    	; 0x28c0 <menu+0xd6c>
						{
							menu_input = 0;
    27ac:	10 92 ce 05 	sts	0x05CE, r1	; 0x8005ce <menu_input>
								{
									trim[THROTTLE] -= menu_input;
									
									// Trim limit
									if (trim[THROTTLE] > TRIM_LIM)
										trim[THROTTLE] = TRIM_LIM;
    27b0:	0f 2e       	mov	r0, r31
    27b2:	f9 e0       	ldi	r31, 0x09	; 9
    27b4:	7f 2e       	mov	r7, r31
    27b6:	f0 2d       	mov	r31, r0
						{
							menu_input = 0;
							
							while (1)
							{
								enter = menu_read();
    27b8:	0e 94 fd 05 	call	0xbfa	; 0xbfa <menu_read>
								
								// if menu button is pressed
								if (menu_input)
    27bc:	90 91 ce 05 	lds	r25, 0x05CE	; 0x8005ce <menu_input>
    27c0:	99 23       	and	r25, r25
    27c2:	91 f0       	breq	.+36     	; 0x27e8 <menu+0xc94>
								{
									trim[THROTTLE] -= menu_input;
    27c4:	20 91 b9 05 	lds	r18, 0x05B9	; 0x8005b9 <trim+0x2>
    27c8:	29 1b       	sub	r18, r25
									
									// Trim limit
									if (trim[THROTTLE] > TRIM_LIM)
    27ca:	2a 30       	cpi	r18, 0x0A	; 10
    27cc:	1c f0       	brlt	.+6      	; 0x27d4 <menu+0xc80>
										trim[THROTTLE] = TRIM_LIM;
    27ce:	70 92 b9 05 	sts	0x05B9, r7	; 0x8005b9 <trim+0x2>
    27d2:	08 c0       	rjmp	.+16     	; 0x27e4 <menu+0xc90>
									else if (trim[THROTTLE] < -TRIM_LIM)
    27d4:	27 3f       	cpi	r18, 0xF7	; 247
    27d6:	1c f0       	brlt	.+6      	; 0x27de <menu+0xc8a>
								enter = menu_read();
								
								// if menu button is pressed
								if (menu_input)
								{
									trim[THROTTLE] -= menu_input;
    27d8:	20 93 b9 05 	sts	0x05B9, r18	; 0x8005b9 <trim+0x2>
    27dc:	03 c0       	rjmp	.+6      	; 0x27e4 <menu+0xc90>
									
									// Trim limit
									if (trim[THROTTLE] > TRIM_LIM)
										trim[THROTTLE] = TRIM_LIM;
									else if (trim[THROTTLE] < -TRIM_LIM)
										trim[THROTTLE] = -TRIM_LIM;
    27de:	f7 ef       	ldi	r31, 0xF7	; 247
    27e0:	f0 93 b9 05 	sts	0x05B9, r31	; 0x8005b9 <trim+0x2>
									
									menu_input = 0;
    27e4:	10 92 ce 05 	sts	0x05CE, r1	; 0x8005ce <menu_input>
								}
								
								// Exit
								if (enter)
    27e8:	88 23       	and	r24, r24
    27ea:	21 f0       	breq	.+8      	; 0x27f4 <menu+0xca0>
								{
									menu_input = 2;
    27ec:	92 e0       	ldi	r25, 0x02	; 2
    27ee:	90 93 ce 05 	sts	0x05CE, r25	; 0x8005ce <menu_input>
									break;
    27f2:	66 c0       	rjmp	.+204    	; 0x28c0 <menu+0xd6c>
								}
								// Display
								if (trim[THROTTLE] < 0)
    27f4:	80 91 b9 05 	lds	r24, 0x05B9	; 0x8005b9 <trim+0x2>
    27f8:	88 23       	and	r24, r24
    27fa:	44 f4       	brge	.+16     	; 0x280c <menu+0xcb8>
								{
									menu_display_l[5] = '-';
    27fc:	f1 01       	movw	r30, r2
    27fe:	a5 82       	std	Z+5, r10	; 0x05
									menu_display_l[6] = 48 - trim[THROTTLE];
    2800:	f4 2d       	mov	r31, r4
    2802:	f8 1b       	sub	r31, r24
    2804:	8f 2f       	mov	r24, r31
    2806:	f1 01       	movw	r30, r2
    2808:	86 83       	std	Z+6, r24	; 0x06
    280a:	04 c0       	rjmp	.+8      	; 0x2814 <menu+0xcc0>
								}
								else
								{
									menu_display_l[5] = ' ';
    280c:	f1 01       	movw	r30, r2
    280e:	b5 82       	std	Z+5, r11	; 0x05
									menu_display_l[6] = trim[THROTTLE] + 48;
    2810:	80 5d       	subi	r24, 0xD0	; 208
    2812:	86 83       	std	Z+6, r24	; 0x06
								}
								
								// LCD drive
								LCD_home();
    2814:	0e 94 6a 02 	call	0x4d4	; 0x4d4 <LCD_home>
								LCD_NWL();
    2818:	0e 94 5c 02 	call	0x4b8	; 0x4b8 <LCD_NWL>
								LCD_string(menu_display_l, 16);
    281c:	60 e1       	ldi	r22, 0x10	; 16
    281e:	c1 01       	movw	r24, r2
    2820:	0e 94 db 01 	call	0x3b6	; 0x3b6 <LCD_string>
								
								// Buzzer drive
								buzzer_switch();
    2824:	0e 94 1b 09 	call	0x1236	; 0x1236 <buzzer_switch>
								
							} //while (1)
    2828:	c7 cf       	rjmp	.-114    	; 0x27b8 <menu+0xc64>
							
						} // if(enter)
					} // if(menu_input == 2)
					else
						menu_display_l[0] = ' ';
    282a:	f1 01       	movw	r30, r2
    282c:	b0 82       	st	Z, r11
					
					// Rudder
					if (menu_input == 3)
    282e:	90 91 ce 05 	lds	r25, 0x05CE	; 0x8005ce <menu_input>
    2832:	93 30       	cpi	r25, 0x03	; 3
    2834:	09 f0       	breq	.+2      	; 0x2838 <menu+0xce4>
    2836:	44 c0       	rjmp	.+136    	; 0x28c0 <menu+0xd6c>
					{
						// Cursor move
						menu_display_l[8] = '>';
    2838:	9e e3       	ldi	r25, 0x3E	; 62
    283a:	90 87       	std	Z+8, r25	; 0x08
						
						if (enter)
    283c:	88 23       	and	r24, r24
    283e:	09 f4       	brne	.+2      	; 0x2842 <menu+0xcee>
    2840:	a0 c0       	rjmp	.+320    	; 0x2982 <menu+0xe2e>
						{
							menu_input = 0;
    2842:	10 92 ce 05 	sts	0x05CE, r1	; 0x8005ce <menu_input>
								{
									trim[RUDDER] -= menu_input;
									
									// Trim limit
									if (trim[RUDDER] > TRIM_LIM)
										trim[RUDDER] = TRIM_LIM;
    2846:	0f 2e       	mov	r0, r31
    2848:	f9 e0       	ldi	r31, 0x09	; 9
    284a:	7f 2e       	mov	r7, r31
    284c:	f0 2d       	mov	r31, r0
						{
							menu_input = 0;
							
							while (1)
							{
								enter = menu_read();
    284e:	0e 94 fd 05 	call	0xbfa	; 0xbfa <menu_read>
								
								// if menu button is pressed
								if (menu_input)
    2852:	90 91 ce 05 	lds	r25, 0x05CE	; 0x8005ce <menu_input>
    2856:	99 23       	and	r25, r25
    2858:	91 f0       	breq	.+36     	; 0x287e <menu+0xd2a>
								{
									trim[RUDDER] -= menu_input;
    285a:	20 91 ba 05 	lds	r18, 0x05BA	; 0x8005ba <trim+0x3>
    285e:	29 1b       	sub	r18, r25
									
									// Trim limit
									if (trim[RUDDER] > TRIM_LIM)
    2860:	2a 30       	cpi	r18, 0x0A	; 10
    2862:	1c f0       	brlt	.+6      	; 0x286a <menu+0xd16>
										trim[RUDDER] = TRIM_LIM;
    2864:	70 92 ba 05 	sts	0x05BA, r7	; 0x8005ba <trim+0x3>
    2868:	08 c0       	rjmp	.+16     	; 0x287a <menu+0xd26>
									else if (trim[RUDDER] < -TRIM_LIM)
    286a:	27 3f       	cpi	r18, 0xF7	; 247
    286c:	1c f0       	brlt	.+6      	; 0x2874 <menu+0xd20>
								enter = menu_read();
								
								// if menu button is pressed
								if (menu_input)
								{
									trim[RUDDER] -= menu_input;
    286e:	20 93 ba 05 	sts	0x05BA, r18	; 0x8005ba <trim+0x3>
    2872:	03 c0       	rjmp	.+6      	; 0x287a <menu+0xd26>
									
									// Trim limit
									if (trim[RUDDER] > TRIM_LIM)
										trim[RUDDER] = TRIM_LIM;
									else if (trim[RUDDER] < -TRIM_LIM)
										trim[RUDDER] = -TRIM_LIM;
    2874:	f7 ef       	ldi	r31, 0xF7	; 247
    2876:	f0 93 ba 05 	sts	0x05BA, r31	; 0x8005ba <trim+0x3>
									
									menu_input = 0;
    287a:	10 92 ce 05 	sts	0x05CE, r1	; 0x8005ce <menu_input>
								}
								
								// Exit
								if (enter)
    287e:	88 23       	and	r24, r24
    2880:	21 f0       	breq	.+8      	; 0x288a <menu+0xd36>
								{
									menu_input = 3;
    2882:	83 e0       	ldi	r24, 0x03	; 3
    2884:	80 93 ce 05 	sts	0x05CE, r24	; 0x8005ce <menu_input>
									break;
    2888:	7c c0       	rjmp	.+248    	; 0x2982 <menu+0xe2e>
								}
								// Display
								if (trim[RUDDER] < 0)
    288a:	80 91 ba 05 	lds	r24, 0x05BA	; 0x8005ba <trim+0x3>
    288e:	88 23       	and	r24, r24
    2890:	44 f4       	brge	.+16     	; 0x28a2 <menu+0xd4e>
								{
									menu_display_l[13] = '-';
    2892:	f1 01       	movw	r30, r2
    2894:	a5 86       	std	Z+13, r10	; 0x0d
									menu_display_l[14] = 48 - trim[RUDDER];
    2896:	f4 2d       	mov	r31, r4
    2898:	f8 1b       	sub	r31, r24
    289a:	8f 2f       	mov	r24, r31
    289c:	f1 01       	movw	r30, r2
    289e:	86 87       	std	Z+14, r24	; 0x0e
    28a0:	04 c0       	rjmp	.+8      	; 0x28aa <menu+0xd56>
								}
								else
								{
									menu_display_l[13] = ' ';
    28a2:	f1 01       	movw	r30, r2
    28a4:	b5 86       	std	Z+13, r11	; 0x0d
									menu_display_l[14] = trim[RUDDER] + 48;
    28a6:	80 5d       	subi	r24, 0xD0	; 208
    28a8:	86 87       	std	Z+14, r24	; 0x0e
								}
								
								// LCD drive
								LCD_home();
    28aa:	0e 94 6a 02 	call	0x4d4	; 0x4d4 <LCD_home>
								LCD_NWL();
    28ae:	0e 94 5c 02 	call	0x4b8	; 0x4b8 <LCD_NWL>
								LCD_string(menu_display_l, 16);
    28b2:	60 e1       	ldi	r22, 0x10	; 16
    28b4:	c1 01       	movw	r24, r2
    28b6:	0e 94 db 01 	call	0x3b6	; 0x3b6 <LCD_string>
								
								// Buzzer drive
								buzzer_switch();
    28ba:	0e 94 1b 09 	call	0x1236	; 0x1236 <buzzer_switch>
								
							} //while (1)
    28be:	c7 cf       	rjmp	.-114    	; 0x284e <menu+0xcfa>
							
						} // if(enter)
					} // if (menu_input == 3)
					else
						menu_display_l[8] = ' ';
    28c0:	f1 01       	movw	r30, r2
    28c2:	b0 86       	std	Z+8, r11	; 0x08
					
					// CH5
					if (menu_input == 4)
    28c4:	90 91 ce 05 	lds	r25, 0x05CE	; 0x8005ce <menu_input>
    28c8:	94 30       	cpi	r25, 0x04	; 4
    28ca:	09 f0       	breq	.+2      	; 0x28ce <menu+0xd7a>
    28cc:	47 c0       	rjmp	.+142    	; 0x295c <menu+0xe08>
					{
						// Cursor move
						menu_display_h[8] = ' ';
    28ce:	f8 01       	movw	r30, r16
    28d0:	b0 86       	std	Z+8, r11	; 0x08
						menu_display_l[0] = '>';
    28d2:	9e e3       	ldi	r25, 0x3E	; 62
    28d4:	f1 01       	movw	r30, r2
    28d6:	90 83       	st	Z, r25
						menu_display_l[8] = ' ';
						
						if (enter)
    28d8:	88 23       	and	r24, r24
    28da:	09 f4       	brne	.+2      	; 0x28de <menu+0xd8a>
    28dc:	52 c0       	rjmp	.+164    	; 0x2982 <menu+0xe2e>
						{
							menu_input = 0;
    28de:	10 92 ce 05 	sts	0x05CE, r1	; 0x8005ce <menu_input>
								{
									trim[CH5] -= menu_input;
									
									// Trim limit
									if (trim[CH5] > TRIM_LIM)
										trim[CH5] = TRIM_LIM;
    28e2:	0f 2e       	mov	r0, r31
    28e4:	f9 e0       	ldi	r31, 0x09	; 9
    28e6:	7f 2e       	mov	r7, r31
    28e8:	f0 2d       	mov	r31, r0
						{
							menu_input = 0;
							
							while (1)
							{
								enter = menu_read();
    28ea:	0e 94 fd 05 	call	0xbfa	; 0xbfa <menu_read>
								
								// if menu button is pressed
								if (menu_input)
    28ee:	90 91 ce 05 	lds	r25, 0x05CE	; 0x8005ce <menu_input>
    28f2:	99 23       	and	r25, r25
    28f4:	91 f0       	breq	.+36     	; 0x291a <menu+0xdc6>
								{
									trim[CH5] -= menu_input;
    28f6:	20 91 bb 05 	lds	r18, 0x05BB	; 0x8005bb <trim+0x4>
    28fa:	29 1b       	sub	r18, r25
									
									// Trim limit
									if (trim[CH5] > TRIM_LIM)
    28fc:	2a 30       	cpi	r18, 0x0A	; 10
    28fe:	1c f0       	brlt	.+6      	; 0x2906 <menu+0xdb2>
										trim[CH5] = TRIM_LIM;
    2900:	70 92 bb 05 	sts	0x05BB, r7	; 0x8005bb <trim+0x4>
    2904:	08 c0       	rjmp	.+16     	; 0x2916 <menu+0xdc2>
									else if (trim[CH5] < -TRIM_LIM)
    2906:	27 3f       	cpi	r18, 0xF7	; 247
    2908:	1c f0       	brlt	.+6      	; 0x2910 <menu+0xdbc>
								enter = menu_read();
								
								// if menu button is pressed
								if (menu_input)
								{
									trim[CH5] -= menu_input;
    290a:	20 93 bb 05 	sts	0x05BB, r18	; 0x8005bb <trim+0x4>
    290e:	03 c0       	rjmp	.+6      	; 0x2916 <menu+0xdc2>
									
									// Trim limit
									if (trim[CH5] > TRIM_LIM)
										trim[CH5] = TRIM_LIM;
									else if (trim[CH5] < -TRIM_LIM)
										trim[CH5] = -TRIM_LIM;
    2910:	f7 ef       	ldi	r31, 0xF7	; 247
    2912:	f0 93 bb 05 	sts	0x05BB, r31	; 0x8005bb <trim+0x4>
									
									menu_input = 0;
    2916:	10 92 ce 05 	sts	0x05CE, r1	; 0x8005ce <menu_input>
								}
								
								// Exit
								if (enter)
    291a:	88 23       	and	r24, r24
    291c:	21 f0       	breq	.+8      	; 0x2926 <menu+0xdd2>
								{
									menu_input = 4;
    291e:	84 e0       	ldi	r24, 0x04	; 4
    2920:	80 93 ce 05 	sts	0x05CE, r24	; 0x8005ce <menu_input>
									break;
    2924:	2e c0       	rjmp	.+92     	; 0x2982 <menu+0xe2e>
								}
								// Display
								if (trim[CH5] < 0)
    2926:	80 91 bb 05 	lds	r24, 0x05BB	; 0x8005bb <trim+0x4>
    292a:	88 23       	and	r24, r24
    292c:	44 f4       	brge	.+16     	; 0x293e <menu+0xdea>
								{
									menu_display_l[5] = '-';
    292e:	f1 01       	movw	r30, r2
    2930:	a5 82       	std	Z+5, r10	; 0x05
									menu_display_l[6] = 48 - trim[CH5];
    2932:	f4 2d       	mov	r31, r4
    2934:	f8 1b       	sub	r31, r24
    2936:	8f 2f       	mov	r24, r31
    2938:	f1 01       	movw	r30, r2
    293a:	86 83       	std	Z+6, r24	; 0x06
    293c:	04 c0       	rjmp	.+8      	; 0x2946 <menu+0xdf2>
								}
								else
								{
									menu_display_l[5] = ' ';
    293e:	f1 01       	movw	r30, r2
    2940:	b5 82       	std	Z+5, r11	; 0x05
									menu_display_l[6] = trim[CH5] + 48;
    2942:	80 5d       	subi	r24, 0xD0	; 208
    2944:	86 83       	std	Z+6, r24	; 0x06
								}
								
								// LCD drive
								LCD_home();
    2946:	0e 94 6a 02 	call	0x4d4	; 0x4d4 <LCD_home>
								LCD_NWL();
    294a:	0e 94 5c 02 	call	0x4b8	; 0x4b8 <LCD_NWL>
								LCD_string(menu_display_l, 16);
    294e:	60 e1       	ldi	r22, 0x10	; 16
    2950:	c1 01       	movw	r24, r2
    2952:	0e 94 db 01 	call	0x3b6	; 0x3b6 <LCD_string>
								
								// Buzzer drive
								buzzer_switch();
    2956:	0e 94 1b 09 	call	0x1236	; 0x1236 <buzzer_switch>
								
							} //while (1)
    295a:	c7 cf       	rjmp	.-114    	; 0x28ea <menu+0xd96>
							
						} //if (enter)
					} //if (menu_input == 4)
					
					// Exit
					if (menu_input == 5)
    295c:	90 91 ce 05 	lds	r25, 0x05CE	; 0x8005ce <menu_input>
    2960:	95 30       	cpi	r25, 0x05	; 5
    2962:	79 f4       	brne	.+30     	; 0x2982 <menu+0xe2e>
					{
						// Cursor move
						menu_display_l[0] = ' ';
    2964:	f1 01       	movw	r30, r2
    2966:	b0 82       	st	Z, r11
						menu_display_l[8] = '>';
    2968:	9e e3       	ldi	r25, 0x3E	; 62
    296a:	90 87       	std	Z+8, r25	; 0x08
						
						if (enter)
    296c:	88 23       	and	r24, r24
    296e:	49 f0       	breq	.+18     	; 0x2982 <menu+0xe2e>
    2970:	76 2c       	mov	r7, r6
    2972:	69 2c       	mov	r6, r9
    2974:	89 80       	ldd	r8, Y+1	; 0x01
    2976:	9a 80       	ldd	r9, Y+2	; 0x02
						{
							menu_input = menu_input_temp;
    2978:	84 e0       	ldi	r24, 0x04	; 4
    297a:	80 93 ce 05 	sts	0x05CE, r24	; 0x8005ce <menu_input>
							break;
    297e:	0c 94 79 20 	jmp	0x40f2	; 0x40f2 <menu+0x259e>
						}
					}
					
					
					// LCD drive
					LCD_home();
    2982:	0e 94 6a 02 	call	0x4d4	; 0x4d4 <LCD_home>
					LCD_string(menu_display_h, 16);
    2986:	60 e1       	ldi	r22, 0x10	; 16
    2988:	c8 01       	movw	r24, r16
    298a:	0e 94 db 01 	call	0x3b6	; 0x3b6 <LCD_string>
					LCD_NWL();
    298e:	0e 94 5c 02 	call	0x4b8	; 0x4b8 <LCD_NWL>
					LCD_string(menu_display_l, 16);
    2992:	60 e1       	ldi	r22, 0x10	; 16
    2994:	c1 01       	movw	r24, r2
    2996:	0e 94 db 01 	call	0x3b6	; 0x3b6 <LCD_string>
					
					
					// Buzzer drive
					buzzer_switch();
    299a:	0e 94 1b 09 	call	0x1236	; 0x1236 <buzzer_switch>
					
				} // while
    299e:	db cd       	rjmp	.-1098   	; 0x2556 <menu+0xa02>
			} // if (enter)
		} // else if (menu_input == 4)
		
		
		////////// Servo delay ///////////////////////////////////////////////////
		else if (menu_input == 5)
    29a0:	95 30       	cpi	r25, 0x05	; 5
    29a2:	09 f0       	breq	.+2      	; 0x29a6 <menu+0xe52>
    29a4:	92 c0       	rjmp	.+292    	; 0x2aca <menu+0xf76>
		{
			// Display
			menu_display_h = " Trim           ";
			menu_display_l = ">Servo Delay    ";
			
			if (enter)
    29a6:	88 23       	and	r24, r24
    29a8:	11 f4       	brne	.+4      	; 0x29ae <menu+0xe5a>
    29aa:	0c 94 32 20 	jmp	0x4064	; 0x4064 <menu+0x2510>
			{
				menu_input_temp = menu_input;
				menu_input = 0;
    29ae:	10 92 ce 05 	sts	0x05CE, r1	; 0x8005ce <menu_input>
				LCD_CLEAR();
    29b2:	0e 94 60 02 	call	0x4c0	; 0x4c0 <LCD_CLEAR>
				{
					enter = menu_read();
					if (menu_input < 0)
						menu_input = 0;
					else if (menu_input > 2)
						menu_input = 2;
    29b6:	68 94       	set
    29b8:	cc 24       	eor	r12, r12
    29ba:	c1 f8       	bld	r12, 1
					
					// CH5
					if (mixing_val_3 & SERVO_DEL_1)
						menu_display_h[6] = 'D';
					else
						menu_display_h[6] = ' ';
    29bc:	68 94       	set
    29be:	ff 24       	eor	r15, r15
    29c0:	f5 f8       	bld	r15, 5
						menu_input = 2;
					
					
					// CH5
					if (mixing_val_3 & SERVO_DEL_1)
						menu_display_h[6] = 'D';
    29c2:	0f 2e       	mov	r0, r31
    29c4:	f4 e4       	ldi	r31, 0x44	; 68
    29c6:	df 2e       	mov	r13, r31
    29c8:	f0 2d       	mov	r31, r0
							menu_input = menu_input_temp;
							break;
						}
					}
					else
						menu_display_l[0] = ' ';
    29ca:	06 e6       	ldi	r16, 0x66	; 102
    29cc:	12 e0       	ldi	r17, 0x02	; 2
					// Exit
					if (menu_input == 2)
					{
						// Cursor move
						menu_display_h[8] = ' ';
						menu_display_l[0] = '>';
    29ce:	0f 2e       	mov	r0, r31
    29d0:	fe e3       	ldi	r31, 0x3E	; 62
    29d2:	ef 2e       	mov	r14, r31
    29d4:	f0 2d       	mov	r31, r0
				menu_display_h = " CH5     CH6    ";
				menu_display_l = " Exit           ";
				
				while (1)
				{
					enter = menu_read();
    29d6:	0e 94 fd 05 	call	0xbfa	; 0xbfa <menu_read>
					if (menu_input < 0)
    29da:	90 91 ce 05 	lds	r25, 0x05CE	; 0x8005ce <menu_input>
    29de:	99 23       	and	r25, r25
    29e0:	1c f4       	brge	.+6      	; 0x29e8 <menu+0xe94>
						menu_input = 0;
    29e2:	10 92 ce 05 	sts	0x05CE, r1	; 0x8005ce <menu_input>
    29e6:	04 c0       	rjmp	.+8      	; 0x29f0 <menu+0xe9c>
					else if (menu_input > 2)
    29e8:	93 30       	cpi	r25, 0x03	; 3
    29ea:	14 f0       	brlt	.+4      	; 0x29f0 <menu+0xe9c>
						menu_input = 2;
    29ec:	c0 92 ce 05 	sts	0x05CE, r12	; 0x8005ce <menu_input>
					
					
					// CH5
					if (mixing_val_3 & SERVO_DEL_1)
    29f0:	90 91 d6 05 	lds	r25, 0x05D6	; 0x8005d6 <mixing_val_3>
    29f4:	94 ff       	sbrs	r25, 4
    29f6:	03 c0       	rjmp	.+6      	; 0x29fe <menu+0xeaa>
						menu_display_h[6] = 'D';
    29f8:	d0 92 26 03 	sts	0x0326, r13	; 0x800326 <battery_alarm+0x1e2>
    29fc:	02 c0       	rjmp	.+4      	; 0x2a02 <menu+0xeae>
					else
						menu_display_h[6] = ' ';
    29fe:	f0 92 26 03 	sts	0x0326, r15	; 0x800326 <battery_alarm+0x1e2>
					// test
					if (mixing_val_3 & SERVO_DEL_2)
    2a02:	90 91 d6 05 	lds	r25, 0x05D6	; 0x8005d6 <mixing_val_3>
    2a06:	95 ff       	sbrs	r25, 5
    2a08:	03 c0       	rjmp	.+6      	; 0x2a10 <menu+0xebc>
						menu_display_h[14] = 'D';
    2a0a:	d0 92 2e 03 	sts	0x032E, r13	; 0x80032e <battery_alarm+0x1ea>
    2a0e:	02 c0       	rjmp	.+4      	; 0x2a14 <menu+0xec0>
					else
						menu_display_h[14] = ' ';
    2a10:	f0 92 2e 03 	sts	0x032E, r15	; 0x80032e <battery_alarm+0x1ea>
					
					
					// Cursor move & val set //////////
					// CH5
					if (menu_input == 0)
    2a14:	90 91 ce 05 	lds	r25, 0x05CE	; 0x8005ce <menu_input>
    2a18:	91 11       	cpse	r25, r1
    2a1a:	15 c0       	rjmp	.+42     	; 0x2a46 <menu+0xef2>
					{
						// Cursor move
						menu_display_h[0] = '>';
    2a1c:	e0 e2       	ldi	r30, 0x20	; 32
    2a1e:	f3 e0       	ldi	r31, 0x03	; 3
    2a20:	e0 82       	st	Z, r14
						
						if (enter)
    2a22:	88 23       	and	r24, r24
    2a24:	f1 f1       	breq	.+124    	; 0x2aa2 <menu+0xf4e>
						{
							if (mixing_val_3 & SERVO_DEL_1)
    2a26:	80 91 d6 05 	lds	r24, 0x05D6	; 0x8005d6 <mixing_val_3>
    2a2a:	84 ff       	sbrs	r24, 4
    2a2c:	06 c0       	rjmp	.+12     	; 0x2a3a <menu+0xee6>
								mixing_val_3 &= ~SERVO_DEL_1;
    2a2e:	80 91 d6 05 	lds	r24, 0x05D6	; 0x8005d6 <mixing_val_3>
    2a32:	8f 7e       	andi	r24, 0xEF	; 239
    2a34:	80 93 d6 05 	sts	0x05D6, r24	; 0x8005d6 <mixing_val_3>
    2a38:	34 c0       	rjmp	.+104    	; 0x2aa2 <menu+0xf4e>
							else
								mixing_val_3 |= SERVO_DEL_1;
    2a3a:	80 91 d6 05 	lds	r24, 0x05D6	; 0x8005d6 <mixing_val_3>
    2a3e:	80 61       	ori	r24, 0x10	; 16
    2a40:	80 93 d6 05 	sts	0x05D6, r24	; 0x8005d6 <mixing_val_3>
    2a44:	2e c0       	rjmp	.+92     	; 0x2aa2 <menu+0xf4e>
						}
					}
					else
						menu_display_h[0] = ' ';
    2a46:	e0 e2       	ldi	r30, 0x20	; 32
    2a48:	f3 e0       	ldi	r31, 0x03	; 3
    2a4a:	f0 82       	st	Z, r15
					
					
					// Ch6
					if (menu_input == 1)
    2a4c:	91 30       	cpi	r25, 0x01	; 1
    2a4e:	a1 f4       	brne	.+40     	; 0x2a78 <menu+0xf24>
					{
						// Cursor move
						menu_display_h[8] = '>';
    2a50:	e0 92 28 03 	sts	0x0328, r14	; 0x800328 <battery_alarm+0x1e4>
						
						if (enter)
    2a54:	88 23       	and	r24, r24
    2a56:	39 f1       	breq	.+78     	; 0x2aa6 <menu+0xf52>
						{
							if (mixing_val_3 & SERVO_DEL_2)
    2a58:	80 91 d6 05 	lds	r24, 0x05D6	; 0x8005d6 <mixing_val_3>
    2a5c:	85 ff       	sbrs	r24, 5
    2a5e:	06 c0       	rjmp	.+12     	; 0x2a6c <menu+0xf18>
								mixing_val_3 &= ~SERVO_DEL_2;
    2a60:	80 91 d6 05 	lds	r24, 0x05D6	; 0x8005d6 <mixing_val_3>
    2a64:	8f 7d       	andi	r24, 0xDF	; 223
    2a66:	80 93 d6 05 	sts	0x05D6, r24	; 0x8005d6 <mixing_val_3>
    2a6a:	1d c0       	rjmp	.+58     	; 0x2aa6 <menu+0xf52>
							else
								mixing_val_3 |= SERVO_DEL_2;
    2a6c:	80 91 d6 05 	lds	r24, 0x05D6	; 0x8005d6 <mixing_val_3>
    2a70:	80 62       	ori	r24, 0x20	; 32
    2a72:	80 93 d6 05 	sts	0x05D6, r24	; 0x8005d6 <mixing_val_3>
    2a76:	17 c0       	rjmp	.+46     	; 0x2aa6 <menu+0xf52>
					else
						menu_display_h[8] = ' ';
					
					
					// Exit
					if (menu_input == 2)
    2a78:	92 30       	cpi	r25, 0x02	; 2
    2a7a:	99 f4       	brne	.+38     	; 0x2aa2 <menu+0xf4e>
					{
						// Cursor move
						menu_display_h[8] = ' ';
    2a7c:	f0 92 28 03 	sts	0x0328, r15	; 0x800328 <battery_alarm+0x1e4>
						menu_display_l[0] = '>';
    2a80:	f8 01       	movw	r30, r16
    2a82:	e0 82       	st	Z, r14
						
						if (enter)
    2a84:	88 23       	and	r24, r24
    2a86:	89 f0       	breq	.+34     	; 0x2aaa <menu+0xf56>
						{
							menu_input = menu_input_temp;
    2a88:	85 e0       	ldi	r24, 0x05	; 5
    2a8a:	80 93 ce 05 	sts	0x05CE, r24	; 0x8005ce <menu_input>
				menu_input_temp = menu_input;
				menu_input = 0;
				LCD_CLEAR();
				// Display init
				menu_display_h = " CH5     CH6    ";
				menu_display_l = " Exit           ";
    2a8e:	0f 2e       	mov	r0, r31
    2a90:	f6 e6       	ldi	r31, 0x66	; 102
    2a92:	2f 2e       	mov	r2, r31
    2a94:	f2 e0       	ldi	r31, 0x02	; 2
    2a96:	3f 2e       	mov	r3, r31
    2a98:	f0 2d       	mov	r31, r0
			{
				menu_input_temp = menu_input;
				menu_input = 0;
				LCD_CLEAR();
				// Display init
				menu_display_h = " CH5     CH6    ";
    2a9a:	00 e2       	ldi	r16, 0x20	; 32
    2a9c:	13 e0       	ldi	r17, 0x03	; 3
						menu_display_l[0] = '>';
						
						if (enter)
						{
							menu_input = menu_input_temp;
							break;
    2a9e:	0c 94 79 20 	jmp	0x40f2	; 0x40f2 <menu+0x259e>
							else
								mixing_val_3 |= SERVO_DEL_2;
						}
					}
					else
						menu_display_h[8] = ' ';
    2aa2:	f0 92 28 03 	sts	0x0328, r15	; 0x800328 <battery_alarm+0x1e4>
							menu_input = menu_input_temp;
							break;
						}
					}
					else
						menu_display_l[0] = ' ';
    2aa6:	f8 01       	movw	r30, r16
    2aa8:	f0 82       	st	Z, r15
					
					
					// LCD drive
					LCD_string(menu_display_h, 16);
    2aaa:	60 e1       	ldi	r22, 0x10	; 16
    2aac:	80 e2       	ldi	r24, 0x20	; 32
    2aae:	93 e0       	ldi	r25, 0x03	; 3
    2ab0:	0e 94 db 01 	call	0x3b6	; 0x3b6 <LCD_string>
					LCD_NWL();
    2ab4:	0e 94 5c 02 	call	0x4b8	; 0x4b8 <LCD_NWL>
					LCD_string(menu_display_l, 16);
    2ab8:	60 e1       	ldi	r22, 0x10	; 16
    2aba:	c8 01       	movw	r24, r16
    2abc:	0e 94 db 01 	call	0x3b6	; 0x3b6 <LCD_string>
					LCD_home();
    2ac0:	0e 94 6a 02 	call	0x4d4	; 0x4d4 <LCD_home>
					
					// Buzzer drive
					buzzer_switch();
    2ac4:	0e 94 1b 09 	call	0x1236	; 0x1236 <buzzer_switch>
					
				} // while (1)
    2ac8:	86 cf       	rjmp	.-244    	; 0x29d6 <menu+0xe82>
			}// if (enter)
		} // else if (menu_input == 5)
		
		
		////////// On board airplane battery charger control /////////////////////
		else if (menu_input == 6)
    2aca:	96 30       	cpi	r25, 0x06	; 6
    2acc:	09 f0       	breq	.+2      	; 0x2ad0 <menu+0xf7c>
    2ace:	3f c1       	rjmp	.+638    	; 0x2d4e <menu+0x11fa>
		{
			// Display
			menu_display_h = " Servo Delay    ";
			menu_display_l = ">Bat Charger    ";
			
			if (enter)
    2ad0:	88 23       	and	r24, r24
    2ad2:	11 f4       	brne	.+4      	; 0x2ad8 <menu+0xf84>
    2ad4:	0c 94 3b 20 	jmp	0x4076	; 0x4076 <menu+0x2522>
			{
				menu_input_temp = menu_input;
				menu_input = 0;
    2ad8:	10 92 ce 05 	sts	0x05CE, r1	; 0x8005ce <menu_input>
				
				// Display init
				menu_display_h = "Battery Charger ";
				menu_display_l = " 30 mah     Exit";
				
				LCD_CLEAR();
    2adc:	0e 94 60 02 	call	0x4c0	; 0x4c0 <LCD_CLEAR>
				LCD_string(menu_display_h, 16);
    2ae0:	60 e1       	ldi	r22, 0x10	; 16
    2ae2:	82 e4       	ldi	r24, 0x42	; 66
    2ae4:	93 e0       	ldi	r25, 0x03	; 3
    2ae6:	0e 94 db 01 	call	0x3b6	; 0x3b6 <LCD_string>
				{
					enter = menu_read();
					if (menu_input < 0)
						menu_input = 0;
					else if (menu_input > 2)
						menu_input = 2;
    2aea:	68 94       	set
    2aec:	22 24       	eor	r2, r2
    2aee:	21 f8       	bld	r2, 1
							menu_display_l[2] = '5';
							menu_display_l[3] = ' ';
							break;
						
						case CHG_120MAH:
							menu_display_l[1] = '1';
    2af0:	0f 2e       	mov	r0, r31
    2af2:	f1 e3       	ldi	r31, 0x31	; 49
    2af4:	bf 2e       	mov	r11, r31
    2af6:	f0 2d       	mov	r31, r0
							menu_display_l[2] = '2';
    2af8:	0f 2e       	mov	r0, r31
    2afa:	f2 e3       	ldi	r31, 0x32	; 50
    2afc:	3f 2e       	mov	r3, r31
    2afe:	f0 2d       	mov	r31, r0
							menu_display_l[3] = '0';
    2b00:	10 e3       	ldi	r17, 0x30	; 48
							break;
						
						case CHG_150MAH:
							menu_display_l[1] = '1';
							menu_display_l[2] = '5';
    2b02:	0f 2e       	mov	r0, r31
    2b04:	f5 e3       	ldi	r31, 0x35	; 53
    2b06:	cf 2e       	mov	r12, r31
    2b08:	f0 2d       	mov	r31, r0
							menu_display_l[3] = '0';
							break;
						
						case CHG_300MAH:
							menu_display_l[1] = '3';
    2b0a:	0f 2e       	mov	r0, r31
    2b0c:	f3 e3       	ldi	r31, 0x33	; 51
    2b0e:	df 2e       	mov	r13, r31
    2b10:	f0 2d       	mov	r31, r0
									
									case 4:
										batCharger &= ~BATCHARG_CAP_MASK;
										batCharger |= CHG_300MAH;
										
										menu_display_l[1] = '3';
    2b12:	21 e3       	ldi	r18, 0x31	; 49
    2b14:	33 e0       	ldi	r19, 0x03	; 3
    2b16:	f2 2e       	mov	r15, r18
    2b18:	03 2f       	mov	r16, r19
				LCD_CLEAR();
				LCD_string(menu_display_h, 16);
				
				while (1)
				{
					enter = menu_read();
    2b1a:	0e 94 fd 05 	call	0xbfa	; 0xbfa <menu_read>
					if (menu_input < 0)
    2b1e:	90 91 ce 05 	lds	r25, 0x05CE	; 0x8005ce <menu_input>
    2b22:	99 23       	and	r25, r25
    2b24:	1c f4       	brge	.+6      	; 0x2b2c <menu+0xfd8>
						menu_input = 0;
    2b26:	10 92 ce 05 	sts	0x05CE, r1	; 0x8005ce <menu_input>
    2b2a:	04 c0       	rjmp	.+8      	; 0x2b34 <menu+0xfe0>
					else if (menu_input > 2)
    2b2c:	93 30       	cpi	r25, 0x03	; 3
    2b2e:	14 f0       	brlt	.+4      	; 0x2b34 <menu+0xfe0>
						menu_input = 2;
    2b30:	20 92 ce 05 	sts	0x05CE, r2	; 0x8005ce <menu_input>
					
					// Display & stat /////////////////
					if (batCharger & ON)
    2b34:	90 91 a8 05 	lds	r25, 0x05A8	; 0x8005a8 <batCharger>
    2b38:	90 ff       	sbrs	r25, 0
    2b3a:	0a c0       	rjmp	.+20     	; 0x2b50 <menu+0xffc>
					{
						menu_display_l[8]  = 'O';
    2b3c:	9f e4       	ldi	r25, 0x4F	; 79
    2b3e:	90 93 39 03 	sts	0x0339, r25	; 0x800339 <battery_alarm+0x1f5>
						menu_display_l[9]  = 'n';
    2b42:	9e e6       	ldi	r25, 0x6E	; 110
    2b44:	90 93 3a 03 	sts	0x033A, r25	; 0x80033a <battery_alarm+0x1f6>
						menu_display_l[10] = ' ';
    2b48:	90 e2       	ldi	r25, 0x20	; 32
    2b4a:	90 93 3b 03 	sts	0x033B, r25	; 0x80033b <battery_alarm+0x1f7>
    2b4e:	08 c0       	rjmp	.+16     	; 0x2b60 <menu+0x100c>
					}
					else
					{
						menu_display_l[8]  = 'O';
    2b50:	9f e4       	ldi	r25, 0x4F	; 79
    2b52:	90 93 39 03 	sts	0x0339, r25	; 0x800339 <battery_alarm+0x1f5>
						menu_display_l[9]  = 'f';
    2b56:	96 e6       	ldi	r25, 0x66	; 102
    2b58:	90 93 3a 03 	sts	0x033A, r25	; 0x80033a <battery_alarm+0x1f6>
						menu_display_l[10] = 'f';
    2b5c:	90 93 3b 03 	sts	0x033B, r25	; 0x80033b <battery_alarm+0x1f7>
					}
					
					switch (batCharger&BATCHARG_CAP_MASK)
    2b60:	20 91 a8 05 	lds	r18, 0x05A8	; 0x8005a8 <batCharger>
    2b64:	92 2f       	mov	r25, r18
    2b66:	9c 71       	andi	r25, 0x1C	; 28
    2b68:	9c 30       	cpi	r25, 0x0C	; 12
    2b6a:	e1 f0       	breq	.+56     	; 0x2ba4 <menu+0x1050>
    2b6c:	28 f4       	brcc	.+10     	; 0x2b78 <menu+0x1024>
    2b6e:	94 30       	cpi	r25, 0x04	; 4
    2b70:	41 f0       	breq	.+16     	; 0x2b82 <menu+0x102e>
    2b72:	98 30       	cpi	r25, 0x08	; 8
    2b74:	71 f0       	breq	.+28     	; 0x2b92 <menu+0x103e>
    2b76:	2a c0       	rjmp	.+84     	; 0x2bcc <menu+0x1078>
    2b78:	90 31       	cpi	r25, 0x10	; 16
    2b7a:	d9 f0       	breq	.+54     	; 0x2bb2 <menu+0x105e>
    2b7c:	94 31       	cpi	r25, 0x14	; 20
    2b7e:	01 f1       	breq	.+64     	; 0x2bc0 <menu+0x106c>
    2b80:	25 c0       	rjmp	.+74     	; 0x2bcc <menu+0x1078>
					{
						case CHG_30MAH:
							menu_display_l[1] = '3';
    2b82:	d0 92 32 03 	sts	0x0332, r13	; 0x800332 <battery_alarm+0x1ee>
							menu_display_l[2] = '0';
    2b86:	10 93 33 03 	sts	0x0333, r17	; 0x800333 <battery_alarm+0x1ef>
							menu_display_l[3] = ' ';
    2b8a:	90 e2       	ldi	r25, 0x20	; 32
    2b8c:	90 93 34 03 	sts	0x0334, r25	; 0x800334 <battery_alarm+0x1f0>
							break;
    2b90:	1d c0       	rjmp	.+58     	; 0x2bcc <menu+0x1078>
						
						case CHG_85MAH:
							menu_display_l[1] = '8';
    2b92:	98 e3       	ldi	r25, 0x38	; 56
    2b94:	90 93 32 03 	sts	0x0332, r25	; 0x800332 <battery_alarm+0x1ee>
							menu_display_l[2] = '5';
    2b98:	c0 92 33 03 	sts	0x0333, r12	; 0x800333 <battery_alarm+0x1ef>
							menu_display_l[3] = ' ';
    2b9c:	90 e2       	ldi	r25, 0x20	; 32
    2b9e:	90 93 34 03 	sts	0x0334, r25	; 0x800334 <battery_alarm+0x1f0>
							break;
    2ba2:	14 c0       	rjmp	.+40     	; 0x2bcc <menu+0x1078>
						
						case CHG_120MAH:
							menu_display_l[1] = '1';
    2ba4:	b0 92 32 03 	sts	0x0332, r11	; 0x800332 <battery_alarm+0x1ee>
							menu_display_l[2] = '2';
    2ba8:	30 92 33 03 	sts	0x0333, r3	; 0x800333 <battery_alarm+0x1ef>
							menu_display_l[3] = '0';
    2bac:	10 93 34 03 	sts	0x0334, r17	; 0x800334 <battery_alarm+0x1f0>
							break;
    2bb0:	0d c0       	rjmp	.+26     	; 0x2bcc <menu+0x1078>
						
						case CHG_150MAH:
							menu_display_l[1] = '1';
    2bb2:	b0 92 32 03 	sts	0x0332, r11	; 0x800332 <battery_alarm+0x1ee>
							menu_display_l[2] = '5';
    2bb6:	c0 92 33 03 	sts	0x0333, r12	; 0x800333 <battery_alarm+0x1ef>
							menu_display_l[3] = '0';
    2bba:	10 93 34 03 	sts	0x0334, r17	; 0x800334 <battery_alarm+0x1f0>
							break;
    2bbe:	06 c0       	rjmp	.+12     	; 0x2bcc <menu+0x1078>
						
						case CHG_300MAH:
							menu_display_l[1] = '3';
    2bc0:	d0 92 32 03 	sts	0x0332, r13	; 0x800332 <battery_alarm+0x1ee>
							menu_display_l[2] = '0';
    2bc4:	10 93 33 03 	sts	0x0333, r17	; 0x800333 <battery_alarm+0x1ef>
							menu_display_l[3] = '0';
    2bc8:	10 93 34 03 	sts	0x0334, r17	; 0x800334 <battery_alarm+0x1f0>
						
					}
					
					
					// Setting
					if (menu_input == 0)
    2bcc:	90 91 ce 05 	lds	r25, 0x05CE	; 0x8005ce <menu_input>
    2bd0:	91 11       	cpse	r25, r1
    2bd2:	83 c0       	rjmp	.+262    	; 0x2cda <menu+0x1186>
					{
						menu_display_l[0]  = '>';
    2bd4:	9e e3       	ldi	r25, 0x3E	; 62
    2bd6:	e1 e3       	ldi	r30, 0x31	; 49
    2bd8:	f3 e0       	ldi	r31, 0x03	; 3
    2bda:	90 83       	st	Z, r25
						menu_display_l[7]  = ' ';
    2bdc:	90 e2       	ldi	r25, 0x20	; 32
    2bde:	90 93 38 03 	sts	0x0338, r25	; 0x800338 <battery_alarm+0x1f4>
						menu_display_l[11] = ' ';
    2be2:	90 93 3c 03 	sts	0x033C, r25	; 0x80033c <battery_alarm+0x1f8>
						
						if (enter)
    2be6:	88 23       	and	r24, r24
    2be8:	09 f4       	brne	.+2      	; 0x2bec <menu+0x1098>
    2bea:	a5 c0       	rjmp	.+330    	; 0x2d36 <menu+0x11e2>
									
									case 1:
										batCharger &= ~BATCHARG_CAP_MASK;
										batCharger |= CHG_85MAH;
										
										menu_display_l[1] = '8';
    2bec:	0f 2e       	mov	r0, r31
    2bee:	f8 e3       	ldi	r31, 0x38	; 56
    2bf0:	4f 2e       	mov	r4, r31
    2bf2:	f0 2d       	mov	r31, r0
										menu_display_l[2] = '5';
										menu_display_l[3] = ' ';
    2bf4:	68 94       	set
    2bf6:	aa 24       	eor	r10, r10
    2bf8:	a5 f8       	bld	r10, 5
							{
								enter = menu_read();
								if (menu_input < 0)
									menu_input = 0;
								else if (menu_input > 4)
									menu_input = 4;
    2bfa:	68 94       	set
    2bfc:	ee 24       	eor	r14, r14
    2bfe:	e2 f8       	bld	r14, 2
						
						if (enter)
						{
							while(1)
							{
								enter = menu_read();
    2c00:	0e 94 fd 05 	call	0xbfa	; 0xbfa <menu_read>
								if (menu_input < 0)
    2c04:	90 91 ce 05 	lds	r25, 0x05CE	; 0x8005ce <menu_input>
    2c08:	99 23       	and	r25, r25
    2c0a:	1c f4       	brge	.+6      	; 0x2c12 <menu+0x10be>
									menu_input = 0;
    2c0c:	10 92 ce 05 	sts	0x05CE, r1	; 0x8005ce <menu_input>
    2c10:	13 c0       	rjmp	.+38     	; 0x2c38 <menu+0x10e4>
								else if (menu_input > 4)
    2c12:	95 30       	cpi	r25, 0x05	; 5
    2c14:	1c f0       	brlt	.+6      	; 0x2c1c <menu+0x10c8>
									menu_input = 4;
    2c16:	e0 92 ce 05 	sts	0x05CE, r14	; 0x8005ce <menu_input>
    2c1a:	42 c0       	rjmp	.+132    	; 0x2ca0 <menu+0x114c>
								
								switch (menu_input)
    2c1c:	92 30       	cpi	r25, 0x02	; 2
    2c1e:	31 f1       	breq	.+76     	; 0x2c6c <menu+0x1118>
    2c20:	2c f4       	brge	.+10     	; 0x2c2c <menu+0x10d8>
    2c22:	99 23       	and	r25, r25
    2c24:	49 f0       	breq	.+18     	; 0x2c38 <menu+0x10e4>
    2c26:	91 30       	cpi	r25, 0x01	; 1
    2c28:	a1 f0       	breq	.+40     	; 0x2c52 <menu+0x10fe>
    2c2a:	46 c0       	rjmp	.+140    	; 0x2cb8 <menu+0x1164>
    2c2c:	93 30       	cpi	r25, 0x03	; 3
    2c2e:	59 f1       	breq	.+86     	; 0x2c86 <menu+0x1132>
    2c30:	94 30       	cpi	r25, 0x04	; 4
    2c32:	09 f0       	breq	.+2      	; 0x2c36 <menu+0x10e2>
    2c34:	41 c0       	rjmp	.+130    	; 0x2cb8 <menu+0x1164>
    2c36:	34 c0       	rjmp	.+104    	; 0x2ca0 <menu+0x114c>
								{
									case 0:
										batCharger &= ~BATCHARG_CAP_MASK;
										batCharger |= CHG_30MAH;
    2c38:	90 91 a8 05 	lds	r25, 0x05A8	; 0x8005a8 <batCharger>
    2c3c:	93 7e       	andi	r25, 0xE3	; 227
    2c3e:	94 60       	ori	r25, 0x04	; 4
    2c40:	90 93 a8 05 	sts	0x05A8, r25	; 0x8005a8 <batCharger>
									
										menu_display_l[1] = '3';
    2c44:	d0 92 32 03 	sts	0x0332, r13	; 0x800332 <battery_alarm+0x1ee>
										menu_display_l[2] = '0';
    2c48:	10 93 33 03 	sts	0x0333, r17	; 0x800333 <battery_alarm+0x1ef>
										menu_display_l[3] = ' ';
    2c4c:	a0 92 34 03 	sts	0x0334, r10	; 0x800334 <battery_alarm+0x1f0>
										break;
    2c50:	33 c0       	rjmp	.+102    	; 0x2cb8 <menu+0x1164>
									
									case 1:
										batCharger &= ~BATCHARG_CAP_MASK;
										batCharger |= CHG_85MAH;
    2c52:	90 91 a8 05 	lds	r25, 0x05A8	; 0x8005a8 <batCharger>
    2c56:	93 7e       	andi	r25, 0xE3	; 227
    2c58:	98 60       	ori	r25, 0x08	; 8
    2c5a:	90 93 a8 05 	sts	0x05A8, r25	; 0x8005a8 <batCharger>
										
										menu_display_l[1] = '8';
    2c5e:	40 92 32 03 	sts	0x0332, r4	; 0x800332 <battery_alarm+0x1ee>
										menu_display_l[2] = '5';
    2c62:	c0 92 33 03 	sts	0x0333, r12	; 0x800333 <battery_alarm+0x1ef>
										menu_display_l[3] = ' ';
    2c66:	a0 92 34 03 	sts	0x0334, r10	; 0x800334 <battery_alarm+0x1f0>
										break;
    2c6a:	26 c0       	rjmp	.+76     	; 0x2cb8 <menu+0x1164>
									
									case 2:
										batCharger &= ~BATCHARG_CAP_MASK;
										batCharger |= CHG_120MAH;
    2c6c:	90 91 a8 05 	lds	r25, 0x05A8	; 0x8005a8 <batCharger>
    2c70:	93 7e       	andi	r25, 0xE3	; 227
    2c72:	9c 60       	ori	r25, 0x0C	; 12
    2c74:	90 93 a8 05 	sts	0x05A8, r25	; 0x8005a8 <batCharger>
										
										menu_display_l[1] = '1';
    2c78:	b0 92 32 03 	sts	0x0332, r11	; 0x800332 <battery_alarm+0x1ee>
										menu_display_l[2] = '2';
    2c7c:	30 92 33 03 	sts	0x0333, r3	; 0x800333 <battery_alarm+0x1ef>
										menu_display_l[3] = '0';
    2c80:	10 93 34 03 	sts	0x0334, r17	; 0x800334 <battery_alarm+0x1f0>
										break;
    2c84:	19 c0       	rjmp	.+50     	; 0x2cb8 <menu+0x1164>
									
									case 3:
										batCharger &= ~BATCHARG_CAP_MASK;
										batCharger |= CHG_150MAH;
    2c86:	90 91 a8 05 	lds	r25, 0x05A8	; 0x8005a8 <batCharger>
    2c8a:	93 7e       	andi	r25, 0xE3	; 227
    2c8c:	90 61       	ori	r25, 0x10	; 16
    2c8e:	90 93 a8 05 	sts	0x05A8, r25	; 0x8005a8 <batCharger>
										
										menu_display_l[1] = '1';
    2c92:	b0 92 32 03 	sts	0x0332, r11	; 0x800332 <battery_alarm+0x1ee>
										menu_display_l[2] = '5';
    2c96:	c0 92 33 03 	sts	0x0333, r12	; 0x800333 <battery_alarm+0x1ef>
										menu_display_l[3] = '0';
    2c9a:	10 93 34 03 	sts	0x0334, r17	; 0x800334 <battery_alarm+0x1f0>
									break;
    2c9e:	0c c0       	rjmp	.+24     	; 0x2cb8 <menu+0x1164>
									
									case 4:
										batCharger &= ~BATCHARG_CAP_MASK;
										batCharger |= CHG_300MAH;
    2ca0:	90 91 a8 05 	lds	r25, 0x05A8	; 0x8005a8 <batCharger>
    2ca4:	93 7e       	andi	r25, 0xE3	; 227
    2ca6:	94 61       	ori	r25, 0x14	; 20
    2ca8:	90 93 a8 05 	sts	0x05A8, r25	; 0x8005a8 <batCharger>
										
										menu_display_l[1] = '3';
    2cac:	d0 92 32 03 	sts	0x0332, r13	; 0x800332 <battery_alarm+0x1ee>
										menu_display_l[2] = '0';
    2cb0:	10 93 33 03 	sts	0x0333, r17	; 0x800333 <battery_alarm+0x1ef>
										menu_display_l[3] = '0';
    2cb4:	10 93 34 03 	sts	0x0334, r17	; 0x800334 <battery_alarm+0x1f0>
										break;
									
								}
								
								if (enter)
    2cb8:	88 23       	and	r24, r24
    2cba:	19 f0       	breq	.+6      	; 0x2cc2 <menu+0x116e>
								{
									menu_input = 0;
    2cbc:	10 92 ce 05 	sts	0x05CE, r1	; 0x8005ce <menu_input>
									break;
    2cc0:	3a c0       	rjmp	.+116    	; 0x2d36 <menu+0x11e2>
								} //if (enter)
								
								// LCD drive
								LCD_home();
    2cc2:	0e 94 6a 02 	call	0x4d4	; 0x4d4 <LCD_home>
								LCD_NWL();
    2cc6:	0e 94 5c 02 	call	0x4b8	; 0x4b8 <LCD_NWL>
								LCD_string(menu_display_l, 16);
    2cca:	60 e1       	ldi	r22, 0x10	; 16
    2ccc:	8f 2d       	mov	r24, r15
    2cce:	90 2f       	mov	r25, r16
    2cd0:	0e 94 db 01 	call	0x3b6	; 0x3b6 <LCD_string>
								
								// Buzzer drive
								buzzer_switch();
    2cd4:	0e 94 1b 09 	call	0x1236	; 0x1236 <buzzer_switch>
								
								
							} //while(1)
    2cd8:	93 cf       	rjmp	.-218    	; 0x2c00 <menu+0x10ac>
							
						}  // if (enter)
						
					} //if (menu_input == 0)
					else if (menu_input == 1)
    2cda:	91 30       	cpi	r25, 0x01	; 1
    2cdc:	a9 f4       	brne	.+42     	; 0x2d08 <menu+0x11b4>
					{
						menu_display_l[0]  = ' ';
    2cde:	90 e2       	ldi	r25, 0x20	; 32
    2ce0:	e1 e3       	ldi	r30, 0x31	; 49
    2ce2:	f3 e0       	ldi	r31, 0x03	; 3
    2ce4:	90 83       	st	Z, r25
						menu_display_l[7]  = '>';
    2ce6:	3e e3       	ldi	r19, 0x3E	; 62
    2ce8:	30 93 38 03 	sts	0x0338, r19	; 0x800338 <battery_alarm+0x1f4>
						menu_display_l[11] = ' ';
    2cec:	90 93 3c 03 	sts	0x033C, r25	; 0x80033c <battery_alarm+0x1f8>
						
						if (enter)
    2cf0:	88 23       	and	r24, r24
    2cf2:	09 f1       	breq	.+66     	; 0x2d36 <menu+0x11e2>
						{
							if (batCharger & ON)
    2cf4:	20 ff       	sbrs	r18, 0
    2cf6:	04 c0       	rjmp	.+8      	; 0x2d00 <menu+0x11ac>
								batCharger &= ~ON;
    2cf8:	2e 7f       	andi	r18, 0xFE	; 254
    2cfa:	20 93 a8 05 	sts	0x05A8, r18	; 0x8005a8 <batCharger>
    2cfe:	1b c0       	rjmp	.+54     	; 0x2d36 <menu+0x11e2>
							else
								batCharger |= ON;
    2d00:	21 60       	ori	r18, 0x01	; 1
    2d02:	20 93 a8 05 	sts	0x05A8, r18	; 0x8005a8 <batCharger>
    2d06:	17 c0       	rjmp	.+46     	; 0x2d36 <menu+0x11e2>
						}
						
					}
					else if (menu_input == 2)
    2d08:	92 30       	cpi	r25, 0x02	; 2
    2d0a:	a9 f4       	brne	.+42     	; 0x2d36 <menu+0x11e2>
					{
						// Cursor move
						menu_display_l[7]  = ' ';
    2d0c:	90 e2       	ldi	r25, 0x20	; 32
    2d0e:	90 93 38 03 	sts	0x0338, r25	; 0x800338 <battery_alarm+0x1f4>
						menu_display_l[11] = '>';
    2d12:	9e e3       	ldi	r25, 0x3E	; 62
    2d14:	90 93 3c 03 	sts	0x033C, r25	; 0x80033c <battery_alarm+0x1f8>
						
						if (enter)
    2d18:	88 23       	and	r24, r24
    2d1a:	69 f0       	breq	.+26     	; 0x2d36 <menu+0x11e2>
						{
							menu_input = menu_input_temp;
    2d1c:	86 e0       	ldi	r24, 0x06	; 6
    2d1e:	80 93 ce 05 	sts	0x05CE, r24	; 0x8005ce <menu_input>
				menu_input_temp = menu_input;
				menu_input = 0;
				
				// Display init
				menu_display_h = "Battery Charger ";
				menu_display_l = " 30 mah     Exit";
    2d22:	0f 2e       	mov	r0, r31
    2d24:	f1 e3       	ldi	r31, 0x31	; 49
    2d26:	2f 2e       	mov	r2, r31
    2d28:	f3 e0       	ldi	r31, 0x03	; 3
    2d2a:	3f 2e       	mov	r3, r31
    2d2c:	f0 2d       	mov	r31, r0
			{
				menu_input_temp = menu_input;
				menu_input = 0;
				
				// Display init
				menu_display_h = "Battery Charger ";
    2d2e:	02 e4       	ldi	r16, 0x42	; 66
    2d30:	13 e0       	ldi	r17, 0x03	; 3
						menu_display_l[11] = '>';
						
						if (enter)
						{
							menu_input = menu_input_temp;
							break;
    2d32:	0c 94 79 20 	jmp	0x40f2	; 0x40f2 <menu+0x259e>
					// Charger comm
					// i2c
					
					
					// LCD drive
					LCD_home();
    2d36:	0e 94 6a 02 	call	0x4d4	; 0x4d4 <LCD_home>
					LCD_NWL();
    2d3a:	0e 94 5c 02 	call	0x4b8	; 0x4b8 <LCD_NWL>
					LCD_string(menu_display_l, 16);
    2d3e:	60 e1       	ldi	r22, 0x10	; 16
    2d40:	81 e3       	ldi	r24, 0x31	; 49
    2d42:	93 e0       	ldi	r25, 0x03	; 3
    2d44:	0e 94 db 01 	call	0x3b6	; 0x3b6 <LCD_string>
					
					// Buzzer drive
					buzzer_switch();
    2d48:	0e 94 1b 09 	call	0x1236	; 0x1236 <buzzer_switch>
					
				}// while(1)
    2d4c:	e6 ce       	rjmp	.-564    	; 0x2b1a <menu+0xfc6>
			
		} // else if (menu_input == 6)
		
		
		////////// Servo/Actuator tester /////////////////////////////////////////
		else if (menu_input == 7)
    2d4e:	97 30       	cpi	r25, 0x07	; 7
    2d50:	c9 f5       	brne	.+114    	; 0x2dc4 <menu+0x1270>
		{
			// Display
			menu_display_h = " Bat Charger    ";
			menu_display_l = ">Servo Test     ";
			
			if (enter)
    2d52:	88 23       	and	r24, r24
    2d54:	11 f4       	brne	.+4      	; 0x2d5a <menu+0x1206>
    2d56:	0c 94 44 20 	jmp	0x4088	; 0x4088 <menu+0x2534>
			{
				menu_input_temp = menu_input;
				menu_input = 0;
    2d5a:	10 92 ce 05 	sts	0x05CE, r1	; 0x8005ce <menu_input>
				LCD_CLEAR();
    2d5e:	0e 94 60 02 	call	0x4c0	; 0x4c0 <LCD_CLEAR>
				menu_display_h = "Servo test (Rud)";
				lcd2 =           "          >Exit ";
    2d62:	8d e0       	ldi	r24, 0x0D	; 13
    2d64:	95 e0       	ldi	r25, 0x05	; 5
    2d66:	90 93 41 01 	sts	0x0141, r25	; 0x800141 <lcd2+0x1>
    2d6a:	80 93 40 01 	sts	0x0140, r24	; 0x800140 <lcd2>
				
				while (1)
				{
					stick_read();
    2d6e:	0e 94 e8 03 	call	0x7d0	; 0x7d0 <stick_read>
					LCD_guage(channel[RUDDER], 2);
    2d72:	62 e0       	ldi	r22, 0x02	; 2
    2d74:	80 91 bf 05 	lds	r24, 0x05BF	; 0x8005bf <channel+0x3>
    2d78:	0e 94 5b 09 	call	0x12b6	; 0x12b6 <LCD_guage>
					
					if (menu_read())
    2d7c:	0e 94 fd 05 	call	0xbfa	; 0xbfa <menu_read>
    2d80:	88 23       	and	r24, r24
    2d82:	69 f0       	breq	.+26     	; 0x2d9e <menu+0x124a>
					{
						menu_input = menu_input_temp;
    2d84:	87 e0       	ldi	r24, 0x07	; 7
    2d86:	80 93 ce 05 	sts	0x05CE, r24	; 0x8005ce <menu_input>
		////////// Servo/Actuator tester /////////////////////////////////////////
		else if (menu_input == 7)
		{
			// Display
			menu_display_h = " Bat Charger    ";
			menu_display_l = ">Servo Test     ";
    2d8a:	0f 2e       	mov	r0, r31
    2d8c:	f3 e5       	ldi	r31, 0x53	; 83
    2d8e:	2f 2e       	mov	r2, r31
    2d90:	f3 e0       	ldi	r31, 0x03	; 3
    2d92:	3f 2e       	mov	r3, r31
    2d94:	f0 2d       	mov	r31, r0
			if (enter)
			{
				menu_input_temp = menu_input;
				menu_input = 0;
				LCD_CLEAR();
				menu_display_h = "Servo test (Rud)";
    2d96:	04 e6       	ldi	r16, 0x64	; 100
    2d98:	13 e0       	ldi	r17, 0x03	; 3
					LCD_guage(channel[RUDDER], 2);
					
					if (menu_read())
					{
						menu_input = menu_input_temp;
						break;
    2d9a:	0c 94 79 20 	jmp	0x40f2	; 0x40f2 <menu+0x259e>
					// Communication with BO board
					//i2c
					
					
					// LCD drive
					LCD_string(menu_display_h, 16);
    2d9e:	60 e1       	ldi	r22, 0x10	; 16
    2da0:	84 e6       	ldi	r24, 0x64	; 100
    2da2:	93 e0       	ldi	r25, 0x03	; 3
    2da4:	0e 94 db 01 	call	0x3b6	; 0x3b6 <LCD_string>
					LCD_NWL();
    2da8:	0e 94 5c 02 	call	0x4b8	; 0x4b8 <LCD_NWL>
					LCD_string(lcd2, 16);
    2dac:	60 e1       	ldi	r22, 0x10	; 16
    2dae:	80 91 40 01 	lds	r24, 0x0140	; 0x800140 <lcd2>
    2db2:	90 91 41 01 	lds	r25, 0x0141	; 0x800141 <lcd2+0x1>
    2db6:	0e 94 db 01 	call	0x3b6	; 0x3b6 <LCD_string>
					LCD_home();
    2dba:	0e 94 6a 02 	call	0x4d4	; 0x4d4 <LCD_home>
					
					// Buzzer drive
					buzzer_switch();
    2dbe:	0e 94 1b 09 	call	0x1236	; 0x1236 <buzzer_switch>
				}
    2dc2:	d5 cf       	rjmp	.-86     	; 0x2d6e <menu+0x121a>
			}
		} // else if (menu_input == 7)
		
		
		////////// Mute //////////////////////////////////////////////////////////
		else if (menu_input == 8)
    2dc4:	98 30       	cpi	r25, 0x08	; 8
    2dc6:	09 f0       	breq	.+2      	; 0x2dca <menu+0x1276>
    2dc8:	71 c0       	rjmp	.+226    	; 0x2eac <menu+0x1358>
		{
			// Display
			menu_display_h = " Servo Test     ";
			menu_display_l = ">Speaker Mute   ";
			
			if (enter)
    2dca:	88 23       	and	r24, r24
    2dcc:	11 f4       	brne	.+4      	; 0x2dd2 <menu+0x127e>
    2dce:	0c 94 4d 20 	jmp	0x409a	; 0x409a <menu+0x2546>
			{
				menu_input_temp = menu_input;
				menu_input = 0;
    2dd2:	10 92 ce 05 	sts	0x05CE, r1	; 0x8005ce <menu_input>
				LCD_CLEAR();
    2dd6:	0e 94 60 02 	call	0x4c0	; 0x4c0 <LCD_CLEAR>
				{
					enter = menu_read();
					if (menu_input < 0)
						menu_input = 0;
					else if (menu_input > 1)
						menu_input = 1;
    2dda:	cc 24       	eor	r12, r12
    2ddc:	c3 94       	inc	r12
						menu_display_l[2] = 'n';
						menu_display_l[3] = ' ';
					}
					else
					{
						menu_display_l[1] = 'O';
    2dde:	0f 2e       	mov	r0, r31
    2de0:	ff e4       	ldi	r31, 0x4F	; 79
    2de2:	ff 2e       	mov	r15, r31
    2de4:	f0 2d       	mov	r31, r0
						menu_display_l[2] = 'f';
    2de6:	06 e6       	ldi	r16, 0x66	; 102
					
					// Value display
					if (buzzer_volume)
					{
						menu_display_l[1] = 'O';
						menu_display_l[2] = 'n';
    2de8:	0f 2e       	mov	r0, r31
    2dea:	fe e6       	ldi	r31, 0x6E	; 110
    2dec:	df 2e       	mov	r13, r31
    2dee:	f0 2d       	mov	r31, r0
						menu_display_l[3] = ' ';
    2df0:	10 e2       	ldi	r17, 0x20	; 32
					
					// Exit
					if (menu_input == 1)
					{
						// Cursor move
						menu_display_l[9] = '>';
    2df2:	0f 2e       	mov	r0, r31
    2df4:	fe e3       	ldi	r31, 0x3E	; 62
    2df6:	ef 2e       	mov	r14, r31
    2df8:	f0 2d       	mov	r31, r0
						if (enter)
						{
							if (buzzer_volume)
								buzzer_volume = 0;
							else
								buzzer_volume = 50;
    2dfa:	0f 2e       	mov	r0, r31
    2dfc:	f2 e3       	ldi	r31, 0x32	; 50
    2dfe:	bf 2e       	mov	r11, r31
    2e00:	f0 2d       	mov	r31, r0
				menu_display_h = " Speaker Volume ";
				menu_display_l = "          Exit  ";
				
				while (1)
				{
					enter = menu_read();
    2e02:	0e 94 fd 05 	call	0xbfa	; 0xbfa <menu_read>
					if (menu_input < 0)
    2e06:	90 91 ce 05 	lds	r25, 0x05CE	; 0x8005ce <menu_input>
    2e0a:	99 23       	and	r25, r25
    2e0c:	1c f4       	brge	.+6      	; 0x2e14 <menu+0x12c0>
						menu_input = 0;
    2e0e:	10 92 ce 05 	sts	0x05CE, r1	; 0x8005ce <menu_input>
    2e12:	04 c0       	rjmp	.+8      	; 0x2e1c <menu+0x12c8>
					else if (menu_input > 1)
    2e14:	92 30       	cpi	r25, 0x02	; 2
    2e16:	14 f0       	brlt	.+4      	; 0x2e1c <menu+0x12c8>
						menu_input = 1;
    2e18:	c0 92 ce 05 	sts	0x05CE, r12	; 0x8005ce <menu_input>
					
					// Value display
					if (buzzer_volume)
    2e1c:	90 91 da 05 	lds	r25, 0x05DA	; 0x8005da <buzzer_volume>
    2e20:	99 23       	and	r25, r25
    2e22:	39 f0       	breq	.+14     	; 0x2e32 <menu+0x12de>
					{
						menu_display_l[1] = 'O';
    2e24:	f0 92 76 03 	sts	0x0376, r15	; 0x800376 <battery_alarm+0x232>
						menu_display_l[2] = 'n';
    2e28:	d0 92 77 03 	sts	0x0377, r13	; 0x800377 <battery_alarm+0x233>
						menu_display_l[3] = ' ';
    2e2c:	10 93 78 03 	sts	0x0378, r17	; 0x800378 <battery_alarm+0x234>
    2e30:	06 c0       	rjmp	.+12     	; 0x2e3e <menu+0x12ea>
					}
					else
					{
						menu_display_l[1] = 'O';
    2e32:	f0 92 76 03 	sts	0x0376, r15	; 0x800376 <battery_alarm+0x232>
						menu_display_l[2] = 'f';
    2e36:	00 93 77 03 	sts	0x0377, r16	; 0x800377 <battery_alarm+0x233>
						menu_display_l[3] = 'f';
    2e3a:	00 93 78 03 	sts	0x0378, r16	; 0x800378 <battery_alarm+0x234>
						
					}
					
					
					// Volume On-Off
					if (menu_input == 0)
    2e3e:	90 91 ce 05 	lds	r25, 0x05CE	; 0x8005ce <menu_input>
    2e42:	91 11       	cpse	r25, r1
    2e44:	0f c0       	rjmp	.+30     	; 0x2e64 <menu+0x1310>
					{
						// Cursor move
						menu_display_l[0] = '>';
    2e46:	e5 e7       	ldi	r30, 0x75	; 117
    2e48:	f3 e0       	ldi	r31, 0x03	; 3
    2e4a:	e0 82       	st	Z, r14
						
						if (enter)
    2e4c:	88 23       	and	r24, r24
    2e4e:	d9 f0       	breq	.+54     	; 0x2e86 <menu+0x1332>
						{
							if (buzzer_volume)
    2e50:	80 91 da 05 	lds	r24, 0x05DA	; 0x8005da <buzzer_volume>
    2e54:	88 23       	and	r24, r24
    2e56:	19 f0       	breq	.+6      	; 0x2e5e <menu+0x130a>
								buzzer_volume = 0;
    2e58:	10 92 da 05 	sts	0x05DA, r1	; 0x8005da <buzzer_volume>
    2e5c:	14 c0       	rjmp	.+40     	; 0x2e86 <menu+0x1332>
							else
								buzzer_volume = 50;
    2e5e:	b0 92 da 05 	sts	0x05DA, r11	; 0x8005da <buzzer_volume>
    2e62:	11 c0       	rjmp	.+34     	; 0x2e86 <menu+0x1332>
						}
					}
					else
						menu_display_l[0] = ' ';
    2e64:	e5 e7       	ldi	r30, 0x75	; 117
    2e66:	f3 e0       	ldi	r31, 0x03	; 3
    2e68:	10 83       	st	Z, r17
					
					// Exit
					if (menu_input == 1)
    2e6a:	91 30       	cpi	r25, 0x01	; 1
    2e6c:	61 f4       	brne	.+24     	; 0x2e86 <menu+0x1332>
					{
						// Cursor move
						menu_display_l[9] = '>';
    2e6e:	e0 92 7e 03 	sts	0x037E, r14	; 0x80037e <battery_alarm+0x23a>
										
						if (enter)
    2e72:	88 23       	and	r24, r24
    2e74:	51 f0       	breq	.+20     	; 0x2e8a <menu+0x1336>
						{
							menu_input = 8;
    2e76:	88 e0       	ldi	r24, 0x08	; 8
    2e78:	80 93 ce 05 	sts	0x05CE, r24	; 0x8005ce <menu_input>
			{
				menu_input_temp = menu_input;
				menu_input = 0;
				LCD_CLEAR();
				menu_display_h = " Speaker Volume ";
				menu_display_l = "          Exit  ";
    2e7c:	1f 01       	movw	r2, r30
			if (enter)
			{
				menu_input_temp = menu_input;
				menu_input = 0;
				LCD_CLEAR();
				menu_display_h = " Speaker Volume ";
    2e7e:	06 e8       	ldi	r16, 0x86	; 134
    2e80:	13 e0       	ldi	r17, 0x03	; 3
						menu_display_l[9] = '>';
										
						if (enter)
						{
							menu_input = 8;
							break;
    2e82:	0c 94 79 20 	jmp	0x40f2	; 0x40f2 <menu+0x259e>
						}
					}
					else
						menu_display_l[9] = ' ';
    2e86:	10 93 7e 03 	sts	0x037E, r17	; 0x80037e <battery_alarm+0x23a>
					
					
					// LCD drive
					LCD_string(menu_display_h, 16);
    2e8a:	60 e1       	ldi	r22, 0x10	; 16
    2e8c:	86 e8       	ldi	r24, 0x86	; 134
    2e8e:	93 e0       	ldi	r25, 0x03	; 3
    2e90:	0e 94 db 01 	call	0x3b6	; 0x3b6 <LCD_string>
					LCD_NWL();
    2e94:	0e 94 5c 02 	call	0x4b8	; 0x4b8 <LCD_NWL>
					LCD_string(menu_display_l, 16);
    2e98:	60 e1       	ldi	r22, 0x10	; 16
    2e9a:	85 e7       	ldi	r24, 0x75	; 117
    2e9c:	93 e0       	ldi	r25, 0x03	; 3
    2e9e:	0e 94 db 01 	call	0x3b6	; 0x3b6 <LCD_string>
					LCD_home();
    2ea2:	0e 94 6a 02 	call	0x4d4	; 0x4d4 <LCD_home>
					
					// Buzzer drive
					buzzer_switch();
    2ea6:	0e 94 1b 09 	call	0x1236	; 0x1236 <buzzer_switch>
					
				} // while (1)
    2eaa:	ab cf       	rjmp	.-170    	; 0x2e02 <menu+0x12ae>
		} // else if (menu_input == 8)
		
		
		
		////////// Power saving mode time set ////////////////////////////////////
		else if (menu_input == 9)
    2eac:	99 30       	cpi	r25, 0x09	; 9
    2eae:	09 f0       	breq	.+2      	; 0x2eb2 <menu+0x135e>
    2eb0:	5e c1       	rjmp	.+700    	; 0x316e <menu+0x161a>
		{
			// Display
			menu_display_h = " Speaker Mute   ";
			menu_display_l = ">Power off time ";
			
			if (enter)
    2eb2:	88 23       	and	r24, r24
    2eb4:	11 f4       	brne	.+4      	; 0x2eba <menu+0x1366>
    2eb6:	0c 94 56 20 	jmp	0x40ac	; 0x40ac <menu+0x2558>
			{
				menu_input = 0;
    2eba:	10 92 ce 05 	sts	0x05CE, r1	; 0x8005ce <menu_input>
				LCD_CLEAR();
    2ebe:	0e 94 60 02 	call	0x4c0	; 0x4c0 <LCD_CLEAR>
				menu_display_h = " Power off time ";
				menu_display_l = "           Exit ";
				
				switch (runtime_set)
    2ec2:	80 91 d0 05 	lds	r24, 0x05D0	; 0x8005d0 <runtime_set>
    2ec6:	90 91 d1 05 	lds	r25, 0x05D1	; 0x8005d1 <runtime_set+0x1>
    2eca:	88 35       	cpi	r24, 0x58	; 88
    2ecc:	f2 e0       	ldi	r31, 0x02	; 2
    2ece:	9f 07       	cpc	r25, r31
    2ed0:	d9 f0       	breq	.+54     	; 0x2f08 <menu+0x13b4>
    2ed2:	18 f4       	brcc	.+6      	; 0x2eda <menu+0x1386>
    2ed4:	0a 97       	sbiw	r24, 0x0a	; 10
    2ed6:	49 f0       	breq	.+18     	; 0x2eea <menu+0x1396>
    2ed8:	50 c0       	rjmp	.+160    	; 0x2f7a <menu+0x1426>
    2eda:	84 38       	cpi	r24, 0x84	; 132
    2edc:	33 e0       	ldi	r19, 0x03	; 3
    2ede:	93 07       	cpc	r25, r19
    2ee0:	11 f1       	breq	.+68     	; 0x2f26 <menu+0x13d2>
    2ee2:	88 30       	cpi	r24, 0x08	; 8
    2ee4:	97 40       	sbci	r25, 0x07	; 7
    2ee6:	d1 f1       	breq	.+116    	; 0x2f5c <menu+0x1408>
    2ee8:	48 c0       	rjmp	.+144    	; 0x2f7a <menu+0x1426>
				{
					case RUNTIME10s:
						menu_display_l[1] = '1';
    2eea:	e7 e9       	ldi	r30, 0x97	; 151
    2eec:	f3 e0       	ldi	r31, 0x03	; 3
    2eee:	81 e3       	ldi	r24, 0x31	; 49
    2ef0:	81 83       	std	Z+1, r24	; 0x01
						menu_display_l[2] = '0';
    2ef2:	80 e3       	ldi	r24, 0x30	; 48
    2ef4:	82 83       	std	Z+2, r24	; 0x02
						menu_display_l[3] = ' ';
    2ef6:	80 e2       	ldi	r24, 0x20	; 32
    2ef8:	83 83       	std	Z+3, r24	; 0x03
						menu_display_l[4] = 's';
    2efa:	83 e7       	ldi	r24, 0x73	; 115
    2efc:	84 83       	std	Z+4, r24	; 0x04
						menu_display_l[5] = 'e';
    2efe:	85 e6       	ldi	r24, 0x65	; 101
    2f00:	85 83       	std	Z+5, r24	; 0x05
						menu_display_l[6] = 'c';
    2f02:	83 e6       	ldi	r24, 0x63	; 99
    2f04:	86 83       	std	Z+6, r24	; 0x06
						break;
    2f06:	1d c0       	rjmp	.+58     	; 0x2f42 <menu+0x13ee>
					
					case RUNTIME10:
						menu_display_l[1] = '1';
    2f08:	e7 e9       	ldi	r30, 0x97	; 151
    2f0a:	f3 e0       	ldi	r31, 0x03	; 3
    2f0c:	81 e3       	ldi	r24, 0x31	; 49
    2f0e:	81 83       	std	Z+1, r24	; 0x01
						menu_display_l[2] = '0';
    2f10:	80 e3       	ldi	r24, 0x30	; 48
    2f12:	82 83       	std	Z+2, r24	; 0x02
						menu_display_l[3] = ' ';
    2f14:	80 e2       	ldi	r24, 0x20	; 32
    2f16:	83 83       	std	Z+3, r24	; 0x03
						menu_display_l[4] = 'm';
    2f18:	8d e6       	ldi	r24, 0x6D	; 109
    2f1a:	84 83       	std	Z+4, r24	; 0x04
						menu_display_l[5] = 'i';
    2f1c:	89 e6       	ldi	r24, 0x69	; 105
    2f1e:	85 83       	std	Z+5, r24	; 0x05
						menu_display_l[6] = 'n';
    2f20:	8e e6       	ldi	r24, 0x6E	; 110
    2f22:	86 83       	std	Z+6, r24	; 0x06
						break;
    2f24:	0e c0       	rjmp	.+28     	; 0x2f42 <menu+0x13ee>
					
					case RUNTIME15:
						menu_display_l[1] = '1';
    2f26:	e7 e9       	ldi	r30, 0x97	; 151
    2f28:	f3 e0       	ldi	r31, 0x03	; 3
    2f2a:	81 e3       	ldi	r24, 0x31	; 49
    2f2c:	81 83       	std	Z+1, r24	; 0x01
						menu_display_l[2] = '5';
    2f2e:	85 e3       	ldi	r24, 0x35	; 53
    2f30:	82 83       	std	Z+2, r24	; 0x02
						menu_display_l[3] = ' ';
    2f32:	80 e2       	ldi	r24, 0x20	; 32
    2f34:	83 83       	std	Z+3, r24	; 0x03
						menu_display_l[4] = 'm';
    2f36:	8d e6       	ldi	r24, 0x6D	; 109
    2f38:	84 83       	std	Z+4, r24	; 0x04
						menu_display_l[5] = 'i';
    2f3a:	89 e6       	ldi	r24, 0x69	; 105
    2f3c:	85 83       	std	Z+5, r24	; 0x05
						menu_display_l[6] = 'n';
    2f3e:	8e e6       	ldi	r24, 0x6E	; 110
    2f40:	86 83       	std	Z+6, r24	; 0x06
										break;
										
									case 0:
										runtime_set = RUNTIME30;
										menu_display_l[1] = '3';
										menu_display_l[2] = '0';
    2f42:	0f 2e       	mov	r0, r31
    2f44:	f0 e3       	ldi	r31, 0x30	; 48
    2f46:	3f 2e       	mov	r3, r31
    2f48:	f0 2d       	mov	r31, r0
										menu_display_l[5] = 'i';
										menu_display_l[6] = 'n';
										break;
									
									case 1:
										runtime_set = RUNTIME15;
    2f4a:	0f 2e       	mov	r0, r31
    2f4c:	f4 e8       	ldi	r31, 0x84	; 132
    2f4e:	ef 2e       	mov	r14, r31
    2f50:	f3 e0       	ldi	r31, 0x03	; 3
    2f52:	ff 2e       	mov	r15, r31
    2f54:	f0 2d       	mov	r31, r0
										menu_display_l[5] = 'e';
										menu_display_l[6] = 'c';
										break;
									
									case 2:
										runtime_set = RUNTIME10;
    2f56:	08 e5       	ldi	r16, 0x58	; 88
    2f58:	12 e0       	ldi	r17, 0x02	; 2
    2f5a:	17 c0       	rjmp	.+46     	; 0x2f8a <menu+0x1436>
						menu_display_l[5] = 'i';
						menu_display_l[6] = 'n';
						break;
					
					case RUNTIME30:
						menu_display_l[1] = '3';
    2f5c:	e7 e9       	ldi	r30, 0x97	; 151
    2f5e:	f3 e0       	ldi	r31, 0x03	; 3
    2f60:	83 e3       	ldi	r24, 0x33	; 51
    2f62:	81 83       	std	Z+1, r24	; 0x01
						menu_display_l[2] = '0';
    2f64:	80 e3       	ldi	r24, 0x30	; 48
    2f66:	82 83       	std	Z+2, r24	; 0x02
						menu_display_l[3] = ' ';
    2f68:	80 e2       	ldi	r24, 0x20	; 32
    2f6a:	83 83       	std	Z+3, r24	; 0x03
						menu_display_l[4] = 'm';
    2f6c:	8d e6       	ldi	r24, 0x6D	; 109
    2f6e:	84 83       	std	Z+4, r24	; 0x04
						menu_display_l[5] = 'i';
    2f70:	89 e6       	ldi	r24, 0x69	; 105
    2f72:	85 83       	std	Z+5, r24	; 0x05
						menu_display_l[6] = 'n';
    2f74:	8e e6       	ldi	r24, 0x6E	; 110
    2f76:	86 83       	std	Z+6, r24	; 0x06
						break;
    2f78:	e4 cf       	rjmp	.-56     	; 0x2f42 <menu+0x13ee>
					
					default:
						menu_display_l[1] = 'E';
    2f7a:	e7 e9       	ldi	r30, 0x97	; 151
    2f7c:	f3 e0       	ldi	r31, 0x03	; 3
    2f7e:	85 e4       	ldi	r24, 0x45	; 69
    2f80:	81 83       	std	Z+1, r24	; 0x01
						menu_display_l[2] = 'R';
    2f82:	82 e5       	ldi	r24, 0x52	; 82
    2f84:	82 83       	std	Z+2, r24	; 0x02
						menu_display_l[3] = 'R';
    2f86:	83 83       	std	Z+3, r24	; 0x03
						break;
    2f88:	dc cf       	rjmp	.-72     	; 0x2f42 <menu+0x13ee>
				} //switch (runtime_set)
				
				
				while (1)
				{
					enter = menu_read();
    2f8a:	0e 94 fd 05 	call	0xbfa	; 0xbfa <menu_read>
					if (menu_input < 0)
    2f8e:	90 91 ce 05 	lds	r25, 0x05CE	; 0x8005ce <menu_input>
    2f92:	99 23       	and	r25, r25
    2f94:	1c f4       	brge	.+6      	; 0x2f9c <menu+0x1448>
						menu_input = 0;
    2f96:	10 92 ce 05 	sts	0x05CE, r1	; 0x8005ce <menu_input>
    2f9a:	08 c0       	rjmp	.+16     	; 0x2fac <menu+0x1458>
					else if (menu_input > 4)
    2f9c:	95 30       	cpi	r25, 0x05	; 5
    2f9e:	24 f0       	brlt	.+8      	; 0x2fa8 <menu+0x1454>
						menu_input = 4;
    2fa0:	84 e0       	ldi	r24, 0x04	; 4
    2fa2:	80 93 ce 05 	sts	0x05CE, r24	; 0x8005ce <menu_input>
    2fa6:	d2 c0       	rjmp	.+420    	; 0x314c <menu+0x15f8>
					
					if (menu_input == 0)
    2fa8:	91 11       	cpse	r25, r1
    2faa:	be c0       	rjmp	.+380    	; 0x3128 <menu+0x15d4>
					{
						menu_display_l[0]  = '>';
    2fac:	9e e3       	ldi	r25, 0x3E	; 62
    2fae:	e7 e9       	ldi	r30, 0x97	; 151
    2fb0:	f3 e0       	ldi	r31, 0x03	; 3
    2fb2:	90 83       	st	Z, r25
						menu_display_l[10] = ' ';
    2fb4:	90 e2       	ldi	r25, 0x20	; 32
    2fb6:	90 93 a1 03 	sts	0x03A1, r25	; 0x8003a1 <battery_alarm+0x25d>
						
						if (enter)
    2fba:	88 23       	and	r24, r24
    2fbc:	09 f4       	brne	.+2      	; 0x2fc0 <menu+0x146c>
    2fbe:	c6 c0       	rjmp	.+396    	; 0x314c <menu+0x15f8>
						{
							switch (runtime_set)
    2fc0:	80 91 d0 05 	lds	r24, 0x05D0	; 0x8005d0 <runtime_set>
    2fc4:	90 91 d1 05 	lds	r25, 0x05D1	; 0x8005d1 <runtime_set+0x1>
    2fc8:	88 35       	cpi	r24, 0x58	; 88
    2fca:	f2 e0       	ldi	r31, 0x02	; 2
    2fcc:	9f 07       	cpc	r25, r31
    2fce:	49 f1       	breq	.+82     	; 0x3022 <menu+0x14ce>
    2fd0:	18 f4       	brcc	.+6      	; 0x2fd8 <menu+0x1484>
    2fd2:	0a 97       	sbiw	r24, 0x0a	; 10
    2fd4:	51 f1       	breq	.+84     	; 0x302a <menu+0x14d6>
    2fd6:	0d c0       	rjmp	.+26     	; 0x2ff2 <menu+0x149e>
    2fd8:	84 38       	cpi	r24, 0x84	; 132
    2fda:	33 e0       	ldi	r19, 0x03	; 3
    2fdc:	93 07       	cpc	r25, r19
    2fde:	31 f0       	breq	.+12     	; 0x2fec <menu+0x1498>
    2fe0:	88 30       	cpi	r24, 0x08	; 8
    2fe2:	97 40       	sbci	r25, 0x07	; 7
    2fe4:	31 f4       	brne	.+12     	; 0x2ff2 <menu+0x149e>
							{
								case RUNTIME30:
									menu_input = 0;
    2fe6:	10 92 ce 05 	sts	0x05CE, r1	; 0x8005ce <menu_input>
									break;
    2fea:	03 c0       	rjmp	.+6      	; 0x2ff2 <menu+0x149e>
								case RUNTIME15:
									menu_input = 1;
    2fec:	81 e0       	ldi	r24, 0x01	; 1
    2fee:	80 93 ce 05 	sts	0x05CE, r24	; 0x8005ce <menu_input>
										
									case 0:
										runtime_set = RUNTIME30;
										menu_display_l[1] = '3';
										menu_display_l[2] = '0';
										menu_display_l[3] = ' ';
    2ff2:	68 94       	set
    2ff4:	dd 24       	eor	r13, r13
    2ff6:	d5 f8       	bld	r13, 5
										menu_display_l[4] = 'm';
    2ff8:	0f 2e       	mov	r0, r31
    2ffa:	fd e6       	ldi	r31, 0x6D	; 109
    2ffc:	4f 2e       	mov	r4, r31
    2ffe:	f0 2d       	mov	r31, r0
										menu_display_l[5] = 'i';
    3000:	0f 2e       	mov	r0, r31
    3002:	f9 e6       	ldi	r31, 0x69	; 105
    3004:	af 2e       	mov	r10, r31
    3006:	f0 2d       	mov	r31, r0
										menu_display_l[6] = 'n';
    3008:	0f 2e       	mov	r0, r31
    300a:	fe e6       	ldi	r31, 0x6E	; 110
    300c:	bf 2e       	mov	r11, r31
    300e:	f0 2d       	mov	r31, r0
								
								switch (menu_input)
								{
									case 3:
										runtime_set = RUNTIME10s;
										menu_display_l[1] = '1';
    3010:	0f 2e       	mov	r0, r31
    3012:	f1 e3       	ldi	r31, 0x31	; 49
    3014:	cf 2e       	mov	r12, r31
    3016:	f0 2d       	mov	r31, r0
										menu_display_l[2] = '0';
										menu_display_l[3] = ' ';
										menu_display_l[4] = 's';
    3018:	0f 2e       	mov	r0, r31
    301a:	f3 e7       	ldi	r31, 0x73	; 115
    301c:	2f 2e       	mov	r2, r31
    301e:	f0 2d       	mov	r31, r0
    3020:	08 c0       	rjmp	.+16     	; 0x3032 <menu+0x14de>
									break;
								case RUNTIME15:
									menu_input = 1;
									break;
								case RUNTIME10:
									menu_input = 2;
    3022:	82 e0       	ldi	r24, 0x02	; 2
    3024:	80 93 ce 05 	sts	0x05CE, r24	; 0x8005ce <menu_input>
									break;
    3028:	e4 cf       	rjmp	.-56     	; 0x2ff2 <menu+0x149e>
								case RUNTIME10s:
									menu_input = 3;
    302a:	83 e0       	ldi	r24, 0x03	; 3
    302c:	80 93 ce 05 	sts	0x05CE, r24	; 0x8005ce <menu_input>
									break;
    3030:	e0 cf       	rjmp	.-64     	; 0x2ff2 <menu+0x149e>
								
							}
							
							while (1)
							{
								enter = menu_read();
    3032:	0e 94 fd 05 	call	0xbfa	; 0xbfa <menu_read>
								if (menu_input < 0)
    3036:	90 91 ce 05 	lds	r25, 0x05CE	; 0x8005ce <menu_input>
    303a:	99 23       	and	r25, r25
    303c:	1c f4       	brge	.+6      	; 0x3044 <menu+0x14f0>
									menu_input = 0;
    303e:	10 92 ce 05 	sts	0x05CE, r1	; 0x8005ce <menu_input>
    3042:	49 c0       	rjmp	.+146    	; 0x30d6 <menu+0x1582>
								else if (menu_input > 3)
    3044:	94 30       	cpi	r25, 0x04	; 4
    3046:	24 f0       	brlt	.+8      	; 0x3050 <menu+0x14fc>
									menu_input = 3;
    3048:	93 e0       	ldi	r25, 0x03	; 3
    304a:	90 93 ce 05 	sts	0x05CE, r25	; 0x8005ce <menu_input>
    304e:	0b c0       	rjmp	.+22     	; 0x3066 <menu+0x1512>
								
								switch (menu_input)
    3050:	91 30       	cpi	r25, 0x01	; 1
    3052:	79 f1       	breq	.+94     	; 0x30b2 <menu+0x155e>
    3054:	1c f4       	brge	.+6      	; 0x305c <menu+0x1508>
    3056:	91 11       	cpse	r25, r1
    3058:	51 c0       	rjmp	.+162    	; 0x30fc <menu+0x15a8>
    305a:	3d c0       	rjmp	.+122    	; 0x30d6 <menu+0x1582>
    305c:	92 30       	cpi	r25, 0x02	; 2
    305e:	c1 f0       	breq	.+48     	; 0x3090 <menu+0x153c>
    3060:	93 30       	cpi	r25, 0x03	; 3
    3062:	09 f0       	breq	.+2      	; 0x3066 <menu+0x1512>
    3064:	4b c0       	rjmp	.+150    	; 0x30fc <menu+0x15a8>
								{
									case 3:
										runtime_set = RUNTIME10s;
    3066:	2a e0       	ldi	r18, 0x0A	; 10
    3068:	30 e0       	ldi	r19, 0x00	; 0
    306a:	30 93 d1 05 	sts	0x05D1, r19	; 0x8005d1 <runtime_set+0x1>
    306e:	20 93 d0 05 	sts	0x05D0, r18	; 0x8005d0 <runtime_set>
										menu_display_l[1] = '1';
    3072:	c0 92 98 03 	sts	0x0398, r12	; 0x800398 <battery_alarm+0x254>
										menu_display_l[2] = '0';
    3076:	30 92 99 03 	sts	0x0399, r3	; 0x800399 <battery_alarm+0x255>
										menu_display_l[3] = ' ';
    307a:	d0 92 9a 03 	sts	0x039A, r13	; 0x80039a <battery_alarm+0x256>
										menu_display_l[4] = 's';
    307e:	20 92 9b 03 	sts	0x039B, r2	; 0x80039b <battery_alarm+0x257>
										menu_display_l[5] = 'e';
    3082:	95 e6       	ldi	r25, 0x65	; 101
    3084:	90 93 9c 03 	sts	0x039C, r25	; 0x80039c <battery_alarm+0x258>
										menu_display_l[6] = 'c';
    3088:	93 e6       	ldi	r25, 0x63	; 99
    308a:	90 93 9d 03 	sts	0x039D, r25	; 0x80039d <battery_alarm+0x259>
										break;
    308e:	36 c0       	rjmp	.+108    	; 0x30fc <menu+0x15a8>
									
									case 2:
										runtime_set = RUNTIME10;
    3090:	10 93 d1 05 	sts	0x05D1, r17	; 0x8005d1 <runtime_set+0x1>
    3094:	00 93 d0 05 	sts	0x05D0, r16	; 0x8005d0 <runtime_set>
										menu_display_l[1] = '1';
    3098:	c0 92 98 03 	sts	0x0398, r12	; 0x800398 <battery_alarm+0x254>
										menu_display_l[2] = '0';
    309c:	30 92 99 03 	sts	0x0399, r3	; 0x800399 <battery_alarm+0x255>
										menu_display_l[3] = ' ';
    30a0:	d0 92 9a 03 	sts	0x039A, r13	; 0x80039a <battery_alarm+0x256>
										menu_display_l[4] = 'm';
    30a4:	40 92 9b 03 	sts	0x039B, r4	; 0x80039b <battery_alarm+0x257>
										menu_display_l[5] = 'i';
    30a8:	a0 92 9c 03 	sts	0x039C, r10	; 0x80039c <battery_alarm+0x258>
										menu_display_l[6] = 'n';
    30ac:	b0 92 9d 03 	sts	0x039D, r11	; 0x80039d <battery_alarm+0x259>
										break;
    30b0:	25 c0       	rjmp	.+74     	; 0x30fc <menu+0x15a8>
									
									case 1:
										runtime_set = RUNTIME15;
    30b2:	f0 92 d1 05 	sts	0x05D1, r15	; 0x8005d1 <runtime_set+0x1>
    30b6:	e0 92 d0 05 	sts	0x05D0, r14	; 0x8005d0 <runtime_set>
										menu_display_l[1] = '1';
    30ba:	c0 92 98 03 	sts	0x0398, r12	; 0x800398 <battery_alarm+0x254>
										menu_display_l[2] = '5';
    30be:	95 e3       	ldi	r25, 0x35	; 53
    30c0:	90 93 99 03 	sts	0x0399, r25	; 0x800399 <battery_alarm+0x255>
										menu_display_l[3] = ' ';
    30c4:	d0 92 9a 03 	sts	0x039A, r13	; 0x80039a <battery_alarm+0x256>
										menu_display_l[4] = 'm';
    30c8:	40 92 9b 03 	sts	0x039B, r4	; 0x80039b <battery_alarm+0x257>
										menu_display_l[5] = 'i';
    30cc:	a0 92 9c 03 	sts	0x039C, r10	; 0x80039c <battery_alarm+0x258>
										menu_display_l[6] = 'n';
    30d0:	b0 92 9d 03 	sts	0x039D, r11	; 0x80039d <battery_alarm+0x259>
										break;
    30d4:	13 c0       	rjmp	.+38     	; 0x30fc <menu+0x15a8>
										
									case 0:
										runtime_set = RUNTIME30;
    30d6:	e8 e0       	ldi	r30, 0x08	; 8
    30d8:	f7 e0       	ldi	r31, 0x07	; 7
    30da:	f0 93 d1 05 	sts	0x05D1, r31	; 0x8005d1 <runtime_set+0x1>
    30de:	e0 93 d0 05 	sts	0x05D0, r30	; 0x8005d0 <runtime_set>
										menu_display_l[1] = '3';
    30e2:	f3 e3       	ldi	r31, 0x33	; 51
    30e4:	f0 93 98 03 	sts	0x0398, r31	; 0x800398 <battery_alarm+0x254>
										menu_display_l[2] = '0';
    30e8:	30 92 99 03 	sts	0x0399, r3	; 0x800399 <battery_alarm+0x255>
										menu_display_l[3] = ' ';
    30ec:	d0 92 9a 03 	sts	0x039A, r13	; 0x80039a <battery_alarm+0x256>
										menu_display_l[4] = 'm';
    30f0:	40 92 9b 03 	sts	0x039B, r4	; 0x80039b <battery_alarm+0x257>
										menu_display_l[5] = 'i';
    30f4:	a0 92 9c 03 	sts	0x039C, r10	; 0x80039c <battery_alarm+0x258>
										menu_display_l[6] = 'n';
    30f8:	b0 92 9d 03 	sts	0x039D, r11	; 0x80039d <battery_alarm+0x259>
										break;
										
									
								} //switch (menu_input)
								
								if (enter)
    30fc:	88 23       	and	r24, r24
    30fe:	19 f0       	breq	.+6      	; 0x3106 <menu+0x15b2>
								{
									menu_input = 0;
    3100:	10 92 ce 05 	sts	0x05CE, r1	; 0x8005ce <menu_input>
									break;
    3104:	23 c0       	rjmp	.+70     	; 0x314c <menu+0x15f8>
								}
								
								
								// LCD drive
								LCD_string(menu_display_h, 16);
    3106:	60 e1       	ldi	r22, 0x10	; 16
    3108:	88 ea       	ldi	r24, 0xA8	; 168
    310a:	93 e0       	ldi	r25, 0x03	; 3
    310c:	0e 94 db 01 	call	0x3b6	; 0x3b6 <LCD_string>
								LCD_NWL();
    3110:	0e 94 5c 02 	call	0x4b8	; 0x4b8 <LCD_NWL>
								LCD_string(menu_display_l, 16);
    3114:	60 e1       	ldi	r22, 0x10	; 16
    3116:	87 e9       	ldi	r24, 0x97	; 151
    3118:	93 e0       	ldi	r25, 0x03	; 3
    311a:	0e 94 db 01 	call	0x3b6	; 0x3b6 <LCD_string>
								LCD_home();
    311e:	0e 94 6a 02 	call	0x4d4	; 0x4d4 <LCD_home>
								
								// Buzzer drive
								buzzer_switch();
    3122:	0e 94 1b 09 	call	0x1236	; 0x1236 <buzzer_switch>
								
							} //while (1)
    3126:	85 cf       	rjmp	.-246    	; 0x3032 <menu+0x14de>
						} //if (enter)
						
					}
					
					// Exit
					else if (menu_input == 1)
    3128:	91 30       	cpi	r25, 0x01	; 1
    312a:	81 f4       	brne	.+32     	; 0x314c <menu+0x15f8>
					{
						menu_display_l[0]  = ' ';
    312c:	90 e2       	ldi	r25, 0x20	; 32
    312e:	e7 e9       	ldi	r30, 0x97	; 151
    3130:	f3 e0       	ldi	r31, 0x03	; 3
    3132:	90 83       	st	Z, r25
						menu_display_l[10] = '>';
    3134:	9e e3       	ldi	r25, 0x3E	; 62
    3136:	90 93 a1 03 	sts	0x03A1, r25	; 0x8003a1 <battery_alarm+0x25d>
						
						if (enter)
    313a:	88 23       	and	r24, r24
    313c:	39 f0       	breq	.+14     	; 0x314c <menu+0x15f8>
						{
							menu_input = 9;
    313e:	89 e0       	ldi	r24, 0x09	; 9
    3140:	80 93 ce 05 	sts	0x05CE, r24	; 0x8005ce <menu_input>
			if (enter)
			{
				menu_input = 0;
				LCD_CLEAR();
				menu_display_h = " Power off time ";
				menu_display_l = "           Exit ";
    3144:	1f 01       	movw	r2, r30
			
			if (enter)
			{
				menu_input = 0;
				LCD_CLEAR();
				menu_display_h = " Power off time ";
    3146:	08 ea       	ldi	r16, 0xA8	; 168
    3148:	13 e0       	ldi	r17, 0x03	; 3
						menu_display_l[10] = '>';
						
						if (enter)
						{
							menu_input = 9;
							break;
    314a:	d3 c7       	rjmp	.+4006   	; 0x40f2 <menu+0x259e>
						}
					} //if (menu_input == 1)
					
					
					// LCD drive
					LCD_string(menu_display_h, 16);
    314c:	60 e1       	ldi	r22, 0x10	; 16
    314e:	88 ea       	ldi	r24, 0xA8	; 168
    3150:	93 e0       	ldi	r25, 0x03	; 3
    3152:	0e 94 db 01 	call	0x3b6	; 0x3b6 <LCD_string>
					LCD_NWL();
    3156:	0e 94 5c 02 	call	0x4b8	; 0x4b8 <LCD_NWL>
					LCD_string(menu_display_l, 16);
    315a:	60 e1       	ldi	r22, 0x10	; 16
    315c:	87 e9       	ldi	r24, 0x97	; 151
    315e:	93 e0       	ldi	r25, 0x03	; 3
    3160:	0e 94 db 01 	call	0x3b6	; 0x3b6 <LCD_string>
					LCD_home();
    3164:	0e 94 6a 02 	call	0x4d4	; 0x4d4 <LCD_home>
					
					// Buzzer drive
					buzzer_switch();
    3168:	0e 94 1b 09 	call	0x1236	; 0x1236 <buzzer_switch>
					
				} //while (1)
    316c:	0e cf       	rjmp	.-484    	; 0x2f8a <menu+0x1436>
			} //if (enter)
		} //else if (menu_input == 9)
		
		////////// RF mode ///////////////////////////////////////////////////////
		else if (menu_input == 10)
    316e:	9a 30       	cpi	r25, 0x0A	; 10
    3170:	09 f0       	breq	.+2      	; 0x3174 <menu+0x1620>
    3172:	dc c0       	rjmp	.+440    	; 0x332c <menu+0x17d8>
		{
			uint8_t mixing_val_3_temp;
			mixing_val_3_temp = (mixing_val_3 & (~RF_MODE_MASK));
    3174:	10 91 d6 05 	lds	r17, 0x05D6	; 0x8005d6 <mixing_val_3>
			// Display
			menu_display_h = " Power off time ";
			menu_display_l = ">Output mode    ";
			
			if (enter)
    3178:	88 23       	and	r24, r24
    317a:	09 f4       	brne	.+2      	; 0x317e <menu+0x162a>
    317c:	a0 c7       	rjmp	.+3904   	; 0x40be <menu+0x256a>
		
		////////// RF mode ///////////////////////////////////////////////////////
		else if (menu_input == 10)
		{
			uint8_t mixing_val_3_temp;
			mixing_val_3_temp = (mixing_val_3 & (~RF_MODE_MASK));
    317e:	10 7f       	andi	r17, 0xF0	; 240
			menu_display_l = ">Output mode    ";
			
			if (enter)
			{
				menu_input_temp = menu_input;
				menu_input = 0;
    3180:	10 92 ce 05 	sts	0x05CE, r1	; 0x8005ce <menu_input>
				LCD_CLEAR();
    3184:	0e 94 60 02 	call	0x4c0	; 0x4c0 <LCD_CLEAR>
							menu_display_l[6] = ' ';
						// CH5
						if ((mixing_val_3 & RF_MODE_MASK) == BLE)
							menu_display_l[13] = 'V';
						else
							menu_display_l[13] = ' ';
    3188:	68 94       	set
    318a:	bb 24       	eor	r11, r11
    318c:	b5 f8       	bld	r11, 5
					
					// Display init & stat ////////////
					if (menu_input < 4)
					{
						// Display init
						menu_display_h = " JF24    NRF    ";
    318e:	0f 2e       	mov	r0, r31
    3190:	fa eb       	ldi	r31, 0xBA	; 186
    3192:	ef 2e       	mov	r14, r31
    3194:	f2 e0       	ldi	r31, 0x02	; 2
    3196:	ff 2e       	mov	r15, r31
    3198:	f0 2d       	mov	r31, r0
							menu_display_l[6] = 'V';
						else
							menu_display_l[6] = ' ';
						// CH5
						if ((mixing_val_3 & RF_MODE_MASK) == BLE)
							menu_display_l[13] = 'V';
    319a:	0f 2e       	mov	r0, r31
    319c:	f6 e5       	ldi	r31, 0x56	; 86
    319e:	af 2e       	mov	r10, r31
    31a0:	f0 2d       	mov	r31, r0
					}
					else
					{
						// Display init
						menu_display_h = " UART    BLE    ";
						menu_display_l = " Exit           ";
    31a2:	0f 2e       	mov	r0, r31
    31a4:	f6 e6       	ldi	r31, 0x66	; 102
    31a6:	cf 2e       	mov	r12, r31
    31a8:	f2 e0       	ldi	r31, 0x02	; 2
    31aa:	df 2e       	mov	r13, r31
    31ac:	f0 2d       	mov	r31, r0
					// Exit
					if (menu_input == 4)
					{
						// Cursor move
						menu_display_h[8] = ' ';
						menu_display_l[0] = '>';
    31ae:	0f 2e       	mov	r0, r31
    31b0:	fe e3       	ldi	r31, 0x3E	; 62
    31b2:	4f 2e       	mov	r4, r31
    31b4:	f0 2d       	mov	r31, r0
						// Cursor move
						menu_display_l[8] = '>';
						
						if (enter)
						{
							mixing_val_3 = BLE|mixing_val_3_temp;
    31b6:	f1 2f       	mov	r31, r17
    31b8:	f4 60       	ori	r31, 0x04	; 4
    31ba:	f9 83       	std	Y+1, r31	; 0x01
						// Cursor move
						menu_display_l[0] = '>';
						
						if (enter)
						{
							mixing_val_3 = UART|mixing_val_3_temp;
    31bc:	21 2f       	mov	r18, r17
    31be:	23 60       	ori	r18, 0x03	; 3
    31c0:	2c 83       	std	Y+4, r18	; 0x04
						// Cursor move
						menu_display_h[8] = '>';
						
						if (enter)
						{
							mixing_val_3 = NRF|mixing_val_3_temp;
    31c2:	31 2f       	mov	r19, r17
    31c4:	32 60       	ori	r19, 0x02	; 2
    31c6:	3d 83       	std	Y+5, r19	; 0x05
						// Cursor move
						menu_display_h[0] = '>';
						
						if (enter)
						{
							mixing_val_3 = JF24|mixing_val_3_temp;
    31c8:	11 60       	ori	r17, 0x01	; 1
    31ca:	1e 83       	std	Y+6, r17	; 0x06
				menu_input = 0;
				LCD_CLEAR();
				
				while (1)
				{
					enter = menu_read();
    31cc:	0e 94 fd 05 	call	0xbfa	; 0xbfa <menu_read>
					if (menu_input < 0)
    31d0:	90 91 ce 05 	lds	r25, 0x05CE	; 0x8005ce <menu_input>
    31d4:	99 23       	and	r25, r25
    31d6:	1c f4       	brge	.+6      	; 0x31de <menu+0x168a>
						menu_input = 0;
    31d8:	10 92 ce 05 	sts	0x05CE, r1	; 0x8005ce <menu_input>
    31dc:	08 c0       	rjmp	.+16     	; 0x31ee <menu+0x169a>
					else if (menu_input > 4)
    31de:	95 30       	cpi	r25, 0x05	; 5
    31e0:	24 f0       	brlt	.+8      	; 0x31ea <menu+0x1696>
						menu_input = 4;
    31e2:	94 e0       	ldi	r25, 0x04	; 4
    31e4:	90 93 ce 05 	sts	0x05CE, r25	; 0x8005ce <menu_input>
    31e8:	39 c0       	rjmp	.+114    	; 0x325c <menu+0x1708>
					
					
					// Display init & stat ////////////
					if (menu_input < 4)
    31ea:	94 30       	cpi	r25, 0x04	; 4
    31ec:	bc f5       	brge	.+110    	; 0x325c <menu+0x1708>
						// Display init
						menu_display_h = " JF24    NRF    ";
						menu_display_l = " UART    BLE    ";
						
						// Aileron
						if ((mixing_val_3 & RF_MODE_MASK) == JF24)
    31ee:	90 91 d6 05 	lds	r25, 0x05D6	; 0x8005d6 <mixing_val_3>
    31f2:	9f 70       	andi	r25, 0x0F	; 15
    31f4:	91 30       	cpi	r25, 0x01	; 1
    31f6:	19 f4       	brne	.+6      	; 0x31fe <menu+0x16aa>
							menu_display_h[6] = 'V';
    31f8:	f7 01       	movw	r30, r14
    31fa:	a6 82       	std	Z+6, r10	; 0x06
    31fc:	02 c0       	rjmp	.+4      	; 0x3202 <menu+0x16ae>
						else
							menu_display_h[6] = ' ';
    31fe:	f7 01       	movw	r30, r14
    3200:	b6 82       	std	Z+6, r11	; 0x06
						// Elevator
						if ((mixing_val_3 & RF_MODE_MASK) == NRF)
    3202:	90 91 d6 05 	lds	r25, 0x05D6	; 0x8005d6 <mixing_val_3>
    3206:	9f 70       	andi	r25, 0x0F	; 15
    3208:	92 30       	cpi	r25, 0x02	; 2
    320a:	19 f4       	brne	.+6      	; 0x3212 <menu+0x16be>
							menu_display_h[13] = 'V';
    320c:	f7 01       	movw	r30, r14
    320e:	a5 86       	std	Z+13, r10	; 0x0d
    3210:	02 c0       	rjmp	.+4      	; 0x3216 <menu+0x16c2>
						else
							menu_display_h[13] = ' ';
    3212:	f7 01       	movw	r30, r14
    3214:	b5 86       	std	Z+13, r11	; 0x0d
						// Rudder
						if ((mixing_val_3 & RF_MODE_MASK) == UART)
    3216:	90 91 d6 05 	lds	r25, 0x05D6	; 0x8005d6 <mixing_val_3>
    321a:	9f 70       	andi	r25, 0x0F	; 15
    321c:	93 30       	cpi	r25, 0x03	; 3
    321e:	19 f4       	brne	.+6      	; 0x3226 <menu+0x16d2>
							menu_display_l[6] = 'V';
    3220:	a0 92 af 02 	sts	0x02AF, r10	; 0x8002af <battery_alarm+0x16b>
    3224:	02 c0       	rjmp	.+4      	; 0x322a <menu+0x16d6>
						else
							menu_display_l[6] = ' ';
    3226:	b0 92 af 02 	sts	0x02AF, r11	; 0x8002af <battery_alarm+0x16b>
						// CH5
						if ((mixing_val_3 & RF_MODE_MASK) == BLE)
    322a:	90 91 d6 05 	lds	r25, 0x05D6	; 0x8005d6 <mixing_val_3>
    322e:	9f 70       	andi	r25, 0x0F	; 15
    3230:	94 30       	cpi	r25, 0x04	; 4
    3232:	51 f4       	brne	.+20     	; 0x3248 <menu+0x16f4>
							menu_display_l[13] = 'V';
    3234:	a0 92 b6 02 	sts	0x02B6, r10	; 0x8002b6 <battery_alarm+0x172>
					// Display init & stat ////////////
					if (menu_input < 4)
					{
						// Display init
						menu_display_h = " JF24    NRF    ";
						menu_display_l = " UART    BLE    ";
    3238:	0f 2e       	mov	r0, r31
    323a:	f9 ea       	ldi	r31, 0xA9	; 169
    323c:	2f 2e       	mov	r2, r31
    323e:	f2 e0       	ldi	r31, 0x02	; 2
    3240:	3f 2e       	mov	r3, r31
    3242:	f0 2d       	mov	r31, r0
					
					// Display init & stat ////////////
					if (menu_input < 4)
					{
						// Display init
						menu_display_h = " JF24    NRF    ";
    3244:	87 01       	movw	r16, r14
    3246:	24 c0       	rjmp	.+72     	; 0x3290 <menu+0x173c>
							menu_display_l[6] = ' ';
						// CH5
						if ((mixing_val_3 & RF_MODE_MASK) == BLE)
							menu_display_l[13] = 'V';
						else
							menu_display_l[13] = ' ';
    3248:	b0 92 b6 02 	sts	0x02B6, r11	; 0x8002b6 <battery_alarm+0x172>
					// Display init & stat ////////////
					if (menu_input < 4)
					{
						// Display init
						menu_display_h = " JF24    NRF    ";
						menu_display_l = " UART    BLE    ";
    324c:	0f 2e       	mov	r0, r31
    324e:	f9 ea       	ldi	r31, 0xA9	; 169
    3250:	2f 2e       	mov	r2, r31
    3252:	f2 e0       	ldi	r31, 0x02	; 2
    3254:	3f 2e       	mov	r3, r31
    3256:	f0 2d       	mov	r31, r0
					
					// Display init & stat ////////////
					if (menu_input < 4)
					{
						// Display init
						menu_display_h = " JF24    NRF    ";
    3258:	87 01       	movw	r16, r14
    325a:	1a c0       	rjmp	.+52     	; 0x3290 <menu+0x173c>
						// Display init
						menu_display_h = " UART    BLE    ";
						menu_display_l = " Exit           ";
						
						// Aileron
						if ((mixing_val_3 & RF_MODE_MASK) == UART)
    325c:	90 91 d6 05 	lds	r25, 0x05D6	; 0x8005d6 <mixing_val_3>
    3260:	9f 70       	andi	r25, 0x0F	; 15
    3262:	93 30       	cpi	r25, 0x03	; 3
    3264:	19 f4       	brne	.+6      	; 0x326c <menu+0x1718>
							menu_display_h[6] = 'V';
    3266:	a0 92 af 02 	sts	0x02AF, r10	; 0x8002af <battery_alarm+0x16b>
    326a:	02 c0       	rjmp	.+4      	; 0x3270 <menu+0x171c>
						else
							menu_display_h[6] = ' ';
    326c:	b0 92 af 02 	sts	0x02AF, r11	; 0x8002af <battery_alarm+0x16b>
						// Elevator
						if ((mixing_val_3 & RF_MODE_MASK) == BLE)
    3270:	90 91 d6 05 	lds	r25, 0x05D6	; 0x8005d6 <mixing_val_3>
    3274:	9f 70       	andi	r25, 0x0F	; 15
    3276:	94 30       	cpi	r25, 0x04	; 4
    3278:	31 f4       	brne	.+12     	; 0x3286 <menu+0x1732>
							menu_display_h[13] = 'V';
    327a:	a0 92 b6 02 	sts	0x02B6, r10	; 0x8002b6 <battery_alarm+0x172>
					}
					else
					{
						// Display init
						menu_display_h = " UART    BLE    ";
						menu_display_l = " Exit           ";
    327e:	16 01       	movw	r2, r12
							menu_display_l[13] = ' ';
					}
					else
					{
						// Display init
						menu_display_h = " UART    BLE    ";
    3280:	09 ea       	ldi	r16, 0xA9	; 169
    3282:	12 e0       	ldi	r17, 0x02	; 2
    3284:	05 c0       	rjmp	.+10     	; 0x3290 <menu+0x173c>
							menu_display_h[6] = ' ';
						// Elevator
						if ((mixing_val_3 & RF_MODE_MASK) == BLE)
							menu_display_h[13] = 'V';
						else
							menu_display_h[13] = ' ';
    3286:	b0 92 b6 02 	sts	0x02B6, r11	; 0x8002b6 <battery_alarm+0x172>
					}
					else
					{
						// Display init
						menu_display_h = " UART    BLE    ";
						menu_display_l = " Exit           ";
    328a:	16 01       	movw	r2, r12
							menu_display_l[13] = ' ';
					}
					else
					{
						// Display init
						menu_display_h = " UART    BLE    ";
    328c:	09 ea       	ldi	r16, 0xA9	; 169
    328e:	12 e0       	ldi	r17, 0x02	; 2
					}
					
					
					// Cursor move & val set //////////
					// Jiffa - PPM
					if (menu_input == 0)
    3290:	90 91 ce 05 	lds	r25, 0x05CE	; 0x8005ce <menu_input>
    3294:	91 11       	cpse	r25, r1
    3296:	09 c0       	rjmp	.+18     	; 0x32aa <menu+0x1756>
					{
						// Cursor move
						menu_display_h[0] = '>';
    3298:	f8 01       	movw	r30, r16
    329a:	40 82       	st	Z, r4
						
						if (enter)
    329c:	88 23       	and	r24, r24
    329e:	09 f4       	brne	.+2      	; 0x32a2 <menu+0x174e>
    32a0:	75 c7       	rjmp	.+3818   	; 0x418c <menu+0x2638>
						{
							mixing_val_3 = JF24|mixing_val_3_temp;
    32a2:	fe 81       	ldd	r31, Y+6	; 0x06
    32a4:	f0 93 d6 05 	sts	0x05D6, r31	; 0x8005d6 <mixing_val_3>
    32a8:	71 c7       	rjmp	.+3810   	; 0x418c <menu+0x2638>
						}
					}
					else
						menu_display_h[0] = ' ';
    32aa:	f8 01       	movw	r30, r16
    32ac:	b0 82       	st	Z, r11
					
					
					// NRF
					if (menu_input == 1)
    32ae:	91 30       	cpi	r25, 0x01	; 1
    32b0:	41 f4       	brne	.+16     	; 0x32c2 <menu+0x176e>
					{
						// Cursor move
						menu_display_h[8] = '>';
    32b2:	40 86       	std	Z+8, r4	; 0x08
						
						if (enter)
    32b4:	88 23       	and	r24, r24
    32b6:	09 f4       	brne	.+2      	; 0x32ba <menu+0x1766>
    32b8:	6c c7       	rjmp	.+3800   	; 0x4192 <menu+0x263e>
						{
							mixing_val_3 = NRF|mixing_val_3_temp;
    32ba:	fd 81       	ldd	r31, Y+5	; 0x05
    32bc:	f0 93 d6 05 	sts	0x05D6, r31	; 0x8005d6 <mixing_val_3>
    32c0:	68 c7       	rjmp	.+3792   	; 0x4192 <menu+0x263e>
						}
					}
					else
						menu_display_h[8] = ' ';
    32c2:	f8 01       	movw	r30, r16
    32c4:	b0 86       	std	Z+8, r11	; 0x08
					
					
					// UART
					if (menu_input == 2)
    32c6:	92 30       	cpi	r25, 0x02	; 2
    32c8:	49 f4       	brne	.+18     	; 0x32dc <menu+0x1788>
					{
						// Cursor move
						menu_display_l[0] = '>';
    32ca:	f1 01       	movw	r30, r2
    32cc:	40 82       	st	Z, r4
						
						if (enter)
    32ce:	88 23       	and	r24, r24
    32d0:	09 f4       	brne	.+2      	; 0x32d4 <menu+0x1780>
    32d2:	62 c7       	rjmp	.+3780   	; 0x4198 <menu+0x2644>
						{
							mixing_val_3 = UART|mixing_val_3_temp;
    32d4:	fc 81       	ldd	r31, Y+4	; 0x04
    32d6:	f0 93 d6 05 	sts	0x05D6, r31	; 0x8005d6 <mixing_val_3>
    32da:	5e c7       	rjmp	.+3772   	; 0x4198 <menu+0x2644>
						}
					}
					else
						menu_display_l[0] = ' ';
    32dc:	f1 01       	movw	r30, r2
    32de:	b0 82       	st	Z, r11
					
					
					// BLE
					if (menu_input == 3)
    32e0:	93 30       	cpi	r25, 0x03	; 3
    32e2:	39 f4       	brne	.+14     	; 0x32f2 <menu+0x179e>
					{
						// Cursor move
						menu_display_l[8] = '>';
    32e4:	40 86       	std	Z+8, r4	; 0x08
						
						if (enter)
    32e6:	88 23       	and	r24, r24
    32e8:	91 f0       	breq	.+36     	; 0x330e <menu+0x17ba>
						{
							mixing_val_3 = BLE|mixing_val_3_temp;
    32ea:	f9 81       	ldd	r31, Y+1	; 0x01
    32ec:	f0 93 d6 05 	sts	0x05D6, r31	; 0x8005d6 <mixing_val_3>
    32f0:	0e c0       	rjmp	.+28     	; 0x330e <menu+0x17ba>
						}
					}
					else
						menu_display_l[8] = ' ';
    32f2:	f1 01       	movw	r30, r2
    32f4:	b0 86       	std	Z+8, r11	; 0x08
					
					
					// Exit
					if (menu_input == 4)
    32f6:	94 30       	cpi	r25, 0x04	; 4
    32f8:	51 f4       	brne	.+20     	; 0x330e <menu+0x17ba>
					{
						// Cursor move
						menu_display_h[8] = ' ';
    32fa:	f8 01       	movw	r30, r16
    32fc:	b0 86       	std	Z+8, r11	; 0x08
						menu_display_l[0] = '>';
    32fe:	f1 01       	movw	r30, r2
    3300:	40 82       	st	Z, r4
						menu_display_l[8] = ' ';
							
						if (enter)
    3302:	88 23       	and	r24, r24
    3304:	21 f0       	breq	.+8      	; 0x330e <menu+0x17ba>
						{
							menu_input = menu_input_temp;
    3306:	8a e0       	ldi	r24, 0x0A	; 10
    3308:	80 93 ce 05 	sts	0x05CE, r24	; 0x8005ce <menu_input>
							break;
    330c:	f2 c6       	rjmp	.+3556   	; 0x40f2 <menu+0x259e>
						}
					}
					
						
					// LCD drive
					LCD_string(menu_display_h, 16);
    330e:	60 e1       	ldi	r22, 0x10	; 16
    3310:	c8 01       	movw	r24, r16
    3312:	0e 94 db 01 	call	0x3b6	; 0x3b6 <LCD_string>
					LCD_NWL();
    3316:	0e 94 5c 02 	call	0x4b8	; 0x4b8 <LCD_NWL>
					LCD_string(menu_display_l, 16);
    331a:	60 e1       	ldi	r22, 0x10	; 16
    331c:	c1 01       	movw	r24, r2
    331e:	0e 94 db 01 	call	0x3b6	; 0x3b6 <LCD_string>
					LCD_home();
    3322:	0e 94 6a 02 	call	0x4d4	; 0x4d4 <LCD_home>
					
					// Buzzer drive
					buzzer_switch();
    3326:	0e 94 1b 09 	call	0x1236	; 0x1236 <buzzer_switch>
					
				} // while (1)
    332a:	50 cf       	rjmp	.-352    	; 0x31cc <menu+0x1678>
			}// if (enter)
		} // else if (menu_input == 9)
		
		
		////////// Switch allocation /////////////////////////////////////////////
		else if (menu_input == 11)
    332c:	9b 30       	cpi	r25, 0x0B	; 11
    332e:	09 f0       	breq	.+2      	; 0x3332 <menu+0x17de>
    3330:	65 c6       	rjmp	.+3274   	; 0x3ffc <menu+0x24a8>
		{
			// Display
			menu_display_h = " Output mode    ";
			menu_display_l = ">Switch allocate";
			
			if (enter)
    3332:	88 23       	and	r24, r24
    3334:	09 f4       	brne	.+2      	; 0x3338 <menu+0x17e4>
    3336:	cc c6       	rjmp	.+3480   	; 0x40d0 <menu+0x257c>
			{
				menu_input_temp = menu_input;
				menu_input = cur_model;
    3338:	80 91 cf 05 	lds	r24, 0x05CF	; 0x8005cf <cur_model>
    333c:	80 93 ce 05 	sts	0x05CE, r24	; 0x8005ce <menu_input>
				LCD_CLEAR();
    3340:	0e 94 60 02 	call	0x4c0	; 0x4c0 <LCD_CLEAR>
					
					// Exit
					if (menu_input == 8)
					{
						// Cursor move
						menu_display_h[8] = ' ';
    3344:	68 94       	set
    3346:	44 24       	eor	r4, r4
    3348:	45 f8       	bld	r4, 5
									menu_input = 5;
								
								
								if (menu_input == 0)
								{
									menu_display_l[13] = 'N';
    334a:	0f 2e       	mov	r0, r31
    334c:	fe e4       	ldi	r31, 0x4E	; 78
    334e:	af 2e       	mov	r10, r31
    3350:	f0 2d       	mov	r31, r0
									menu_display_l[14] = 'C';
    3352:	0f 2e       	mov	r0, r31
    3354:	f3 e4       	ldi	r31, 0x43	; 67
    3356:	bf 2e       	mov	r11, r31
    3358:	f0 2d       	mov	r31, r0
									menu_display_l[15] = 'R';
									sw[7] = RUD_DR;
								}
								else if (menu_input == 5)
								{
									menu_display_l[13] = 'D';
    335a:	0f 2e       	mov	r0, r31
    335c:	f4 e4       	ldi	r31, 0x44	; 68
    335e:	cf 2e       	mov	r12, r31
    3360:	f0 2d       	mov	r31, r0
									menu_display_l[14] = 'R';
    3362:	0f 2e       	mov	r0, r31
    3364:	f2 e5       	ldi	r31, 0x52	; 82
    3366:	ff 2e       	mov	r15, r31
    3368:	f0 2d       	mov	r31, r0
					// Display & stat /////////////////
					if (menu_input < 4)
					{
						// Display init
						menu_display_h = " SW1-    SW2-   ";
						menu_display_l = " SW3-    SW4-   ";
    336a:	9a 82       	std	Y+2, r9	; 0x02
    336c:	89 82       	std	Y+1, r8	; 0x01
				menu_input_temp = menu_input;
				menu_input = cur_model;
				LCD_CLEAR();
				while (1)
				{
					enter = menu_read();
    336e:	0e 94 fd 05 	call	0xbfa	; 0xbfa <menu_read>
					if (menu_input < 0)
    3372:	90 91 ce 05 	lds	r25, 0x05CE	; 0x8005ce <menu_input>
    3376:	99 23       	and	r25, r25
    3378:	24 f4       	brge	.+8      	; 0x3382 <menu+0x182e>
						menu_input = 0;
    337a:	10 92 ce 05 	sts	0x05CE, r1	; 0x8005ce <menu_input>
					else if (menu_input > 8)
						menu_input = 8;			// 7 switches
					
					
					// Display & stat /////////////////
					if (menu_input < 4)
    337e:	90 e0       	ldi	r25, 0x00	; 0
    3380:	11 c0       	rjmp	.+34     	; 0x33a4 <menu+0x1850>
				while (1)
				{
					enter = menu_read();
					if (menu_input < 0)
						menu_input = 0;
					else if (menu_input > 8)
    3382:	99 30       	cpi	r25, 0x09	; 9
    3384:	64 f0       	brlt	.+24     	; 0x339e <menu+0x184a>
						menu_input = 8;			// 7 switches
    3386:	98 e0       	ldi	r25, 0x08	; 8
    3388:	90 93 ce 05 	sts	0x05CE, r25	; 0x8005ce <menu_input>
					}
					else
					{
						// Display init
						menu_display_h = " SW7-    SW8-   ";
						menu_display_l = " Exit           ";
    338c:	0f 2e       	mov	r0, r31
    338e:	f6 e6       	ldi	r31, 0x66	; 102
    3390:	2f 2e       	mov	r2, r31
    3392:	f2 e0       	ldi	r31, 0x02	; 2
    3394:	3f 2e       	mov	r3, r31
    3396:	f0 2d       	mov	r31, r0
						
					}
					else
					{
						// Display init
						menu_display_h = " SW7-    SW8-   ";
    3398:	0e ef       	ldi	r16, 0xFE	; 254
    339a:	12 e0       	ldi	r17, 0x02	; 2
    339c:	0e c6       	rjmp	.+3100   	; 0x3fba <menu+0x2466>
					else if (menu_input > 8)
						menu_input = 8;			// 7 switches
					
					
					// Display & stat /////////////////
					if (menu_input < 4)
    339e:	94 30       	cpi	r25, 0x04	; 4
    33a0:	0c f0       	brlt	.+2      	; 0x33a4 <menu+0x1850>
    33a2:	31 c1       	rjmp	.+610    	; 0x3606 <menu+0x1ab2>
						// Display init
						menu_display_h = " SW1-    SW2-   ";
						menu_display_l = " SW3-    SW4-   ";
						
						// SW1 initial value
						switch (sw[0])
    33a4:	ed ed       	ldi	r30, 0xDD	; 221
    33a6:	f5 e0       	ldi	r31, 0x05	; 5
    33a8:	40 81       	ld	r20, Z
    33aa:	50 e0       	ldi	r21, 0x00	; 0
    33ac:	41 32       	cpi	r20, 0x21	; 33
    33ae:	51 05       	cpc	r21, r1
    33b0:	a0 f5       	brcc	.+104    	; 0x341a <menu+0x18c6>
    33b2:	fa 01       	movw	r30, r20
    33b4:	e6 5a       	subi	r30, 0xA6	; 166
    33b6:	ff 4f       	sbci	r31, 0xFF	; 255
    33b8:	0c 94 f8 27 	jmp	0x4ff0	; 0x4ff0 <__tablejump2__>
						{
							case 0:
								menu_display_h[5] = 'N';
    33bc:	ec ed       	ldi	r30, 0xDC	; 220
    33be:	f2 e0       	ldi	r31, 0x02	; 2
    33c0:	a5 82       	std	Z+5, r10	; 0x05
								menu_display_h[6] = 'C';
    33c2:	b6 82       	std	Z+6, r11	; 0x06
								menu_display_h[7] = ' ';
    33c4:	47 82       	std	Z+7, r4	; 0x07
								break;
    33c6:	29 c0       	rjmp	.+82     	; 0x341a <menu+0x18c6>
							
							case CH5_SW:
								menu_display_h[5] = 'C';
    33c8:	ec ed       	ldi	r30, 0xDC	; 220
    33ca:	f2 e0       	ldi	r31, 0x02	; 2
    33cc:	b5 82       	std	Z+5, r11	; 0x05
								menu_display_h[6] = 'H';
    33ce:	28 e4       	ldi	r18, 0x48	; 72
    33d0:	26 83       	std	Z+6, r18	; 0x06
								menu_display_h[7] = '5';
    33d2:	25 e3       	ldi	r18, 0x35	; 53
    33d4:	27 83       	std	Z+7, r18	; 0x07
								break;
    33d6:	21 c0       	rjmp	.+66     	; 0x341a <menu+0x18c6>
							
							case AIL_DR:
								menu_display_h[5] = 'D';
    33d8:	ec ed       	ldi	r30, 0xDC	; 220
    33da:	f2 e0       	ldi	r31, 0x02	; 2
    33dc:	c5 82       	std	Z+5, r12	; 0x05
								menu_display_h[6] = 'R';
    33de:	f6 82       	std	Z+6, r15	; 0x06
								menu_display_h[7] = 'A';
    33e0:	21 e4       	ldi	r18, 0x41	; 65
    33e2:	27 83       	std	Z+7, r18	; 0x07
								break;
    33e4:	1a c0       	rjmp	.+52     	; 0x341a <menu+0x18c6>
							
							case ELE_DR:
								menu_display_h[5] = 'D';
    33e6:	ec ed       	ldi	r30, 0xDC	; 220
    33e8:	f2 e0       	ldi	r31, 0x02	; 2
    33ea:	c5 82       	std	Z+5, r12	; 0x05
								menu_display_h[6] = 'R';
    33ec:	f6 82       	std	Z+6, r15	; 0x06
								menu_display_h[7] = 'E';
    33ee:	25 e4       	ldi	r18, 0x45	; 69
    33f0:	27 83       	std	Z+7, r18	; 0x07
								break;
    33f2:	13 c0       	rjmp	.+38     	; 0x341a <menu+0x18c6>
							
							case THR_DR:
								menu_display_h[5] = 'D';
    33f4:	ec ed       	ldi	r30, 0xDC	; 220
    33f6:	f2 e0       	ldi	r31, 0x02	; 2
    33f8:	c5 82       	std	Z+5, r12	; 0x05
								menu_display_h[6] = 'R';
    33fa:	f6 82       	std	Z+6, r15	; 0x06
								menu_display_h[7] = 'T';
    33fc:	24 e5       	ldi	r18, 0x54	; 84
    33fe:	27 83       	std	Z+7, r18	; 0x07
								break;
    3400:	0c c0       	rjmp	.+24     	; 0x341a <menu+0x18c6>
							
							case RUD_DR:
								menu_display_h[5] = 'D';
    3402:	ec ed       	ldi	r30, 0xDC	; 220
    3404:	f2 e0       	ldi	r31, 0x02	; 2
    3406:	c5 82       	std	Z+5, r12	; 0x05
								menu_display_h[6] = 'R';
    3408:	f6 82       	std	Z+6, r15	; 0x06
								menu_display_h[7] = 'R';
    340a:	f7 82       	std	Z+7, r15	; 0x07
								break;
    340c:	06 c0       	rjmp	.+12     	; 0x341a <menu+0x18c6>
							
							case CH5_DR:
								menu_display_h[5] = 'D';
    340e:	ec ed       	ldi	r30, 0xDC	; 220
    3410:	f2 e0       	ldi	r31, 0x02	; 2
    3412:	c5 82       	std	Z+5, r12	; 0x05
								menu_display_h[6] = 'R';
    3414:	f6 82       	std	Z+6, r15	; 0x06
								menu_display_h[7] = '5';
    3416:	25 e3       	ldi	r18, 0x35	; 53
    3418:	27 83       	std	Z+7, r18	; 0x07
								break;
						}
						// SW2 initial value
						switch (sw[1])
    341a:	40 91 de 05 	lds	r20, 0x05DE	; 0x8005de <sw+0x1>
    341e:	50 e0       	ldi	r21, 0x00	; 0
    3420:	41 32       	cpi	r20, 0x21	; 33
    3422:	51 05       	cpc	r21, r1
    3424:	a0 f5       	brcc	.+104    	; 0x348e <menu+0x193a>
    3426:	fa 01       	movw	r30, r20
    3428:	e5 58       	subi	r30, 0x85	; 133
    342a:	ff 4f       	sbci	r31, 0xFF	; 255
    342c:	0c 94 f8 27 	jmp	0x4ff0	; 0x4ff0 <__tablejump2__>
						{
							case 0:
								menu_display_h[13] = 'N';
    3430:	ec ed       	ldi	r30, 0xDC	; 220
    3432:	f2 e0       	ldi	r31, 0x02	; 2
    3434:	a5 86       	std	Z+13, r10	; 0x0d
								menu_display_h[14] = 'C';
    3436:	b6 86       	std	Z+14, r11	; 0x0e
								menu_display_h[15] = ' ';
    3438:	47 86       	std	Z+15, r4	; 0x0f
								break;
    343a:	29 c0       	rjmp	.+82     	; 0x348e <menu+0x193a>
							
							case CH5_SW:
								menu_display_h[13] = 'C';
    343c:	ec ed       	ldi	r30, 0xDC	; 220
    343e:	f2 e0       	ldi	r31, 0x02	; 2
    3440:	b5 86       	std	Z+13, r11	; 0x0d
								menu_display_h[14] = 'H';
    3442:	28 e4       	ldi	r18, 0x48	; 72
    3444:	26 87       	std	Z+14, r18	; 0x0e
								menu_display_h[15] = '5';
    3446:	25 e3       	ldi	r18, 0x35	; 53
    3448:	27 87       	std	Z+15, r18	; 0x0f
								break;
    344a:	21 c0       	rjmp	.+66     	; 0x348e <menu+0x193a>
							
							case AIL_DR:
								menu_display_h[13] = 'D';
    344c:	ec ed       	ldi	r30, 0xDC	; 220
    344e:	f2 e0       	ldi	r31, 0x02	; 2
    3450:	c5 86       	std	Z+13, r12	; 0x0d
								menu_display_h[14] = 'R';
    3452:	f6 86       	std	Z+14, r15	; 0x0e
								menu_display_h[15] = 'A';
    3454:	21 e4       	ldi	r18, 0x41	; 65
    3456:	27 87       	std	Z+15, r18	; 0x0f
								break;
    3458:	1a c0       	rjmp	.+52     	; 0x348e <menu+0x193a>
							
							case ELE_DR:
								menu_display_h[13] = 'D';
    345a:	ec ed       	ldi	r30, 0xDC	; 220
    345c:	f2 e0       	ldi	r31, 0x02	; 2
    345e:	c5 86       	std	Z+13, r12	; 0x0d
								menu_display_h[14] = 'R';
    3460:	f6 86       	std	Z+14, r15	; 0x0e
								menu_display_h[15] = 'E';
    3462:	25 e4       	ldi	r18, 0x45	; 69
    3464:	27 87       	std	Z+15, r18	; 0x0f
								break;
    3466:	13 c0       	rjmp	.+38     	; 0x348e <menu+0x193a>
							
							case THR_DR:
								menu_display_h[13] = 'D';
    3468:	ec ed       	ldi	r30, 0xDC	; 220
    346a:	f2 e0       	ldi	r31, 0x02	; 2
    346c:	c5 86       	std	Z+13, r12	; 0x0d
								menu_display_h[14] = 'R';
    346e:	f6 86       	std	Z+14, r15	; 0x0e
								menu_display_h[15] = 'T';
    3470:	24 e5       	ldi	r18, 0x54	; 84
    3472:	27 87       	std	Z+15, r18	; 0x0f
								break;
    3474:	0c c0       	rjmp	.+24     	; 0x348e <menu+0x193a>
							
							case RUD_DR:
								menu_display_h[13] = 'D';
    3476:	ec ed       	ldi	r30, 0xDC	; 220
    3478:	f2 e0       	ldi	r31, 0x02	; 2
    347a:	c5 86       	std	Z+13, r12	; 0x0d
								menu_display_h[14] = 'R';
    347c:	f6 86       	std	Z+14, r15	; 0x0e
								menu_display_h[15] = 'R';
    347e:	f7 86       	std	Z+15, r15	; 0x0f
								break;
    3480:	06 c0       	rjmp	.+12     	; 0x348e <menu+0x193a>
							
							case CH5_DR:
								menu_display_h[13] = 'D';
    3482:	ec ed       	ldi	r30, 0xDC	; 220
    3484:	f2 e0       	ldi	r31, 0x02	; 2
    3486:	c5 86       	std	Z+13, r12	; 0x0d
								menu_display_h[14] = 'R';
    3488:	f6 86       	std	Z+14, r15	; 0x0e
								menu_display_h[15] = '5';
    348a:	25 e3       	ldi	r18, 0x35	; 53
    348c:	27 87       	std	Z+15, r18	; 0x0f
								break;
						}
						// SW3 initial value
						switch (sw[2])
    348e:	40 91 df 05 	lds	r20, 0x05DF	; 0x8005df <sw+0x2>
    3492:	50 e0       	ldi	r21, 0x00	; 0
    3494:	41 32       	cpi	r20, 0x21	; 33
    3496:	51 05       	cpc	r21, r1
    3498:	d8 f5       	brcc	.+118    	; 0x3510 <menu+0x19bc>
    349a:	fa 01       	movw	r30, r20
    349c:	e4 56       	subi	r30, 0x64	; 100
    349e:	ff 4f       	sbci	r31, 0xFF	; 255
    34a0:	0c 94 f8 27 	jmp	0x4ff0	; 0x4ff0 <__tablejump2__>
						{
							case 0:
								menu_display_l[5] = 'N';
    34a4:	a0 92 d0 02 	sts	0x02D0, r10	; 0x8002d0 <battery_alarm+0x18c>
								menu_display_l[6] = 'C';
    34a8:	b0 92 d1 02 	sts	0x02D1, r11	; 0x8002d1 <battery_alarm+0x18d>
								menu_display_l[7] = ' ';
    34ac:	40 92 d2 02 	sts	0x02D2, r4	; 0x8002d2 <battery_alarm+0x18e>
								break;
    34b0:	2f c0       	rjmp	.+94     	; 0x3510 <menu+0x19bc>
							
							case CH5_SW:
								menu_display_l[5] = 'C';
    34b2:	b0 92 d0 02 	sts	0x02D0, r11	; 0x8002d0 <battery_alarm+0x18c>
								menu_display_l[6] = 'H';
    34b6:	28 e4       	ldi	r18, 0x48	; 72
    34b8:	20 93 d1 02 	sts	0x02D1, r18	; 0x8002d1 <battery_alarm+0x18d>
								menu_display_l[7] = '5';
    34bc:	25 e3       	ldi	r18, 0x35	; 53
    34be:	20 93 d2 02 	sts	0x02D2, r18	; 0x8002d2 <battery_alarm+0x18e>
								break;
    34c2:	26 c0       	rjmp	.+76     	; 0x3510 <menu+0x19bc>
								
							case AIL_DR:
								menu_display_l[5] = 'D';
    34c4:	c0 92 d0 02 	sts	0x02D0, r12	; 0x8002d0 <battery_alarm+0x18c>
								menu_display_l[6] = 'R';
    34c8:	f0 92 d1 02 	sts	0x02D1, r15	; 0x8002d1 <battery_alarm+0x18d>
								menu_display_l[7] = 'A';
    34cc:	21 e4       	ldi	r18, 0x41	; 65
    34ce:	20 93 d2 02 	sts	0x02D2, r18	; 0x8002d2 <battery_alarm+0x18e>
								break;
    34d2:	1e c0       	rjmp	.+60     	; 0x3510 <menu+0x19bc>
							
							case ELE_DR:
								menu_display_l[5] = 'D';
    34d4:	c0 92 d0 02 	sts	0x02D0, r12	; 0x8002d0 <battery_alarm+0x18c>
								menu_display_l[6] = 'R';
    34d8:	f0 92 d1 02 	sts	0x02D1, r15	; 0x8002d1 <battery_alarm+0x18d>
								menu_display_l[7] = 'E';
    34dc:	25 e4       	ldi	r18, 0x45	; 69
    34de:	20 93 d2 02 	sts	0x02D2, r18	; 0x8002d2 <battery_alarm+0x18e>
								break;
    34e2:	16 c0       	rjmp	.+44     	; 0x3510 <menu+0x19bc>
							
							case THR_DR:
								menu_display_l[5] = 'D';
    34e4:	c0 92 d0 02 	sts	0x02D0, r12	; 0x8002d0 <battery_alarm+0x18c>
								menu_display_l[6] = 'R';
    34e8:	f0 92 d1 02 	sts	0x02D1, r15	; 0x8002d1 <battery_alarm+0x18d>
								menu_display_l[7] = 'T';
    34ec:	24 e5       	ldi	r18, 0x54	; 84
    34ee:	20 93 d2 02 	sts	0x02D2, r18	; 0x8002d2 <battery_alarm+0x18e>
								break;
    34f2:	0e c0       	rjmp	.+28     	; 0x3510 <menu+0x19bc>
							
							case RUD_DR:
								menu_display_l[5] = 'D';
    34f4:	c0 92 d0 02 	sts	0x02D0, r12	; 0x8002d0 <battery_alarm+0x18c>
								menu_display_l[6] = 'R';
    34f8:	f0 92 d1 02 	sts	0x02D1, r15	; 0x8002d1 <battery_alarm+0x18d>
								menu_display_l[7] = 'R';
    34fc:	f0 92 d2 02 	sts	0x02D2, r15	; 0x8002d2 <battery_alarm+0x18e>
								break;
    3500:	07 c0       	rjmp	.+14     	; 0x3510 <menu+0x19bc>
							
							case CH5_DR:
								menu_display_l[5] = 'D';
    3502:	c0 92 d0 02 	sts	0x02D0, r12	; 0x8002d0 <battery_alarm+0x18c>
								menu_display_l[6] = 'R';
    3506:	f0 92 d1 02 	sts	0x02D1, r15	; 0x8002d1 <battery_alarm+0x18d>
								menu_display_l[7] = '5';
    350a:	25 e3       	ldi	r18, 0x35	; 53
    350c:	20 93 d2 02 	sts	0x02D2, r18	; 0x8002d2 <battery_alarm+0x18e>
								break;
						}
						// SW4 initial value
						switch (sw[3])
    3510:	40 91 e0 05 	lds	r20, 0x05E0	; 0x8005e0 <sw+0x3>
    3514:	50 e0       	ldi	r21, 0x00	; 0
    3516:	41 32       	cpi	r20, 0x21	; 33
    3518:	51 05       	cpc	r21, r1
    351a:	08 f0       	brcs	.+2      	; 0x351e <menu+0x19ca>
    351c:	90 c1       	rjmp	.+800    	; 0x383e <menu+0x1cea>
    351e:	fa 01       	movw	r30, r20
    3520:	e3 54       	subi	r30, 0x43	; 67
    3522:	ff 4f       	sbci	r31, 0xFF	; 255
    3524:	0c 94 f8 27 	jmp	0x4ff0	; 0x4ff0 <__tablejump2__>
						{
							case 0:
								menu_display_l[13] = 'N';
    3528:	a0 92 d8 02 	sts	0x02D8, r10	; 0x8002d8 <battery_alarm+0x194>
								menu_display_l[14] = 'C';
    352c:	b0 92 d9 02 	sts	0x02D9, r11	; 0x8002d9 <battery_alarm+0x195>
								menu_display_l[15] = ' ';
    3530:	40 92 da 02 	sts	0x02DA, r4	; 0x8002da <battery_alarm+0x196>
					// Display & stat /////////////////
					if (menu_input < 4)
					{
						// Display init
						menu_display_h = " SW1-    SW2-   ";
						menu_display_l = " SW3-    SW4-   ";
    3534:	0f 2e       	mov	r0, r31
    3536:	fb ec       	ldi	r31, 0xCB	; 203
    3538:	2f 2e       	mov	r2, r31
    353a:	f2 e0       	ldi	r31, 0x02	; 2
    353c:	3f 2e       	mov	r3, r31
    353e:	f0 2d       	mov	r31, r0
					
					// Display & stat /////////////////
					if (menu_input < 4)
					{
						// Display init
						menu_display_h = " SW1-    SW2-   ";
    3540:	0c ed       	ldi	r16, 0xDC	; 220
    3542:	12 e0       	ldi	r17, 0x02	; 2
						{
							case 0:
								menu_display_l[13] = 'N';
								menu_display_l[14] = 'C';
								menu_display_l[15] = ' ';
								break;
    3544:	9f c1       	rjmp	.+830    	; 0x3884 <menu+0x1d30>
							
							case CH5_SW:
								menu_display_l[13] = 'C';
    3546:	b0 92 d8 02 	sts	0x02D8, r11	; 0x8002d8 <battery_alarm+0x194>
								menu_display_l[14] = 'H';
    354a:	28 e4       	ldi	r18, 0x48	; 72
    354c:	20 93 d9 02 	sts	0x02D9, r18	; 0x8002d9 <battery_alarm+0x195>
								menu_display_l[15] = '5';
    3550:	25 e3       	ldi	r18, 0x35	; 53
    3552:	20 93 da 02 	sts	0x02DA, r18	; 0x8002da <battery_alarm+0x196>
					// Display & stat /////////////////
					if (menu_input < 4)
					{
						// Display init
						menu_display_h = " SW1-    SW2-   ";
						menu_display_l = " SW3-    SW4-   ";
    3556:	0f 2e       	mov	r0, r31
    3558:	fb ec       	ldi	r31, 0xCB	; 203
    355a:	2f 2e       	mov	r2, r31
    355c:	f2 e0       	ldi	r31, 0x02	; 2
    355e:	3f 2e       	mov	r3, r31
    3560:	f0 2d       	mov	r31, r0
					
					// Display & stat /////////////////
					if (menu_input < 4)
					{
						// Display init
						menu_display_h = " SW1-    SW2-   ";
    3562:	0c ed       	ldi	r16, 0xDC	; 220
    3564:	12 e0       	ldi	r17, 0x02	; 2
							
							case CH5_SW:
								menu_display_l[13] = 'C';
								menu_display_l[14] = 'H';
								menu_display_l[15] = '5';
								break;
    3566:	8e c1       	rjmp	.+796    	; 0x3884 <menu+0x1d30>
							
							case AIL_DR:
								menu_display_l[13] = 'D';
    3568:	c0 92 d8 02 	sts	0x02D8, r12	; 0x8002d8 <battery_alarm+0x194>
								menu_display_l[14] = 'R';
    356c:	f0 92 d9 02 	sts	0x02D9, r15	; 0x8002d9 <battery_alarm+0x195>
								menu_display_l[15] = 'A';
    3570:	21 e4       	ldi	r18, 0x41	; 65
    3572:	20 93 da 02 	sts	0x02DA, r18	; 0x8002da <battery_alarm+0x196>
					// Display & stat /////////////////
					if (menu_input < 4)
					{
						// Display init
						menu_display_h = " SW1-    SW2-   ";
						menu_display_l = " SW3-    SW4-   ";
    3576:	0f 2e       	mov	r0, r31
    3578:	fb ec       	ldi	r31, 0xCB	; 203
    357a:	2f 2e       	mov	r2, r31
    357c:	f2 e0       	ldi	r31, 0x02	; 2
    357e:	3f 2e       	mov	r3, r31
    3580:	f0 2d       	mov	r31, r0
					
					// Display & stat /////////////////
					if (menu_input < 4)
					{
						// Display init
						menu_display_h = " SW1-    SW2-   ";
    3582:	0c ed       	ldi	r16, 0xDC	; 220
    3584:	12 e0       	ldi	r17, 0x02	; 2
							
							case AIL_DR:
								menu_display_l[13] = 'D';
								menu_display_l[14] = 'R';
								menu_display_l[15] = 'A';
								break;
    3586:	7e c1       	rjmp	.+764    	; 0x3884 <menu+0x1d30>
							
							case ELE_DR:
								menu_display_l[13] = 'D';
    3588:	c0 92 d8 02 	sts	0x02D8, r12	; 0x8002d8 <battery_alarm+0x194>
								menu_display_l[14] = 'R';
    358c:	f0 92 d9 02 	sts	0x02D9, r15	; 0x8002d9 <battery_alarm+0x195>
								menu_display_l[15] = 'E';
    3590:	25 e4       	ldi	r18, 0x45	; 69
    3592:	20 93 da 02 	sts	0x02DA, r18	; 0x8002da <battery_alarm+0x196>
					// Display & stat /////////////////
					if (menu_input < 4)
					{
						// Display init
						menu_display_h = " SW1-    SW2-   ";
						menu_display_l = " SW3-    SW4-   ";
    3596:	0f 2e       	mov	r0, r31
    3598:	fb ec       	ldi	r31, 0xCB	; 203
    359a:	2f 2e       	mov	r2, r31
    359c:	f2 e0       	ldi	r31, 0x02	; 2
    359e:	3f 2e       	mov	r3, r31
    35a0:	f0 2d       	mov	r31, r0
					
					// Display & stat /////////////////
					if (menu_input < 4)
					{
						// Display init
						menu_display_h = " SW1-    SW2-   ";
    35a2:	0c ed       	ldi	r16, 0xDC	; 220
    35a4:	12 e0       	ldi	r17, 0x02	; 2
							
							case ELE_DR:
								menu_display_l[13] = 'D';
								menu_display_l[14] = 'R';
								menu_display_l[15] = 'E';
								break;
    35a6:	6e c1       	rjmp	.+732    	; 0x3884 <menu+0x1d30>
							
							case THR_DR:
								menu_display_l[13] = 'D';
    35a8:	c0 92 d8 02 	sts	0x02D8, r12	; 0x8002d8 <battery_alarm+0x194>
								menu_display_l[14] = 'R';
    35ac:	f0 92 d9 02 	sts	0x02D9, r15	; 0x8002d9 <battery_alarm+0x195>
								menu_display_l[15] = 'T';
    35b0:	24 e5       	ldi	r18, 0x54	; 84
    35b2:	20 93 da 02 	sts	0x02DA, r18	; 0x8002da <battery_alarm+0x196>
					// Display & stat /////////////////
					if (menu_input < 4)
					{
						// Display init
						menu_display_h = " SW1-    SW2-   ";
						menu_display_l = " SW3-    SW4-   ";
    35b6:	0f 2e       	mov	r0, r31
    35b8:	fb ec       	ldi	r31, 0xCB	; 203
    35ba:	2f 2e       	mov	r2, r31
    35bc:	f2 e0       	ldi	r31, 0x02	; 2
    35be:	3f 2e       	mov	r3, r31
    35c0:	f0 2d       	mov	r31, r0
					
					// Display & stat /////////////////
					if (menu_input < 4)
					{
						// Display init
						menu_display_h = " SW1-    SW2-   ";
    35c2:	0c ed       	ldi	r16, 0xDC	; 220
    35c4:	12 e0       	ldi	r17, 0x02	; 2
							
							case THR_DR:
								menu_display_l[13] = 'D';
								menu_display_l[14] = 'R';
								menu_display_l[15] = 'T';
								break;
    35c6:	5e c1       	rjmp	.+700    	; 0x3884 <menu+0x1d30>
							
							case RUD_DR:
								menu_display_l[13] = 'D';
    35c8:	c0 92 d8 02 	sts	0x02D8, r12	; 0x8002d8 <battery_alarm+0x194>
								menu_display_l[14] = 'R';
    35cc:	f0 92 d9 02 	sts	0x02D9, r15	; 0x8002d9 <battery_alarm+0x195>
								menu_display_l[15] = 'R';
    35d0:	f0 92 da 02 	sts	0x02DA, r15	; 0x8002da <battery_alarm+0x196>
					// Display & stat /////////////////
					if (menu_input < 4)
					{
						// Display init
						menu_display_h = " SW1-    SW2-   ";
						menu_display_l = " SW3-    SW4-   ";
    35d4:	0f 2e       	mov	r0, r31
    35d6:	fb ec       	ldi	r31, 0xCB	; 203
    35d8:	2f 2e       	mov	r2, r31
    35da:	f2 e0       	ldi	r31, 0x02	; 2
    35dc:	3f 2e       	mov	r3, r31
    35de:	f0 2d       	mov	r31, r0
					
					// Display & stat /////////////////
					if (menu_input < 4)
					{
						// Display init
						menu_display_h = " SW1-    SW2-   ";
    35e0:	0c ed       	ldi	r16, 0xDC	; 220
    35e2:	12 e0       	ldi	r17, 0x02	; 2
							
							case RUD_DR:
								menu_display_l[13] = 'D';
								menu_display_l[14] = 'R';
								menu_display_l[15] = 'R';
								break;
    35e4:	4f c1       	rjmp	.+670    	; 0x3884 <menu+0x1d30>
							
							case CH5_DR:
								menu_display_l[13] = 'D';
    35e6:	c0 92 d8 02 	sts	0x02D8, r12	; 0x8002d8 <battery_alarm+0x194>
								menu_display_l[14] = 'R';
    35ea:	f0 92 d9 02 	sts	0x02D9, r15	; 0x8002d9 <battery_alarm+0x195>
								menu_display_l[15] = '5';
    35ee:	25 e3       	ldi	r18, 0x35	; 53
    35f0:	20 93 da 02 	sts	0x02DA, r18	; 0x8002da <battery_alarm+0x196>
					// Display & stat /////////////////
					if (menu_input < 4)
					{
						// Display init
						menu_display_h = " SW1-    SW2-   ";
						menu_display_l = " SW3-    SW4-   ";
    35f4:	0f 2e       	mov	r0, r31
    35f6:	fb ec       	ldi	r31, 0xCB	; 203
    35f8:	2f 2e       	mov	r2, r31
    35fa:	f2 e0       	ldi	r31, 0x02	; 2
    35fc:	3f 2e       	mov	r3, r31
    35fe:	f0 2d       	mov	r31, r0
					
					// Display & stat /////////////////
					if (menu_input < 4)
					{
						// Display init
						menu_display_h = " SW1-    SW2-   ";
    3600:	0c ed       	ldi	r16, 0xDC	; 220
    3602:	12 e0       	ldi	r17, 0x02	; 2
							
							case CH5_DR:
								menu_display_l[13] = 'D';
								menu_display_l[14] = 'R';
								menu_display_l[15] = '5';
								break;
    3604:	3f c1       	rjmp	.+638    	; 0x3884 <menu+0x1d30>
						}
						
						
					}
					else if (menu_input < 6)
    3606:	96 30       	cpi	r25, 0x06	; 6
    3608:	0c f0       	brlt	.+2      	; 0x360c <menu+0x1ab8>
    360a:	8b c0       	rjmp	.+278    	; 0x3722 <menu+0x1bce>
						// Display init
						menu_display_h = " SW3-    SW4-   ";
						menu_display_l = " SW5-    SW6-   ";
						
						// SW5 initial value
						switch (sw[4])
    360c:	40 91 e1 05 	lds	r20, 0x05E1	; 0x8005e1 <sw+0x4>
    3610:	50 e0       	ldi	r21, 0x00	; 0
    3612:	41 32       	cpi	r20, 0x21	; 33
    3614:	51 05       	cpc	r21, r1
    3616:	a0 f5       	brcc	.+104    	; 0x3680 <menu+0x1b2c>
    3618:	fa 01       	movw	r30, r20
    361a:	e2 52       	subi	r30, 0x22	; 34
    361c:	ff 4f       	sbci	r31, 0xFF	; 255
    361e:	0c 94 f8 27 	jmp	0x4ff0	; 0x4ff0 <__tablejump2__>
						{
							case 0:
								menu_display_l[5] = 'N';
    3622:	ed ee       	ldi	r30, 0xED	; 237
    3624:	f2 e0       	ldi	r31, 0x02	; 2
    3626:	a5 82       	std	Z+5, r10	; 0x05
								menu_display_l[6] = 'C';
    3628:	b6 82       	std	Z+6, r11	; 0x06
								menu_display_l[7] = ' ';
    362a:	47 82       	std	Z+7, r4	; 0x07
								break;
    362c:	29 c0       	rjmp	.+82     	; 0x3680 <menu+0x1b2c>
							
							case CH5_SW:
								menu_display_l[5] = 'C';
    362e:	ed ee       	ldi	r30, 0xED	; 237
    3630:	f2 e0       	ldi	r31, 0x02	; 2
    3632:	b5 82       	std	Z+5, r11	; 0x05
								menu_display_l[6] = 'H';
    3634:	28 e4       	ldi	r18, 0x48	; 72
    3636:	26 83       	std	Z+6, r18	; 0x06
								menu_display_l[7] = '5';
    3638:	25 e3       	ldi	r18, 0x35	; 53
    363a:	27 83       	std	Z+7, r18	; 0x07
								break;
    363c:	21 c0       	rjmp	.+66     	; 0x3680 <menu+0x1b2c>
							
							case AIL_DR:
								menu_display_l[5] = 'D';
    363e:	ed ee       	ldi	r30, 0xED	; 237
    3640:	f2 e0       	ldi	r31, 0x02	; 2
    3642:	c5 82       	std	Z+5, r12	; 0x05
								menu_display_l[6] = 'R';
    3644:	f6 82       	std	Z+6, r15	; 0x06
								menu_display_l[7] = 'A';
    3646:	21 e4       	ldi	r18, 0x41	; 65
    3648:	27 83       	std	Z+7, r18	; 0x07
								break;
    364a:	1a c0       	rjmp	.+52     	; 0x3680 <menu+0x1b2c>
							
							case ELE_DR:
								menu_display_l[5] = 'D';
    364c:	ed ee       	ldi	r30, 0xED	; 237
    364e:	f2 e0       	ldi	r31, 0x02	; 2
    3650:	c5 82       	std	Z+5, r12	; 0x05
								menu_display_l[6] = 'R';
    3652:	f6 82       	std	Z+6, r15	; 0x06
								menu_display_l[7] = 'E';
    3654:	25 e4       	ldi	r18, 0x45	; 69
    3656:	27 83       	std	Z+7, r18	; 0x07
								break;
    3658:	13 c0       	rjmp	.+38     	; 0x3680 <menu+0x1b2c>
							
							case THR_DR:
								menu_display_l[5] = 'D';
    365a:	ed ee       	ldi	r30, 0xED	; 237
    365c:	f2 e0       	ldi	r31, 0x02	; 2
    365e:	c5 82       	std	Z+5, r12	; 0x05
								menu_display_l[6] = 'R';
    3660:	f6 82       	std	Z+6, r15	; 0x06
								menu_display_l[7] = 'T';
    3662:	24 e5       	ldi	r18, 0x54	; 84
    3664:	27 83       	std	Z+7, r18	; 0x07
								break;
    3666:	0c c0       	rjmp	.+24     	; 0x3680 <menu+0x1b2c>
							
							case RUD_DR:
								menu_display_l[5] = 'D';
    3668:	ed ee       	ldi	r30, 0xED	; 237
    366a:	f2 e0       	ldi	r31, 0x02	; 2
    366c:	c5 82       	std	Z+5, r12	; 0x05
								menu_display_l[6] = 'R';
    366e:	f6 82       	std	Z+6, r15	; 0x06
								menu_display_l[7] = 'R';
    3670:	f7 82       	std	Z+7, r15	; 0x07
								break;
    3672:	06 c0       	rjmp	.+12     	; 0x3680 <menu+0x1b2c>
							
							case CH5_DR:
								menu_display_l[5] = 'D';
    3674:	ed ee       	ldi	r30, 0xED	; 237
    3676:	f2 e0       	ldi	r31, 0x02	; 2
    3678:	c5 82       	std	Z+5, r12	; 0x05
								menu_display_l[6] = 'R';
    367a:	f6 82       	std	Z+6, r15	; 0x06
								menu_display_l[7] = '5';
    367c:	25 e3       	ldi	r18, 0x35	; 53
    367e:	27 83       	std	Z+7, r18	; 0x07
								break;
						}
						// SW6 initial value
						switch (sw[5])
    3680:	40 91 e2 05 	lds	r20, 0x05E2	; 0x8005e2 <sw+0x5>
    3684:	50 e0       	ldi	r21, 0x00	; 0
    3686:	41 32       	cpi	r20, 0x21	; 33
    3688:	51 05       	cpc	r21, r1
    368a:	08 f0       	brcs	.+2      	; 0x368e <menu+0x1b3a>
    368c:	e1 c0       	rjmp	.+450    	; 0x3850 <menu+0x1cfc>
    368e:	fa 01       	movw	r30, r20
    3690:	e1 50       	subi	r30, 0x01	; 1
    3692:	ff 4f       	sbci	r31, 0xFF	; 255
    3694:	0c 94 f8 27 	jmp	0x4ff0	; 0x4ff0 <__tablejump2__>
						{
							case 0:
								menu_display_l[13] = 'N';
    3698:	ed ee       	ldi	r30, 0xED	; 237
    369a:	f2 e0       	ldi	r31, 0x02	; 2
    369c:	a5 86       	std	Z+13, r10	; 0x0d
								menu_display_l[14] = 'C';
    369e:	b6 86       	std	Z+14, r11	; 0x0e
								menu_display_l[15] = ' ';
    36a0:	47 86       	std	Z+15, r4	; 0x0f
					}
					else if (menu_input < 6)
					{
						// Display init
						menu_display_h = " SW3-    SW4-   ";
						menu_display_l = " SW5-    SW6-   ";
    36a2:	1f 01       	movw	r2, r30
						
					}
					else if (menu_input < 6)
					{
						// Display init
						menu_display_h = " SW3-    SW4-   ";
    36a4:	0b ec       	ldi	r16, 0xCB	; 203
    36a6:	12 e0       	ldi	r17, 0x02	; 2
						{
							case 0:
								menu_display_l[13] = 'N';
								menu_display_l[14] = 'C';
								menu_display_l[15] = ' ';
								break;
    36a8:	ed c0       	rjmp	.+474    	; 0x3884 <menu+0x1d30>
							
							case CH5_SW:
								menu_display_l[13] = 'C';
    36aa:	ed ee       	ldi	r30, 0xED	; 237
    36ac:	f2 e0       	ldi	r31, 0x02	; 2
    36ae:	b5 86       	std	Z+13, r11	; 0x0d
								menu_display_l[14] = 'H';
    36b0:	28 e4       	ldi	r18, 0x48	; 72
    36b2:	26 87       	std	Z+14, r18	; 0x0e
								menu_display_l[15] = '5';
    36b4:	25 e3       	ldi	r18, 0x35	; 53
    36b6:	27 87       	std	Z+15, r18	; 0x0f
					}
					else if (menu_input < 6)
					{
						// Display init
						menu_display_h = " SW3-    SW4-   ";
						menu_display_l = " SW5-    SW6-   ";
    36b8:	1f 01       	movw	r2, r30
						
					}
					else if (menu_input < 6)
					{
						// Display init
						menu_display_h = " SW3-    SW4-   ";
    36ba:	0b ec       	ldi	r16, 0xCB	; 203
    36bc:	12 e0       	ldi	r17, 0x02	; 2
							
							case CH5_SW:
								menu_display_l[13] = 'C';
								menu_display_l[14] = 'H';
								menu_display_l[15] = '5';
								break;
    36be:	e2 c0       	rjmp	.+452    	; 0x3884 <menu+0x1d30>
							
							case AIL_DR:
								menu_display_l[13] = 'D';
    36c0:	ed ee       	ldi	r30, 0xED	; 237
    36c2:	f2 e0       	ldi	r31, 0x02	; 2
    36c4:	c5 86       	std	Z+13, r12	; 0x0d
								menu_display_l[14] = 'R';
    36c6:	f6 86       	std	Z+14, r15	; 0x0e
								menu_display_l[15] = 'A';
    36c8:	21 e4       	ldi	r18, 0x41	; 65
    36ca:	27 87       	std	Z+15, r18	; 0x0f
					}
					else if (menu_input < 6)
					{
						// Display init
						menu_display_h = " SW3-    SW4-   ";
						menu_display_l = " SW5-    SW6-   ";
    36cc:	1f 01       	movw	r2, r30
						
					}
					else if (menu_input < 6)
					{
						// Display init
						menu_display_h = " SW3-    SW4-   ";
    36ce:	0b ec       	ldi	r16, 0xCB	; 203
    36d0:	12 e0       	ldi	r17, 0x02	; 2
							
							case AIL_DR:
								menu_display_l[13] = 'D';
								menu_display_l[14] = 'R';
								menu_display_l[15] = 'A';
								break;
    36d2:	d8 c0       	rjmp	.+432    	; 0x3884 <menu+0x1d30>
							
							case ELE_DR:
								menu_display_l[13] = 'D';
    36d4:	ed ee       	ldi	r30, 0xED	; 237
    36d6:	f2 e0       	ldi	r31, 0x02	; 2
    36d8:	c5 86       	std	Z+13, r12	; 0x0d
								menu_display_l[14] = 'R';
    36da:	f6 86       	std	Z+14, r15	; 0x0e
								menu_display_l[15] = 'E';
    36dc:	25 e4       	ldi	r18, 0x45	; 69
    36de:	27 87       	std	Z+15, r18	; 0x0f
					}
					else if (menu_input < 6)
					{
						// Display init
						menu_display_h = " SW3-    SW4-   ";
						menu_display_l = " SW5-    SW6-   ";
    36e0:	1f 01       	movw	r2, r30
						
					}
					else if (menu_input < 6)
					{
						// Display init
						menu_display_h = " SW3-    SW4-   ";
    36e2:	0b ec       	ldi	r16, 0xCB	; 203
    36e4:	12 e0       	ldi	r17, 0x02	; 2
							
							case ELE_DR:
								menu_display_l[13] = 'D';
								menu_display_l[14] = 'R';
								menu_display_l[15] = 'E';
								break;
    36e6:	ce c0       	rjmp	.+412    	; 0x3884 <menu+0x1d30>
							
							case THR_DR:
								menu_display_l[13] = 'D';
    36e8:	ed ee       	ldi	r30, 0xED	; 237
    36ea:	f2 e0       	ldi	r31, 0x02	; 2
    36ec:	c5 86       	std	Z+13, r12	; 0x0d
								menu_display_l[14] = 'R';
    36ee:	f6 86       	std	Z+14, r15	; 0x0e
								menu_display_l[15] = 'T';
    36f0:	24 e5       	ldi	r18, 0x54	; 84
    36f2:	27 87       	std	Z+15, r18	; 0x0f
					}
					else if (menu_input < 6)
					{
						// Display init
						menu_display_h = " SW3-    SW4-   ";
						menu_display_l = " SW5-    SW6-   ";
    36f4:	1f 01       	movw	r2, r30
						
					}
					else if (menu_input < 6)
					{
						// Display init
						menu_display_h = " SW3-    SW4-   ";
    36f6:	0b ec       	ldi	r16, 0xCB	; 203
    36f8:	12 e0       	ldi	r17, 0x02	; 2
							
							case THR_DR:
								menu_display_l[13] = 'D';
								menu_display_l[14] = 'R';
								menu_display_l[15] = 'T';
								break;
    36fa:	c4 c0       	rjmp	.+392    	; 0x3884 <menu+0x1d30>
							
							case RUD_DR:
								menu_display_l[13] = 'D';
    36fc:	ed ee       	ldi	r30, 0xED	; 237
    36fe:	f2 e0       	ldi	r31, 0x02	; 2
    3700:	c5 86       	std	Z+13, r12	; 0x0d
								menu_display_l[14] = 'R';
    3702:	f6 86       	std	Z+14, r15	; 0x0e
								menu_display_l[15] = 'R';
    3704:	f7 86       	std	Z+15, r15	; 0x0f
					}
					else if (menu_input < 6)
					{
						// Display init
						menu_display_h = " SW3-    SW4-   ";
						menu_display_l = " SW5-    SW6-   ";
    3706:	1f 01       	movw	r2, r30
						
					}
					else if (menu_input < 6)
					{
						// Display init
						menu_display_h = " SW3-    SW4-   ";
    3708:	0b ec       	ldi	r16, 0xCB	; 203
    370a:	12 e0       	ldi	r17, 0x02	; 2
							
							case RUD_DR:
								menu_display_l[13] = 'D';
								menu_display_l[14] = 'R';
								menu_display_l[15] = 'R';
								break;
    370c:	bb c0       	rjmp	.+374    	; 0x3884 <menu+0x1d30>
							
							case CH5_DR:
								menu_display_l[13] = 'D';
    370e:	ed ee       	ldi	r30, 0xED	; 237
    3710:	f2 e0       	ldi	r31, 0x02	; 2
    3712:	c5 86       	std	Z+13, r12	; 0x0d
								menu_display_l[14] = 'R';
    3714:	f6 86       	std	Z+14, r15	; 0x0e
								menu_display_l[15] = '5';
    3716:	25 e3       	ldi	r18, 0x35	; 53
    3718:	27 87       	std	Z+15, r18	; 0x0f
					}
					else if (menu_input < 6)
					{
						// Display init
						menu_display_h = " SW3-    SW4-   ";
						menu_display_l = " SW5-    SW6-   ";
    371a:	1f 01       	movw	r2, r30
						
					}
					else if (menu_input < 6)
					{
						// Display init
						menu_display_h = " SW3-    SW4-   ";
    371c:	0b ec       	ldi	r16, 0xCB	; 203
    371e:	12 e0       	ldi	r17, 0x02	; 2
							
							case CH5_DR:
								menu_display_l[13] = 'D';
								menu_display_l[14] = 'R';
								menu_display_l[15] = '5';
								break;
    3720:	b1 c0       	rjmp	.+354    	; 0x3884 <menu+0x1d30>
						}
						
					}
					else if (menu_input < 8)
    3722:	98 30       	cpi	r25, 0x08	; 8
    3724:	0c f0       	brlt	.+2      	; 0x3728 <menu+0x1bd4>
    3726:	9d c0       	rjmp	.+314    	; 0x3862 <menu+0x1d0e>
						// Display init
						menu_display_h = " SW5-    SW6-   ";
						menu_display_l = " SW7-    SW8-   ";
						
						// SW7 initial value
						switch (sw[6])
    3728:	40 91 e3 05 	lds	r20, 0x05E3	; 0x8005e3 <sw+0x6>
    372c:	50 e0       	ldi	r21, 0x00	; 0
    372e:	41 32       	cpi	r20, 0x21	; 33
    3730:	51 05       	cpc	r21, r1
    3732:	a0 f5       	brcc	.+104    	; 0x379c <menu+0x1c48>
    3734:	fa 01       	movw	r30, r20
    3736:	e0 5e       	subi	r30, 0xE0	; 224
    3738:	fe 4f       	sbci	r31, 0xFE	; 254
    373a:	0c 94 f8 27 	jmp	0x4ff0	; 0x4ff0 <__tablejump2__>
						{
							case 0:
								menu_display_l[5] = 'N';
    373e:	ee ef       	ldi	r30, 0xFE	; 254
    3740:	f2 e0       	ldi	r31, 0x02	; 2
    3742:	a5 82       	std	Z+5, r10	; 0x05
								menu_display_l[6] = 'C';
    3744:	b6 82       	std	Z+6, r11	; 0x06
								menu_display_l[7] = ' ';
    3746:	47 82       	std	Z+7, r4	; 0x07
								break;
    3748:	29 c0       	rjmp	.+82     	; 0x379c <menu+0x1c48>
							
							case CH5_SW:
								menu_display_l[5] = 'C';
    374a:	ee ef       	ldi	r30, 0xFE	; 254
    374c:	f2 e0       	ldi	r31, 0x02	; 2
    374e:	b5 82       	std	Z+5, r11	; 0x05
								menu_display_l[6] = 'H';
    3750:	28 e4       	ldi	r18, 0x48	; 72
    3752:	26 83       	std	Z+6, r18	; 0x06
								menu_display_l[7] = '5';
    3754:	25 e3       	ldi	r18, 0x35	; 53
    3756:	27 83       	std	Z+7, r18	; 0x07
								break;
    3758:	21 c0       	rjmp	.+66     	; 0x379c <menu+0x1c48>
							
							case AIL_DR:
								menu_display_l[5] = 'D';
    375a:	ee ef       	ldi	r30, 0xFE	; 254
    375c:	f2 e0       	ldi	r31, 0x02	; 2
    375e:	c5 82       	std	Z+5, r12	; 0x05
								menu_display_l[6] = 'R';
    3760:	f6 82       	std	Z+6, r15	; 0x06
								menu_display_l[7] = 'A';
    3762:	21 e4       	ldi	r18, 0x41	; 65
    3764:	27 83       	std	Z+7, r18	; 0x07
								break;
    3766:	1a c0       	rjmp	.+52     	; 0x379c <menu+0x1c48>
							
							case ELE_DR:
								menu_display_l[5] = 'D';
    3768:	ee ef       	ldi	r30, 0xFE	; 254
    376a:	f2 e0       	ldi	r31, 0x02	; 2
    376c:	c5 82       	std	Z+5, r12	; 0x05
								menu_display_l[6] = 'R';
    376e:	f6 82       	std	Z+6, r15	; 0x06
								menu_display_l[7] = 'E';
    3770:	25 e4       	ldi	r18, 0x45	; 69
    3772:	27 83       	std	Z+7, r18	; 0x07
								break;
    3774:	13 c0       	rjmp	.+38     	; 0x379c <menu+0x1c48>
							
							case THR_DR:
								menu_display_l[5] = 'D';
    3776:	ee ef       	ldi	r30, 0xFE	; 254
    3778:	f2 e0       	ldi	r31, 0x02	; 2
    377a:	c5 82       	std	Z+5, r12	; 0x05
								menu_display_l[6] = 'R';
    377c:	f6 82       	std	Z+6, r15	; 0x06
								menu_display_l[7] = 'T';
    377e:	24 e5       	ldi	r18, 0x54	; 84
    3780:	27 83       	std	Z+7, r18	; 0x07
								break;
    3782:	0c c0       	rjmp	.+24     	; 0x379c <menu+0x1c48>
							
							case RUD_DR:
								menu_display_l[5] = 'D';
    3784:	ee ef       	ldi	r30, 0xFE	; 254
    3786:	f2 e0       	ldi	r31, 0x02	; 2
    3788:	c5 82       	std	Z+5, r12	; 0x05
								menu_display_l[6] = 'R';
    378a:	f6 82       	std	Z+6, r15	; 0x06
								menu_display_l[7] = 'R';
    378c:	f7 82       	std	Z+7, r15	; 0x07
								break;
    378e:	06 c0       	rjmp	.+12     	; 0x379c <menu+0x1c48>
							
							case CH5_DR:
								menu_display_l[5] = 'D';
    3790:	ee ef       	ldi	r30, 0xFE	; 254
    3792:	f2 e0       	ldi	r31, 0x02	; 2
    3794:	c5 82       	std	Z+5, r12	; 0x05
								menu_display_l[6] = 'R';
    3796:	f6 82       	std	Z+6, r15	; 0x06
								menu_display_l[7] = '5';
    3798:	25 e3       	ldi	r18, 0x35	; 53
    379a:	27 83       	std	Z+7, r18	; 0x07
								break;
						}
						// SW8 initial value
						switch (sw[7])
    379c:	40 91 e4 05 	lds	r20, 0x05E4	; 0x8005e4 <sw+0x7>
    37a0:	50 e0       	ldi	r21, 0x00	; 0
    37a2:	41 32       	cpi	r20, 0x21	; 33
    37a4:	51 05       	cpc	r21, r1
    37a6:	08 f0       	brcs	.+2      	; 0x37aa <menu+0x1c56>
    37a8:	65 c0       	rjmp	.+202    	; 0x3874 <menu+0x1d20>
    37aa:	fa 01       	movw	r30, r20
    37ac:	ef 5b       	subi	r30, 0xBF	; 191
    37ae:	fe 4f       	sbci	r31, 0xFE	; 254
    37b0:	0c 94 f8 27 	jmp	0x4ff0	; 0x4ff0 <__tablejump2__>
						{
							case 0:
								menu_display_l[13] = 'N';
    37b4:	ee ef       	ldi	r30, 0xFE	; 254
    37b6:	f2 e0       	ldi	r31, 0x02	; 2
    37b8:	a5 86       	std	Z+13, r10	; 0x0d
								menu_display_l[14] = 'C';
    37ba:	b6 86       	std	Z+14, r11	; 0x0e
								menu_display_l[15] = ' ';
    37bc:	47 86       	std	Z+15, r4	; 0x0f
					}
					else if (menu_input < 8)
					{
						// Display init
						menu_display_h = " SW5-    SW6-   ";
						menu_display_l = " SW7-    SW8-   ";
    37be:	1f 01       	movw	r2, r30
						
					}
					else if (menu_input < 8)
					{
						// Display init
						menu_display_h = " SW5-    SW6-   ";
    37c0:	0d ee       	ldi	r16, 0xED	; 237
    37c2:	12 e0       	ldi	r17, 0x02	; 2
						{
							case 0:
								menu_display_l[13] = 'N';
								menu_display_l[14] = 'C';
								menu_display_l[15] = ' ';
								break;
    37c4:	5f c0       	rjmp	.+190    	; 0x3884 <menu+0x1d30>
							
							case CH5_SW:
								menu_display_l[13] = 'C';
    37c6:	ee ef       	ldi	r30, 0xFE	; 254
    37c8:	f2 e0       	ldi	r31, 0x02	; 2
    37ca:	b5 86       	std	Z+13, r11	; 0x0d
								menu_display_l[14] = 'H';
    37cc:	28 e4       	ldi	r18, 0x48	; 72
    37ce:	26 87       	std	Z+14, r18	; 0x0e
								menu_display_l[15] = '5';
    37d0:	25 e3       	ldi	r18, 0x35	; 53
    37d2:	27 87       	std	Z+15, r18	; 0x0f
					}
					else if (menu_input < 8)
					{
						// Display init
						menu_display_h = " SW5-    SW6-   ";
						menu_display_l = " SW7-    SW8-   ";
    37d4:	1f 01       	movw	r2, r30
						
					}
					else if (menu_input < 8)
					{
						// Display init
						menu_display_h = " SW5-    SW6-   ";
    37d6:	0d ee       	ldi	r16, 0xED	; 237
    37d8:	12 e0       	ldi	r17, 0x02	; 2
							
							case CH5_SW:
								menu_display_l[13] = 'C';
								menu_display_l[14] = 'H';
								menu_display_l[15] = '5';
								break;
    37da:	54 c0       	rjmp	.+168    	; 0x3884 <menu+0x1d30>
							
							case AIL_DR:
								menu_display_l[13] = 'D';
    37dc:	ee ef       	ldi	r30, 0xFE	; 254
    37de:	f2 e0       	ldi	r31, 0x02	; 2
    37e0:	c5 86       	std	Z+13, r12	; 0x0d
								menu_display_l[14] = 'R';
    37e2:	f6 86       	std	Z+14, r15	; 0x0e
								menu_display_l[15] = 'A';
    37e4:	21 e4       	ldi	r18, 0x41	; 65
    37e6:	27 87       	std	Z+15, r18	; 0x0f
					}
					else if (menu_input < 8)
					{
						// Display init
						menu_display_h = " SW5-    SW6-   ";
						menu_display_l = " SW7-    SW8-   ";
    37e8:	1f 01       	movw	r2, r30
						
					}
					else if (menu_input < 8)
					{
						// Display init
						menu_display_h = " SW5-    SW6-   ";
    37ea:	0d ee       	ldi	r16, 0xED	; 237
    37ec:	12 e0       	ldi	r17, 0x02	; 2
							
							case AIL_DR:
								menu_display_l[13] = 'D';
								menu_display_l[14] = 'R';
								menu_display_l[15] = 'A';
								break;
    37ee:	4a c0       	rjmp	.+148    	; 0x3884 <menu+0x1d30>
							
							case ELE_DR:
								menu_display_l[13] = 'D';
    37f0:	ee ef       	ldi	r30, 0xFE	; 254
    37f2:	f2 e0       	ldi	r31, 0x02	; 2
    37f4:	c5 86       	std	Z+13, r12	; 0x0d
								menu_display_l[14] = 'R';
    37f6:	f6 86       	std	Z+14, r15	; 0x0e
								menu_display_l[15] = 'E';
    37f8:	25 e4       	ldi	r18, 0x45	; 69
    37fa:	27 87       	std	Z+15, r18	; 0x0f
					}
					else if (menu_input < 8)
					{
						// Display init
						menu_display_h = " SW5-    SW6-   ";
						menu_display_l = " SW7-    SW8-   ";
    37fc:	1f 01       	movw	r2, r30
						
					}
					else if (menu_input < 8)
					{
						// Display init
						menu_display_h = " SW5-    SW6-   ";
    37fe:	0d ee       	ldi	r16, 0xED	; 237
    3800:	12 e0       	ldi	r17, 0x02	; 2
							
							case ELE_DR:
								menu_display_l[13] = 'D';
								menu_display_l[14] = 'R';
								menu_display_l[15] = 'E';
								break;
    3802:	40 c0       	rjmp	.+128    	; 0x3884 <menu+0x1d30>
							
							case THR_DR:
								menu_display_l[13] = 'D';
    3804:	ee ef       	ldi	r30, 0xFE	; 254
    3806:	f2 e0       	ldi	r31, 0x02	; 2
    3808:	c5 86       	std	Z+13, r12	; 0x0d
								menu_display_l[14] = 'R';
    380a:	f6 86       	std	Z+14, r15	; 0x0e
								menu_display_l[15] = 'T';
    380c:	24 e5       	ldi	r18, 0x54	; 84
    380e:	27 87       	std	Z+15, r18	; 0x0f
					}
					else if (menu_input < 8)
					{
						// Display init
						menu_display_h = " SW5-    SW6-   ";
						menu_display_l = " SW7-    SW8-   ";
    3810:	1f 01       	movw	r2, r30
						
					}
					else if (menu_input < 8)
					{
						// Display init
						menu_display_h = " SW5-    SW6-   ";
    3812:	0d ee       	ldi	r16, 0xED	; 237
    3814:	12 e0       	ldi	r17, 0x02	; 2
							
							case THR_DR:
								menu_display_l[13] = 'D';
								menu_display_l[14] = 'R';
								menu_display_l[15] = 'T';
								break;
    3816:	36 c0       	rjmp	.+108    	; 0x3884 <menu+0x1d30>
							
							case RUD_DR:
								menu_display_l[13] = 'D';
    3818:	ee ef       	ldi	r30, 0xFE	; 254
    381a:	f2 e0       	ldi	r31, 0x02	; 2
    381c:	c5 86       	std	Z+13, r12	; 0x0d
								menu_display_l[14] = 'R';
    381e:	f6 86       	std	Z+14, r15	; 0x0e
								menu_display_l[15] = 'R';
    3820:	f7 86       	std	Z+15, r15	; 0x0f
					}
					else if (menu_input < 8)
					{
						// Display init
						menu_display_h = " SW5-    SW6-   ";
						menu_display_l = " SW7-    SW8-   ";
    3822:	1f 01       	movw	r2, r30
						
					}
					else if (menu_input < 8)
					{
						// Display init
						menu_display_h = " SW5-    SW6-   ";
    3824:	0d ee       	ldi	r16, 0xED	; 237
    3826:	12 e0       	ldi	r17, 0x02	; 2
							
							case RUD_DR:
								menu_display_l[13] = 'D';
								menu_display_l[14] = 'R';
								menu_display_l[15] = 'R';
								break;
    3828:	2d c0       	rjmp	.+90     	; 0x3884 <menu+0x1d30>
							
							case CH5_DR:
								menu_display_l[13] = 'D';
    382a:	ee ef       	ldi	r30, 0xFE	; 254
    382c:	f2 e0       	ldi	r31, 0x02	; 2
    382e:	c5 86       	std	Z+13, r12	; 0x0d
								menu_display_l[14] = 'R';
    3830:	f6 86       	std	Z+14, r15	; 0x0e
								menu_display_l[15] = '5';
    3832:	25 e3       	ldi	r18, 0x35	; 53
    3834:	27 87       	std	Z+15, r18	; 0x0f
					}
					else if (menu_input < 8)
					{
						// Display init
						menu_display_h = " SW5-    SW6-   ";
						menu_display_l = " SW7-    SW8-   ";
    3836:	1f 01       	movw	r2, r30
						
					}
					else if (menu_input < 8)
					{
						// Display init
						menu_display_h = " SW5-    SW6-   ";
    3838:	0d ee       	ldi	r16, 0xED	; 237
    383a:	12 e0       	ldi	r17, 0x02	; 2
							
							case CH5_DR:
								menu_display_l[13] = 'D';
								menu_display_l[14] = 'R';
								menu_display_l[15] = '5';
								break;
    383c:	23 c0       	rjmp	.+70     	; 0x3884 <menu+0x1d30>
					// Display & stat /////////////////
					if (menu_input < 4)
					{
						// Display init
						menu_display_h = " SW1-    SW2-   ";
						menu_display_l = " SW3-    SW4-   ";
    383e:	0f 2e       	mov	r0, r31
    3840:	fb ec       	ldi	r31, 0xCB	; 203
    3842:	2f 2e       	mov	r2, r31
    3844:	f2 e0       	ldi	r31, 0x02	; 2
    3846:	3f 2e       	mov	r3, r31
    3848:	f0 2d       	mov	r31, r0
					
					// Display & stat /////////////////
					if (menu_input < 4)
					{
						// Display init
						menu_display_h = " SW1-    SW2-   ";
    384a:	0c ed       	ldi	r16, 0xDC	; 220
    384c:	12 e0       	ldi	r17, 0x02	; 2
    384e:	1a c0       	rjmp	.+52     	; 0x3884 <menu+0x1d30>
					}
					else if (menu_input < 6)
					{
						// Display init
						menu_display_h = " SW3-    SW4-   ";
						menu_display_l = " SW5-    SW6-   ";
    3850:	0f 2e       	mov	r0, r31
    3852:	fd ee       	ldi	r31, 0xED	; 237
    3854:	2f 2e       	mov	r2, r31
    3856:	f2 e0       	ldi	r31, 0x02	; 2
    3858:	3f 2e       	mov	r3, r31
    385a:	f0 2d       	mov	r31, r0
						
					}
					else if (menu_input < 6)
					{
						// Display init
						menu_display_h = " SW3-    SW4-   ";
    385c:	0b ec       	ldi	r16, 0xCB	; 203
    385e:	12 e0       	ldi	r17, 0x02	; 2
    3860:	11 c0       	rjmp	.+34     	; 0x3884 <menu+0x1d30>
					}
					else
					{
						// Display init
						menu_display_h = " SW7-    SW8-   ";
						menu_display_l = " Exit           ";
    3862:	0f 2e       	mov	r0, r31
    3864:	f6 e6       	ldi	r31, 0x66	; 102
    3866:	2f 2e       	mov	r2, r31
    3868:	f2 e0       	ldi	r31, 0x02	; 2
    386a:	3f 2e       	mov	r3, r31
    386c:	f0 2d       	mov	r31, r0
						
					}
					else
					{
						// Display init
						menu_display_h = " SW7-    SW8-   ";
    386e:	0e ef       	ldi	r16, 0xFE	; 254
    3870:	12 e0       	ldi	r17, 0x02	; 2
    3872:	08 c0       	rjmp	.+16     	; 0x3884 <menu+0x1d30>
					}
					else if (menu_input < 8)
					{
						// Display init
						menu_display_h = " SW5-    SW6-   ";
						menu_display_l = " SW7-    SW8-   ";
    3874:	0f 2e       	mov	r0, r31
    3876:	fe ef       	ldi	r31, 0xFE	; 254
    3878:	2f 2e       	mov	r2, r31
    387a:	f2 e0       	ldi	r31, 0x02	; 2
    387c:	3f 2e       	mov	r3, r31
    387e:	f0 2d       	mov	r31, r0
						
					}
					else if (menu_input < 8)
					{
						// Display init
						menu_display_h = " SW5-    SW6-   ";
    3880:	0d ee       	ldi	r16, 0xED	; 237
    3882:	12 e0       	ldi	r17, 0x02	; 2
						menu_display_l = " Exit           ";
					}
					

					// Display & stat /////////////
					if (menu_input == 0)
    3884:	91 11       	cpse	r25, r1
    3886:	72 c0       	rjmp	.+228    	; 0x396c <menu+0x1e18>
					{
						// Cursor move
						menu_display_h[0] = '>';
    3888:	9e e3       	ldi	r25, 0x3E	; 62
    388a:	f8 01       	movw	r30, r16
    388c:	90 83       	st	Z, r25
						menu_display_h[8] = ' ';
    388e:	40 86       	std	Z+8, r4	; 0x08
						
						if (enter)
    3890:	88 23       	and	r24, r24
    3892:	09 f4       	brne	.+2      	; 0x3896 <menu+0x1d42>
    3894:	a4 c3       	rjmp	.+1864   	; 0x3fde <menu+0x248a>
								}
								else if (menu_input == 5)
								{
									menu_display_h[5] = 'D';
									menu_display_h[6] = 'R';
									menu_display_h[7] = '5';
    3896:	0f 2e       	mov	r0, r31
    3898:	f5 e3       	ldi	r31, 0x35	; 53
    389a:	df 2e       	mov	r13, r31
    389c:	f0 2d       	mov	r31, r0
									sw[0] = CH5_DR;
    389e:	68 94       	set
    38a0:	ee 24       	eor	r14, r14
    38a2:	e4 f8       	bld	r14, 4
								else if (menu_input == 2)
								{
									menu_display_h[5] = 'D';
									menu_display_h[6] = 'R';
									menu_display_h[7] = 'A';
									sw[0] = AIL_DR;
    38a4:	88 24       	eor	r8, r8
    38a6:	83 94       	inc	r8
									sw[0] = 0;
								}
								else if (menu_input == 1)
								{
									menu_display_h[5] = 'C';
									menu_display_h[6] = 'H';
    38a8:	0f 2e       	mov	r0, r31
    38aa:	f8 e4       	ldi	r31, 0x48	; 72
    38ac:	9f 2e       	mov	r9, r31
    38ae:	f0 2d       	mov	r31, r0
						
						if (enter)
						{
							while (1)
							{
								enter = menu_read();
    38b0:	0e 94 fd 05 	call	0xbfa	; 0xbfa <menu_read>
								if (menu_input < 0)
    38b4:	90 91 ce 05 	lds	r25, 0x05CE	; 0x8005ce <menu_input>
    38b8:	99 23       	and	r25, r25
    38ba:	1c f4       	brge	.+6      	; 0x38c2 <menu+0x1d6e>
									menu_input = 0;
    38bc:	10 92 ce 05 	sts	0x05CE, r1	; 0x8005ce <menu_input>
    38c0:	08 c0       	rjmp	.+16     	; 0x38d2 <menu+0x1d7e>
								else if (menu_input > 5)
    38c2:	96 30       	cpi	r25, 0x06	; 6
    38c4:	24 f0       	brlt	.+8      	; 0x38ce <menu+0x1d7a>
									menu_input = 5;
    38c6:	95 e0       	ldi	r25, 0x05	; 5
    38c8:	90 93 ce 05 	sts	0x05CE, r25	; 0x8005ce <menu_input>
    38cc:	38 c0       	rjmp	.+112    	; 0x393e <menu+0x1dea>
								
								
								if (menu_input == 0)
    38ce:	91 11       	cpse	r25, r1
    38d0:	08 c0       	rjmp	.+16     	; 0x38e2 <menu+0x1d8e>
								{
									menu_display_h[5] = 'N';
    38d2:	f8 01       	movw	r30, r16
    38d4:	a5 82       	std	Z+5, r10	; 0x05
									menu_display_h[6] = 'C';
    38d6:	b6 82       	std	Z+6, r11	; 0x06
									menu_display_h[7] = ' ';
    38d8:	47 82       	std	Z+7, r4	; 0x07
									sw[0] = 0;
    38da:	ed ed       	ldi	r30, 0xDD	; 221
    38dc:	f5 e0       	ldi	r31, 0x05	; 5
    38de:	10 82       	st	Z, r1
    38e0:	35 c0       	rjmp	.+106    	; 0x394c <menu+0x1df8>
								}
								else if (menu_input == 1)
    38e2:	91 30       	cpi	r25, 0x01	; 1
    38e4:	41 f4       	brne	.+16     	; 0x38f6 <menu+0x1da2>
								{
									menu_display_h[5] = 'C';
    38e6:	f8 01       	movw	r30, r16
    38e8:	b5 82       	std	Z+5, r11	; 0x05
									menu_display_h[6] = 'H';
    38ea:	96 82       	std	Z+6, r9	; 0x06
									menu_display_h[7] = '5';
    38ec:	d7 82       	std	Z+7, r13	; 0x07
									sw[0] = CH5_SW;
    38ee:	ed ed       	ldi	r30, 0xDD	; 221
    38f0:	f5 e0       	ldi	r31, 0x05	; 5
    38f2:	40 82       	st	Z, r4
    38f4:	2b c0       	rjmp	.+86     	; 0x394c <menu+0x1df8>
								}
								else if (menu_input == 2)
    38f6:	92 30       	cpi	r25, 0x02	; 2
    38f8:	49 f4       	brne	.+18     	; 0x390c <menu+0x1db8>
								{
									menu_display_h[5] = 'D';
    38fa:	f8 01       	movw	r30, r16
    38fc:	c5 82       	std	Z+5, r12	; 0x05
									menu_display_h[6] = 'R';
    38fe:	f6 82       	std	Z+6, r15	; 0x06
									menu_display_h[7] = 'A';
    3900:	21 e4       	ldi	r18, 0x41	; 65
    3902:	27 83       	std	Z+7, r18	; 0x07
									sw[0] = AIL_DR;
    3904:	ed ed       	ldi	r30, 0xDD	; 221
    3906:	f5 e0       	ldi	r31, 0x05	; 5
    3908:	80 82       	st	Z, r8
    390a:	20 c0       	rjmp	.+64     	; 0x394c <menu+0x1df8>
								}
								else if (menu_input == 3)
    390c:	93 30       	cpi	r25, 0x03	; 3
    390e:	51 f4       	brne	.+20     	; 0x3924 <menu+0x1dd0>
								{
									menu_display_h[5] = 'D';
    3910:	f8 01       	movw	r30, r16
    3912:	c5 82       	std	Z+5, r12	; 0x05
									menu_display_h[6] = 'R';
    3914:	f6 82       	std	Z+6, r15	; 0x06
									menu_display_h[7] = 'E';
    3916:	25 e4       	ldi	r18, 0x45	; 69
    3918:	27 83       	std	Z+7, r18	; 0x07
									sw[0] = ELE_DR;
    391a:	22 e0       	ldi	r18, 0x02	; 2
    391c:	ed ed       	ldi	r30, 0xDD	; 221
    391e:	f5 e0       	ldi	r31, 0x05	; 5
    3920:	20 83       	st	Z, r18
    3922:	14 c0       	rjmp	.+40     	; 0x394c <menu+0x1df8>
								}
								else if (menu_input == 4)
    3924:	94 30       	cpi	r25, 0x04	; 4
    3926:	49 f4       	brne	.+18     	; 0x393a <menu+0x1de6>
								{
									menu_display_h[5] = 'D';
    3928:	f8 01       	movw	r30, r16
    392a:	c5 82       	std	Z+5, r12	; 0x05
									menu_display_h[6] = 'R';
    392c:	f6 82       	std	Z+6, r15	; 0x06
									menu_display_h[7] = 'R';
    392e:	f7 82       	std	Z+7, r15	; 0x07
									sw[0] = RUD_DR;
    3930:	28 e0       	ldi	r18, 0x08	; 8
    3932:	ed ed       	ldi	r30, 0xDD	; 221
    3934:	f5 e0       	ldi	r31, 0x05	; 5
    3936:	20 83       	st	Z, r18
    3938:	09 c0       	rjmp	.+18     	; 0x394c <menu+0x1df8>
								}
								else if (menu_input == 5)
    393a:	95 30       	cpi	r25, 0x05	; 5
    393c:	39 f4       	brne	.+14     	; 0x394c <menu+0x1df8>
								{
									menu_display_h[5] = 'D';
    393e:	f8 01       	movw	r30, r16
    3940:	c5 82       	std	Z+5, r12	; 0x05
									menu_display_h[6] = 'R';
    3942:	f6 82       	std	Z+6, r15	; 0x06
									menu_display_h[7] = '5';
    3944:	d7 82       	std	Z+7, r13	; 0x07
									sw[0] = CH5_DR;
    3946:	ed ed       	ldi	r30, 0xDD	; 221
    3948:	f5 e0       	ldi	r31, 0x05	; 5
    394a:	e0 82       	st	Z, r14
								}
								
								
								// Exit
								if (enter)
    394c:	88 23       	and	r24, r24
    394e:	19 f0       	breq	.+6      	; 0x3956 <menu+0x1e02>
								{
									menu_input = 0;
    3950:	10 92 ce 05 	sts	0x05CE, r1	; 0x8005ce <menu_input>
									break;
    3954:	44 c3       	rjmp	.+1672   	; 0x3fde <menu+0x248a>
								}
								
								
								// LCD drive
								LCD_home();
    3956:	0e 94 6a 02 	call	0x4d4	; 0x4d4 <LCD_home>
								LCD_string(menu_display_h, 16);
    395a:	6e 2d       	mov	r22, r14
    395c:	c8 01       	movw	r24, r16
    395e:	0e 94 db 01 	call	0x3b6	; 0x3b6 <LCD_string>
								LCD_NWL();
    3962:	0e 94 5c 02 	call	0x4b8	; 0x4b8 <LCD_NWL>
								
								// Buzzer drive
								buzzer_switch();
    3966:	0e 94 1b 09 	call	0x1236	; 0x1236 <buzzer_switch>
								
							} //while (1)
    396a:	a2 cf       	rjmp	.-188    	; 0x38b0 <menu+0x1d5c>
							
						} // if(enter)
					} // if(menu_input == 0)
					
					else if (menu_input == 1)
    396c:	91 30       	cpi	r25, 0x01	; 1
    396e:	09 f0       	breq	.+2      	; 0x3972 <menu+0x1e1e>
    3970:	71 c0       	rjmp	.+226    	; 0x3a54 <menu+0x1f00>
					{
						// Cursor move
						menu_display_h[8] = '>';
    3972:	9e e3       	ldi	r25, 0x3E	; 62
    3974:	f8 01       	movw	r30, r16
    3976:	90 87       	std	Z+8, r25	; 0x08
						menu_display_h[0] = ' ';
    3978:	40 82       	st	Z, r4
						menu_display_l[0] = ' ';
    397a:	f1 01       	movw	r30, r2
    397c:	40 82       	st	Z, r4
						
						if (enter)
    397e:	88 23       	and	r24, r24
    3980:	09 f4       	brne	.+2      	; 0x3984 <menu+0x1e30>
    3982:	2d c3       	rjmp	.+1626   	; 0x3fde <menu+0x248a>
						{
							menu_input = 0;
    3984:	10 92 ce 05 	sts	0x05CE, r1	; 0x8005ce <menu_input>
								}
								else if (menu_input == 5)
								{
									menu_display_h[13] = 'D';
									menu_display_h[14] = 'R';
									menu_display_h[15] = '5';
    3988:	0f 2e       	mov	r0, r31
    398a:	f5 e3       	ldi	r31, 0x35	; 53
    398c:	df 2e       	mov	r13, r31
    398e:	f0 2d       	mov	r31, r0
									sw[1] = CH5_DR;
    3990:	68 94       	set
    3992:	ee 24       	eor	r14, r14
    3994:	e4 f8       	bld	r14, 4
								}
								else if (menu_input == 2)
								{
									menu_display_h[13] = 'D';
									menu_display_h[14] = 'R';
									menu_display_h[15] = 'A';
    3996:	0f 2e       	mov	r0, r31
    3998:	f1 e4       	ldi	r31, 0x41	; 65
    399a:	8f 2e       	mov	r8, r31
    399c:	f0 2d       	mov	r31, r0
									sw[1] = AIL_DR;
    399e:	99 24       	eor	r9, r9
    39a0:	93 94       	inc	r9
						{
							menu_input = 0;
							
							while (1)
							{
								enter = menu_read();
    39a2:	0e 94 fd 05 	call	0xbfa	; 0xbfa <menu_read>
								if (menu_input < 0)
    39a6:	90 91 ce 05 	lds	r25, 0x05CE	; 0x8005ce <menu_input>
    39aa:	99 23       	and	r25, r25
    39ac:	1c f4       	brge	.+6      	; 0x39b4 <menu+0x1e60>
									menu_input = 0;
    39ae:	10 92 ce 05 	sts	0x05CE, r1	; 0x8005ce <menu_input>
    39b2:	08 c0       	rjmp	.+16     	; 0x39c4 <menu+0x1e70>
								else if (menu_input > 5)
    39b4:	96 30       	cpi	r25, 0x06	; 6
    39b6:	24 f0       	brlt	.+8      	; 0x39c0 <menu+0x1e6c>
									menu_input = 5;
    39b8:	95 e0       	ldi	r25, 0x05	; 5
    39ba:	90 93 ce 05 	sts	0x05CE, r25	; 0x8005ce <menu_input>
    39be:	33 c0       	rjmp	.+102    	; 0x3a26 <menu+0x1ed2>
								
								
								// if menu button is pressed
								if (menu_input == 0)
    39c0:	91 11       	cpse	r25, r1
    39c2:	07 c0       	rjmp	.+14     	; 0x39d2 <menu+0x1e7e>
								{
									menu_display_h[13] = 'N';
    39c4:	f8 01       	movw	r30, r16
    39c6:	a5 86       	std	Z+13, r10	; 0x0d
									menu_display_h[14] = 'C';
    39c8:	b6 86       	std	Z+14, r11	; 0x0e
									menu_display_h[15] = ' ';
    39ca:	47 86       	std	Z+15, r4	; 0x0f
									sw[1] = 0;
    39cc:	10 92 de 05 	sts	0x05DE, r1	; 0x8005de <sw+0x1>
    39d0:	30 c0       	rjmp	.+96     	; 0x3a32 <menu+0x1ede>
								}
								else if (menu_input == 1)
    39d2:	91 30       	cpi	r25, 0x01	; 1
    39d4:	41 f4       	brne	.+16     	; 0x39e6 <menu+0x1e92>
								{
									menu_display_h[13] = 'C';
    39d6:	f8 01       	movw	r30, r16
    39d8:	b5 86       	std	Z+13, r11	; 0x0d
									menu_display_h[14] = 'H';
    39da:	98 e4       	ldi	r25, 0x48	; 72
    39dc:	96 87       	std	Z+14, r25	; 0x0e
									menu_display_h[15] = '5';
    39de:	d7 86       	std	Z+15, r13	; 0x0f
									sw[1] = CH5_SW;
    39e0:	40 92 de 05 	sts	0x05DE, r4	; 0x8005de <sw+0x1>
    39e4:	26 c0       	rjmp	.+76     	; 0x3a32 <menu+0x1ede>
								}
								else if (menu_input == 2)
    39e6:	92 30       	cpi	r25, 0x02	; 2
    39e8:	39 f4       	brne	.+14     	; 0x39f8 <menu+0x1ea4>
								{
									menu_display_h[13] = 'D';
    39ea:	f8 01       	movw	r30, r16
    39ec:	c5 86       	std	Z+13, r12	; 0x0d
									menu_display_h[14] = 'R';
    39ee:	f6 86       	std	Z+14, r15	; 0x0e
									menu_display_h[15] = 'A';
    39f0:	87 86       	std	Z+15, r8	; 0x0f
									sw[1] = AIL_DR;
    39f2:	90 92 de 05 	sts	0x05DE, r9	; 0x8005de <sw+0x1>
    39f6:	1d c0       	rjmp	.+58     	; 0x3a32 <menu+0x1ede>
								}
								else if (menu_input == 3)
    39f8:	93 30       	cpi	r25, 0x03	; 3
    39fa:	49 f4       	brne	.+18     	; 0x3a0e <menu+0x1eba>
								{
									menu_display_h[13] = 'D';
    39fc:	f8 01       	movw	r30, r16
    39fe:	c5 86       	std	Z+13, r12	; 0x0d
									menu_display_h[14] = 'R';
    3a00:	f6 86       	std	Z+14, r15	; 0x0e
									menu_display_h[15] = 'E';
    3a02:	25 e4       	ldi	r18, 0x45	; 69
    3a04:	27 87       	std	Z+15, r18	; 0x0f
									sw[1] = ELE_DR;
    3a06:	32 e0       	ldi	r19, 0x02	; 2
    3a08:	30 93 de 05 	sts	0x05DE, r19	; 0x8005de <sw+0x1>
    3a0c:	12 c0       	rjmp	.+36     	; 0x3a32 <menu+0x1ede>
								}
								else if (menu_input == 4)
    3a0e:	94 30       	cpi	r25, 0x04	; 4
    3a10:	41 f4       	brne	.+16     	; 0x3a22 <menu+0x1ece>
								{
									menu_display_h[13] = 'D';
    3a12:	f8 01       	movw	r30, r16
    3a14:	c5 86       	std	Z+13, r12	; 0x0d
									menu_display_h[14] = 'R';
    3a16:	f6 86       	std	Z+14, r15	; 0x0e
									menu_display_h[15] = 'R';
    3a18:	f7 86       	std	Z+15, r15	; 0x0f
									sw[1] = RUD_DR;
    3a1a:	f8 e0       	ldi	r31, 0x08	; 8
    3a1c:	f0 93 de 05 	sts	0x05DE, r31	; 0x8005de <sw+0x1>
    3a20:	08 c0       	rjmp	.+16     	; 0x3a32 <menu+0x1ede>
								}
								else if (menu_input == 5)
    3a22:	95 30       	cpi	r25, 0x05	; 5
    3a24:	31 f4       	brne	.+12     	; 0x3a32 <menu+0x1ede>
								{
									menu_display_h[13] = 'D';
    3a26:	f8 01       	movw	r30, r16
    3a28:	c5 86       	std	Z+13, r12	; 0x0d
									menu_display_h[14] = 'R';
    3a2a:	f6 86       	std	Z+14, r15	; 0x0e
									menu_display_h[15] = '5';
    3a2c:	d7 86       	std	Z+15, r13	; 0x0f
									sw[1] = CH5_DR;
    3a2e:	e0 92 de 05 	sts	0x05DE, r14	; 0x8005de <sw+0x1>
								}
								
								// Exit
								if (enter)
    3a32:	88 23       	and	r24, r24
    3a34:	21 f0       	breq	.+8      	; 0x3a3e <menu+0x1eea>
								{
									menu_input = 1;
    3a36:	81 e0       	ldi	r24, 0x01	; 1
    3a38:	80 93 ce 05 	sts	0x05CE, r24	; 0x8005ce <menu_input>
									break;
    3a3c:	d0 c2       	rjmp	.+1440   	; 0x3fde <menu+0x248a>
								}
								
								
								// LCD drive
								LCD_home();
    3a3e:	0e 94 6a 02 	call	0x4d4	; 0x4d4 <LCD_home>
								LCD_string(menu_display_h, 16);
    3a42:	6e 2d       	mov	r22, r14
    3a44:	c8 01       	movw	r24, r16
    3a46:	0e 94 db 01 	call	0x3b6	; 0x3b6 <LCD_string>
								LCD_NWL();
    3a4a:	0e 94 5c 02 	call	0x4b8	; 0x4b8 <LCD_NWL>
								
								// Buzzer drive
								buzzer_switch();
    3a4e:	0e 94 1b 09 	call	0x1236	; 0x1236 <buzzer_switch>
								
							} //while (1)
    3a52:	a7 cf       	rjmp	.-178    	; 0x39a2 <menu+0x1e4e>
						} // if(enter)
						
					} // else if (menu_input == 1)
					
					else if (menu_input == 2)
    3a54:	92 30       	cpi	r25, 0x02	; 2
    3a56:	09 f0       	breq	.+2      	; 0x3a5a <menu+0x1f06>
    3a58:	72 c0       	rjmp	.+228    	; 0x3b3e <menu+0x1fea>
					{
						// Cursor move
						menu_display_l[0] = '>';
    3a5a:	9e e3       	ldi	r25, 0x3E	; 62
    3a5c:	f1 01       	movw	r30, r2
    3a5e:	90 83       	st	Z, r25
						menu_display_h[8] = ' ';
    3a60:	f8 01       	movw	r30, r16
    3a62:	40 86       	std	Z+8, r4	; 0x08
						menu_display_l[8] = ' ';
    3a64:	f1 01       	movw	r30, r2
    3a66:	40 86       	std	Z+8, r4	; 0x08
						
						if (enter)
    3a68:	88 23       	and	r24, r24
    3a6a:	09 f4       	brne	.+2      	; 0x3a6e <menu+0x1f1a>
    3a6c:	b8 c2       	rjmp	.+1392   	; 0x3fde <menu+0x248a>
						{
							menu_input = 0;
    3a6e:	10 92 ce 05 	sts	0x05CE, r1	; 0x8005ce <menu_input>
								}
								else if (menu_input == 5)
								{
									menu_display_l[5] = 'D';
									menu_display_l[6] = 'R';
									menu_display_l[7] = '5';
    3a72:	0f 2e       	mov	r0, r31
    3a74:	f5 e3       	ldi	r31, 0x35	; 53
    3a76:	df 2e       	mov	r13, r31
    3a78:	f0 2d       	mov	r31, r0
									sw[2] = CH5_DR;
    3a7a:	68 94       	set
    3a7c:	ee 24       	eor	r14, r14
    3a7e:	e4 f8       	bld	r14, 4
								}
								else if (menu_input == 2)
								{
									menu_display_l[5] = 'D';
									menu_display_l[6] = 'R';
									menu_display_l[7] = 'A';
    3a80:	0f 2e       	mov	r0, r31
    3a82:	f1 e4       	ldi	r31, 0x41	; 65
    3a84:	8f 2e       	mov	r8, r31
    3a86:	f0 2d       	mov	r31, r0
									sw[2] = AIL_DR;
    3a88:	99 24       	eor	r9, r9
    3a8a:	93 94       	inc	r9
						{
							menu_input = 0;
							
							while (1)
							{
								enter = menu_read();
    3a8c:	0e 94 fd 05 	call	0xbfa	; 0xbfa <menu_read>
								if (menu_input < 0)
    3a90:	90 91 ce 05 	lds	r25, 0x05CE	; 0x8005ce <menu_input>
    3a94:	99 23       	and	r25, r25
    3a96:	1c f4       	brge	.+6      	; 0x3a9e <menu+0x1f4a>
									menu_input = 0;
    3a98:	10 92 ce 05 	sts	0x05CE, r1	; 0x8005ce <menu_input>
    3a9c:	08 c0       	rjmp	.+16     	; 0x3aae <menu+0x1f5a>
								else if (menu_input > 5)
    3a9e:	96 30       	cpi	r25, 0x06	; 6
    3aa0:	24 f0       	brlt	.+8      	; 0x3aaa <menu+0x1f56>
									menu_input = 5;
    3aa2:	95 e0       	ldi	r25, 0x05	; 5
    3aa4:	90 93 ce 05 	sts	0x05CE, r25	; 0x8005ce <menu_input>
    3aa8:	33 c0       	rjmp	.+102    	; 0x3b10 <menu+0x1fbc>
								
								
								if (menu_input == 0)
    3aaa:	91 11       	cpse	r25, r1
    3aac:	07 c0       	rjmp	.+14     	; 0x3abc <menu+0x1f68>
								{
									menu_display_l[5] = 'N';
    3aae:	f1 01       	movw	r30, r2
    3ab0:	a5 82       	std	Z+5, r10	; 0x05
									menu_display_l[6] = 'C';
    3ab2:	b6 82       	std	Z+6, r11	; 0x06
									menu_display_l[7] = ' ';
    3ab4:	47 82       	std	Z+7, r4	; 0x07
									sw[2] = 0;
    3ab6:	10 92 df 05 	sts	0x05DF, r1	; 0x8005df <sw+0x2>
    3aba:	30 c0       	rjmp	.+96     	; 0x3b1c <menu+0x1fc8>
								}
								else if (menu_input == 1)
    3abc:	91 30       	cpi	r25, 0x01	; 1
    3abe:	41 f4       	brne	.+16     	; 0x3ad0 <menu+0x1f7c>
								{
									menu_display_l[5] = 'C';
    3ac0:	f1 01       	movw	r30, r2
    3ac2:	b5 82       	std	Z+5, r11	; 0x05
									menu_display_l[6] = 'H';
    3ac4:	98 e4       	ldi	r25, 0x48	; 72
    3ac6:	96 83       	std	Z+6, r25	; 0x06
									menu_display_l[7] = '5';
    3ac8:	d7 82       	std	Z+7, r13	; 0x07
									sw[2] = CH5_SW;
    3aca:	40 92 df 05 	sts	0x05DF, r4	; 0x8005df <sw+0x2>
    3ace:	26 c0       	rjmp	.+76     	; 0x3b1c <menu+0x1fc8>
								}
								else if (menu_input == 2)
    3ad0:	92 30       	cpi	r25, 0x02	; 2
    3ad2:	39 f4       	brne	.+14     	; 0x3ae2 <menu+0x1f8e>
								{
									menu_display_l[5] = 'D';
    3ad4:	f1 01       	movw	r30, r2
    3ad6:	c5 82       	std	Z+5, r12	; 0x05
									menu_display_l[6] = 'R';
    3ad8:	f6 82       	std	Z+6, r15	; 0x06
									menu_display_l[7] = 'A';
    3ada:	87 82       	std	Z+7, r8	; 0x07
									sw[2] = AIL_DR;
    3adc:	90 92 df 05 	sts	0x05DF, r9	; 0x8005df <sw+0x2>
    3ae0:	1d c0       	rjmp	.+58     	; 0x3b1c <menu+0x1fc8>
								}
								else if (menu_input == 3)
    3ae2:	93 30       	cpi	r25, 0x03	; 3
    3ae4:	49 f4       	brne	.+18     	; 0x3af8 <menu+0x1fa4>
								{
									menu_display_l[5] = 'D';
    3ae6:	f1 01       	movw	r30, r2
    3ae8:	c5 82       	std	Z+5, r12	; 0x05
									menu_display_l[6] = 'R';
    3aea:	f6 82       	std	Z+6, r15	; 0x06
									menu_display_l[7] = 'E';
    3aec:	25 e4       	ldi	r18, 0x45	; 69
    3aee:	27 83       	std	Z+7, r18	; 0x07
									sw[2] = ELE_DR;
    3af0:	32 e0       	ldi	r19, 0x02	; 2
    3af2:	30 93 df 05 	sts	0x05DF, r19	; 0x8005df <sw+0x2>
    3af6:	12 c0       	rjmp	.+36     	; 0x3b1c <menu+0x1fc8>
								}
								else if (menu_input == 4)
    3af8:	94 30       	cpi	r25, 0x04	; 4
    3afa:	41 f4       	brne	.+16     	; 0x3b0c <menu+0x1fb8>
								{
									menu_display_l[5] = 'D';
    3afc:	f1 01       	movw	r30, r2
    3afe:	c5 82       	std	Z+5, r12	; 0x05
									menu_display_l[6] = 'R';
    3b00:	f6 82       	std	Z+6, r15	; 0x06
									menu_display_l[7] = 'R';
    3b02:	f7 82       	std	Z+7, r15	; 0x07
									sw[2] = RUD_DR;
    3b04:	f8 e0       	ldi	r31, 0x08	; 8
    3b06:	f0 93 df 05 	sts	0x05DF, r31	; 0x8005df <sw+0x2>
    3b0a:	08 c0       	rjmp	.+16     	; 0x3b1c <menu+0x1fc8>
								}
								else if (menu_input == 5)
    3b0c:	95 30       	cpi	r25, 0x05	; 5
    3b0e:	31 f4       	brne	.+12     	; 0x3b1c <menu+0x1fc8>
								{
									menu_display_l[5] = 'D';
    3b10:	f1 01       	movw	r30, r2
    3b12:	c5 82       	std	Z+5, r12	; 0x05
									menu_display_l[6] = 'R';
    3b14:	f6 82       	std	Z+6, r15	; 0x06
									menu_display_l[7] = '5';
    3b16:	d7 82       	std	Z+7, r13	; 0x07
									sw[2] = CH5_DR;
    3b18:	e0 92 df 05 	sts	0x05DF, r14	; 0x8005df <sw+0x2>
								}
								
								// Exit
								if (enter)
    3b1c:	88 23       	and	r24, r24
    3b1e:	21 f0       	breq	.+8      	; 0x3b28 <menu+0x1fd4>
								{
									menu_input = 2;
    3b20:	82 e0       	ldi	r24, 0x02	; 2
    3b22:	80 93 ce 05 	sts	0x05CE, r24	; 0x8005ce <menu_input>
									break;
    3b26:	5b c2       	rjmp	.+1206   	; 0x3fde <menu+0x248a>
								}
								
								
								// LCD drive
								LCD_home();
    3b28:	0e 94 6a 02 	call	0x4d4	; 0x4d4 <LCD_home>
								LCD_NWL();
    3b2c:	0e 94 5c 02 	call	0x4b8	; 0x4b8 <LCD_NWL>
								LCD_string(menu_display_l, 16);
    3b30:	6e 2d       	mov	r22, r14
    3b32:	c1 01       	movw	r24, r2
    3b34:	0e 94 db 01 	call	0x3b6	; 0x3b6 <LCD_string>
								
								// Buzzer drive
								buzzer_switch();
    3b38:	0e 94 1b 09 	call	0x1236	; 0x1236 <buzzer_switch>
								
							} //while (1)
    3b3c:	a7 cf       	rjmp	.-178    	; 0x3a8c <menu+0x1f38>
						} // if(enter)
						
					} // else if (menu_input == 2)
					
					else if (menu_input == 3)
    3b3e:	93 30       	cpi	r25, 0x03	; 3
    3b40:	09 f0       	breq	.+2      	; 0x3b44 <menu+0x1ff0>
    3b42:	6f c0       	rjmp	.+222    	; 0x3c22 <menu+0x20ce>
					{
						// Cursor move
						menu_display_l[8] = '>';
    3b44:	9e e3       	ldi	r25, 0x3E	; 62
    3b46:	f1 01       	movw	r30, r2
    3b48:	90 87       	std	Z+8, r25	; 0x08
						menu_display_l[0] = ' ';
    3b4a:	40 82       	st	Z, r4
						
						if (enter)
    3b4c:	88 23       	and	r24, r24
    3b4e:	09 f4       	brne	.+2      	; 0x3b52 <menu+0x1ffe>
    3b50:	46 c2       	rjmp	.+1164   	; 0x3fde <menu+0x248a>
						{
							menu_input = 0;
    3b52:	10 92 ce 05 	sts	0x05CE, r1	; 0x8005ce <menu_input>
								}
								else if (menu_input == 5)
								{
									menu_display_l[13] = 'D';
									menu_display_l[14] = 'R';
									menu_display_l[15] = '5';
    3b56:	0f 2e       	mov	r0, r31
    3b58:	f5 e3       	ldi	r31, 0x35	; 53
    3b5a:	df 2e       	mov	r13, r31
    3b5c:	f0 2d       	mov	r31, r0
									sw[3] = CH5_DR;
    3b5e:	68 94       	set
    3b60:	ee 24       	eor	r14, r14
    3b62:	e4 f8       	bld	r14, 4
								}
								else if (menu_input == 2)
								{
									menu_display_l[13] = 'D';
									menu_display_l[14] = 'R';
									menu_display_l[15] = 'A';
    3b64:	0f 2e       	mov	r0, r31
    3b66:	f1 e4       	ldi	r31, 0x41	; 65
    3b68:	8f 2e       	mov	r8, r31
    3b6a:	f0 2d       	mov	r31, r0
									sw[3] = AIL_DR;
    3b6c:	99 24       	eor	r9, r9
    3b6e:	93 94       	inc	r9
						{
							menu_input = 0;
							
							while (1)
							{
								enter = menu_read();
    3b70:	0e 94 fd 05 	call	0xbfa	; 0xbfa <menu_read>
								if (menu_input < 0)
    3b74:	90 91 ce 05 	lds	r25, 0x05CE	; 0x8005ce <menu_input>
    3b78:	99 23       	and	r25, r25
    3b7a:	1c f4       	brge	.+6      	; 0x3b82 <menu+0x202e>
									menu_input = 0;
    3b7c:	10 92 ce 05 	sts	0x05CE, r1	; 0x8005ce <menu_input>
    3b80:	08 c0       	rjmp	.+16     	; 0x3b92 <menu+0x203e>
								else if (menu_input > 5)
    3b82:	96 30       	cpi	r25, 0x06	; 6
    3b84:	24 f0       	brlt	.+8      	; 0x3b8e <menu+0x203a>
									menu_input = 5;
    3b86:	95 e0       	ldi	r25, 0x05	; 5
    3b88:	90 93 ce 05 	sts	0x05CE, r25	; 0x8005ce <menu_input>
    3b8c:	33 c0       	rjmp	.+102    	; 0x3bf4 <menu+0x20a0>
								
								
								if (menu_input == 0)
    3b8e:	91 11       	cpse	r25, r1
    3b90:	07 c0       	rjmp	.+14     	; 0x3ba0 <menu+0x204c>
								{
									menu_display_l[13] = 'N';
    3b92:	f1 01       	movw	r30, r2
    3b94:	a5 86       	std	Z+13, r10	; 0x0d
									menu_display_l[14] = 'C';
    3b96:	b6 86       	std	Z+14, r11	; 0x0e
									menu_display_l[15] = ' ';
    3b98:	47 86       	std	Z+15, r4	; 0x0f
									sw[3] = 0;
    3b9a:	10 92 e0 05 	sts	0x05E0, r1	; 0x8005e0 <sw+0x3>
    3b9e:	30 c0       	rjmp	.+96     	; 0x3c00 <menu+0x20ac>
								}
								else if (menu_input == 1)
    3ba0:	91 30       	cpi	r25, 0x01	; 1
    3ba2:	41 f4       	brne	.+16     	; 0x3bb4 <menu+0x2060>
								{
									menu_display_l[13] = 'C';
    3ba4:	f1 01       	movw	r30, r2
    3ba6:	b5 86       	std	Z+13, r11	; 0x0d
									menu_display_l[14] = 'H';
    3ba8:	98 e4       	ldi	r25, 0x48	; 72
    3baa:	96 87       	std	Z+14, r25	; 0x0e
									menu_display_l[15] = '5';
    3bac:	d7 86       	std	Z+15, r13	; 0x0f
									sw[3] = CH5_SW;
    3bae:	40 92 e0 05 	sts	0x05E0, r4	; 0x8005e0 <sw+0x3>
    3bb2:	26 c0       	rjmp	.+76     	; 0x3c00 <menu+0x20ac>
								}
								else if (menu_input == 2)
    3bb4:	92 30       	cpi	r25, 0x02	; 2
    3bb6:	39 f4       	brne	.+14     	; 0x3bc6 <menu+0x2072>
								{
									menu_display_l[13] = 'D';
    3bb8:	f1 01       	movw	r30, r2
    3bba:	c5 86       	std	Z+13, r12	; 0x0d
									menu_display_l[14] = 'R';
    3bbc:	f6 86       	std	Z+14, r15	; 0x0e
									menu_display_l[15] = 'A';
    3bbe:	87 86       	std	Z+15, r8	; 0x0f
									sw[3] = AIL_DR;
    3bc0:	90 92 e0 05 	sts	0x05E0, r9	; 0x8005e0 <sw+0x3>
    3bc4:	1d c0       	rjmp	.+58     	; 0x3c00 <menu+0x20ac>
								}
								else if (menu_input == 3)
    3bc6:	93 30       	cpi	r25, 0x03	; 3
    3bc8:	49 f4       	brne	.+18     	; 0x3bdc <menu+0x2088>
								{
									menu_display_l[13] = 'D';
    3bca:	f1 01       	movw	r30, r2
    3bcc:	c5 86       	std	Z+13, r12	; 0x0d
									menu_display_l[14] = 'R';
    3bce:	f6 86       	std	Z+14, r15	; 0x0e
									menu_display_l[15] = 'E';
    3bd0:	25 e4       	ldi	r18, 0x45	; 69
    3bd2:	27 87       	std	Z+15, r18	; 0x0f
									sw[3] = ELE_DR;
    3bd4:	32 e0       	ldi	r19, 0x02	; 2
    3bd6:	30 93 e0 05 	sts	0x05E0, r19	; 0x8005e0 <sw+0x3>
    3bda:	12 c0       	rjmp	.+36     	; 0x3c00 <menu+0x20ac>
								}
								else if (menu_input == 4)
    3bdc:	94 30       	cpi	r25, 0x04	; 4
    3bde:	41 f4       	brne	.+16     	; 0x3bf0 <menu+0x209c>
								{
									menu_display_l[13] = 'D';
    3be0:	f1 01       	movw	r30, r2
    3be2:	c5 86       	std	Z+13, r12	; 0x0d
									menu_display_l[14] = 'R';
    3be4:	f6 86       	std	Z+14, r15	; 0x0e
									menu_display_l[15] = 'R';
    3be6:	f7 86       	std	Z+15, r15	; 0x0f
									sw[3] = RUD_DR;
    3be8:	f8 e0       	ldi	r31, 0x08	; 8
    3bea:	f0 93 e0 05 	sts	0x05E0, r31	; 0x8005e0 <sw+0x3>
    3bee:	08 c0       	rjmp	.+16     	; 0x3c00 <menu+0x20ac>
								}
								else if (menu_input == 5)
    3bf0:	95 30       	cpi	r25, 0x05	; 5
    3bf2:	31 f4       	brne	.+12     	; 0x3c00 <menu+0x20ac>
								{
									menu_display_l[13] = 'D';
    3bf4:	f1 01       	movw	r30, r2
    3bf6:	c5 86       	std	Z+13, r12	; 0x0d
									menu_display_l[14] = 'R';
    3bf8:	f6 86       	std	Z+14, r15	; 0x0e
									menu_display_l[15] = '5';
    3bfa:	d7 86       	std	Z+15, r13	; 0x0f
									sw[3] = CH5_DR;
    3bfc:	e0 92 e0 05 	sts	0x05E0, r14	; 0x8005e0 <sw+0x3>
								}
								
								// Exit
								if (enter)
    3c00:	88 23       	and	r24, r24
    3c02:	21 f0       	breq	.+8      	; 0x3c0c <menu+0x20b8>
								{
									menu_input = 3;
    3c04:	83 e0       	ldi	r24, 0x03	; 3
    3c06:	80 93 ce 05 	sts	0x05CE, r24	; 0x8005ce <menu_input>
									break;
    3c0a:	e9 c1       	rjmp	.+978    	; 0x3fde <menu+0x248a>
								}
								
								
								// LCD drive
								LCD_home();
    3c0c:	0e 94 6a 02 	call	0x4d4	; 0x4d4 <LCD_home>
								LCD_NWL();
    3c10:	0e 94 5c 02 	call	0x4b8	; 0x4b8 <LCD_NWL>
								LCD_string(menu_display_l, 16);
    3c14:	6e 2d       	mov	r22, r14
    3c16:	c1 01       	movw	r24, r2
    3c18:	0e 94 db 01 	call	0x3b6	; 0x3b6 <LCD_string>
								
								// Buzzer drive
								buzzer_switch();
    3c1c:	0e 94 1b 09 	call	0x1236	; 0x1236 <buzzer_switch>
								
							} //while (1)
    3c20:	a7 cf       	rjmp	.-178    	; 0x3b70 <menu+0x201c>
						} // if(enter)
						
					} // else if (menu_input == 3)
					
					else if (menu_input == 4)
    3c22:	94 30       	cpi	r25, 0x04	; 4
    3c24:	09 f0       	breq	.+2      	; 0x3c28 <menu+0x20d4>
    3c26:	71 c0       	rjmp	.+226    	; 0x3d0a <menu+0x21b6>
					{
						// Cursor move
						menu_display_h[8] = ' ';
    3c28:	f8 01       	movw	r30, r16
    3c2a:	40 86       	std	Z+8, r4	; 0x08
						menu_display_l[0] = '>';
    3c2c:	9e e3       	ldi	r25, 0x3E	; 62
    3c2e:	f1 01       	movw	r30, r2
    3c30:	90 83       	st	Z, r25
						menu_display_l[8] = ' ';
    3c32:	40 86       	std	Z+8, r4	; 0x08
						
						if (enter)
    3c34:	88 23       	and	r24, r24
    3c36:	09 f4       	brne	.+2      	; 0x3c3a <menu+0x20e6>
    3c38:	d2 c1       	rjmp	.+932    	; 0x3fde <menu+0x248a>
						{
							menu_input = 0;
    3c3a:	10 92 ce 05 	sts	0x05CE, r1	; 0x8005ce <menu_input>
								}
								else if (menu_input == 5)
								{
									menu_display_l[5] = 'D';
									menu_display_l[6] = 'R';
									menu_display_l[7] = '5';
    3c3e:	0f 2e       	mov	r0, r31
    3c40:	f5 e3       	ldi	r31, 0x35	; 53
    3c42:	df 2e       	mov	r13, r31
    3c44:	f0 2d       	mov	r31, r0
									sw[4] = CH5_DR;
    3c46:	68 94       	set
    3c48:	ee 24       	eor	r14, r14
    3c4a:	e4 f8       	bld	r14, 4
								}
								else if (menu_input == 2)
								{
									menu_display_l[5] = 'D';
									menu_display_l[6] = 'R';
									menu_display_l[7] = 'A';
    3c4c:	0f 2e       	mov	r0, r31
    3c4e:	f1 e4       	ldi	r31, 0x41	; 65
    3c50:	8f 2e       	mov	r8, r31
    3c52:	f0 2d       	mov	r31, r0
									sw[4] = AIL_DR;
    3c54:	99 24       	eor	r9, r9
    3c56:	93 94       	inc	r9
						{
							menu_input = 0;
							
							while (1)
							{
								enter = menu_read();
    3c58:	0e 94 fd 05 	call	0xbfa	; 0xbfa <menu_read>
								if (menu_input < 0)
    3c5c:	90 91 ce 05 	lds	r25, 0x05CE	; 0x8005ce <menu_input>
    3c60:	99 23       	and	r25, r25
    3c62:	1c f4       	brge	.+6      	; 0x3c6a <menu+0x2116>
									menu_input = 0;
    3c64:	10 92 ce 05 	sts	0x05CE, r1	; 0x8005ce <menu_input>
    3c68:	08 c0       	rjmp	.+16     	; 0x3c7a <menu+0x2126>
								else if (menu_input > 5)
    3c6a:	96 30       	cpi	r25, 0x06	; 6
    3c6c:	24 f0       	brlt	.+8      	; 0x3c76 <menu+0x2122>
									menu_input = 5;
    3c6e:	95 e0       	ldi	r25, 0x05	; 5
    3c70:	90 93 ce 05 	sts	0x05CE, r25	; 0x8005ce <menu_input>
    3c74:	33 c0       	rjmp	.+102    	; 0x3cdc <menu+0x2188>
								
								
								if (menu_input == 0)
    3c76:	91 11       	cpse	r25, r1
    3c78:	07 c0       	rjmp	.+14     	; 0x3c88 <menu+0x2134>
								{
									menu_display_l[5] = 'N';
    3c7a:	f1 01       	movw	r30, r2
    3c7c:	a5 82       	std	Z+5, r10	; 0x05
									menu_display_l[6] = 'C';
    3c7e:	b6 82       	std	Z+6, r11	; 0x06
									menu_display_l[7] = ' ';
    3c80:	47 82       	std	Z+7, r4	; 0x07
									sw[4] = 0;
    3c82:	10 92 e1 05 	sts	0x05E1, r1	; 0x8005e1 <sw+0x4>
    3c86:	30 c0       	rjmp	.+96     	; 0x3ce8 <menu+0x2194>
								}
								else if (menu_input == 1)
    3c88:	91 30       	cpi	r25, 0x01	; 1
    3c8a:	41 f4       	brne	.+16     	; 0x3c9c <menu+0x2148>
								{
									menu_display_l[5] = 'C';
    3c8c:	f1 01       	movw	r30, r2
    3c8e:	b5 82       	std	Z+5, r11	; 0x05
									menu_display_l[6] = 'H';
    3c90:	98 e4       	ldi	r25, 0x48	; 72
    3c92:	96 83       	std	Z+6, r25	; 0x06
									menu_display_l[7] = '5';
    3c94:	d7 82       	std	Z+7, r13	; 0x07
									sw[4] = CH5_SW;
    3c96:	40 92 e1 05 	sts	0x05E1, r4	; 0x8005e1 <sw+0x4>
    3c9a:	26 c0       	rjmp	.+76     	; 0x3ce8 <menu+0x2194>
								}
								else if (menu_input == 2)
    3c9c:	92 30       	cpi	r25, 0x02	; 2
    3c9e:	39 f4       	brne	.+14     	; 0x3cae <menu+0x215a>
								{
									menu_display_l[5] = 'D';
    3ca0:	f1 01       	movw	r30, r2
    3ca2:	c5 82       	std	Z+5, r12	; 0x05
									menu_display_l[6] = 'R';
    3ca4:	f6 82       	std	Z+6, r15	; 0x06
									menu_display_l[7] = 'A';
    3ca6:	87 82       	std	Z+7, r8	; 0x07
									sw[4] = AIL_DR;
    3ca8:	90 92 e1 05 	sts	0x05E1, r9	; 0x8005e1 <sw+0x4>
    3cac:	1d c0       	rjmp	.+58     	; 0x3ce8 <menu+0x2194>
								}
								else if (menu_input == 3)
    3cae:	93 30       	cpi	r25, 0x03	; 3
    3cb0:	49 f4       	brne	.+18     	; 0x3cc4 <menu+0x2170>
								{
									menu_display_l[5] = 'D';
    3cb2:	f1 01       	movw	r30, r2
    3cb4:	c5 82       	std	Z+5, r12	; 0x05
									menu_display_l[6] = 'R';
    3cb6:	f6 82       	std	Z+6, r15	; 0x06
									menu_display_l[7] = 'E';
    3cb8:	25 e4       	ldi	r18, 0x45	; 69
    3cba:	27 83       	std	Z+7, r18	; 0x07
									sw[4] = ELE_DR;
    3cbc:	32 e0       	ldi	r19, 0x02	; 2
    3cbe:	30 93 e1 05 	sts	0x05E1, r19	; 0x8005e1 <sw+0x4>
    3cc2:	12 c0       	rjmp	.+36     	; 0x3ce8 <menu+0x2194>
								}
								else if (menu_input == 4)
    3cc4:	94 30       	cpi	r25, 0x04	; 4
    3cc6:	41 f4       	brne	.+16     	; 0x3cd8 <menu+0x2184>
								{
									menu_display_l[5] = 'D';
    3cc8:	f1 01       	movw	r30, r2
    3cca:	c5 82       	std	Z+5, r12	; 0x05
									menu_display_l[6] = 'R';
    3ccc:	f6 82       	std	Z+6, r15	; 0x06
									menu_display_l[7] = 'R';
    3cce:	f7 82       	std	Z+7, r15	; 0x07
									sw[4] = RUD_DR;
    3cd0:	f8 e0       	ldi	r31, 0x08	; 8
    3cd2:	f0 93 e1 05 	sts	0x05E1, r31	; 0x8005e1 <sw+0x4>
    3cd6:	08 c0       	rjmp	.+16     	; 0x3ce8 <menu+0x2194>
								}
								else if (menu_input == 5)
    3cd8:	95 30       	cpi	r25, 0x05	; 5
    3cda:	31 f4       	brne	.+12     	; 0x3ce8 <menu+0x2194>
								{
									menu_display_l[5] = 'D';
    3cdc:	f1 01       	movw	r30, r2
    3cde:	c5 82       	std	Z+5, r12	; 0x05
									menu_display_l[6] = 'R';
    3ce0:	f6 82       	std	Z+6, r15	; 0x06
									menu_display_l[7] = '5';
    3ce2:	d7 82       	std	Z+7, r13	; 0x07
									sw[4] = CH5_DR;
    3ce4:	e0 92 e1 05 	sts	0x05E1, r14	; 0x8005e1 <sw+0x4>
								}
								
								// Exit
								if (enter)
    3ce8:	88 23       	and	r24, r24
    3cea:	21 f0       	breq	.+8      	; 0x3cf4 <menu+0x21a0>
								{
									menu_input = 4;
    3cec:	84 e0       	ldi	r24, 0x04	; 4
    3cee:	80 93 ce 05 	sts	0x05CE, r24	; 0x8005ce <menu_input>
									break;
    3cf2:	75 c1       	rjmp	.+746    	; 0x3fde <menu+0x248a>
								}
								
								
								// LCD drive
								LCD_home();
    3cf4:	0e 94 6a 02 	call	0x4d4	; 0x4d4 <LCD_home>
								LCD_NWL();
    3cf8:	0e 94 5c 02 	call	0x4b8	; 0x4b8 <LCD_NWL>
								LCD_string(menu_display_l, 16);
    3cfc:	6e 2d       	mov	r22, r14
    3cfe:	c1 01       	movw	r24, r2
    3d00:	0e 94 db 01 	call	0x3b6	; 0x3b6 <LCD_string>
								
								// Buzzer drive
								buzzer_switch();
    3d04:	0e 94 1b 09 	call	0x1236	; 0x1236 <buzzer_switch>
								
							} //while (1)
    3d08:	a7 cf       	rjmp	.-178    	; 0x3c58 <menu+0x2104>
						} // if(enter)
						
					} // else if (menu_input == 4)
					
					else if (menu_input == 5)
    3d0a:	95 30       	cpi	r25, 0x05	; 5
    3d0c:	09 f0       	breq	.+2      	; 0x3d10 <menu+0x21bc>
    3d0e:	6f c0       	rjmp	.+222    	; 0x3dee <menu+0x229a>
					{
						// Cursor move
						menu_display_l[8] = '>';
    3d10:	9e e3       	ldi	r25, 0x3E	; 62
    3d12:	f1 01       	movw	r30, r2
    3d14:	90 87       	std	Z+8, r25	; 0x08
						menu_display_l[0] = ' ';
    3d16:	40 82       	st	Z, r4
						
						if (enter)
    3d18:	88 23       	and	r24, r24
    3d1a:	09 f4       	brne	.+2      	; 0x3d1e <menu+0x21ca>
    3d1c:	60 c1       	rjmp	.+704    	; 0x3fde <menu+0x248a>
						{
							menu_input = 0;
    3d1e:	10 92 ce 05 	sts	0x05CE, r1	; 0x8005ce <menu_input>
								}
								else if (menu_input == 5)
								{
									menu_display_l[13] = 'D';
									menu_display_l[14] = 'R';
									menu_display_l[15] = '5';
    3d22:	0f 2e       	mov	r0, r31
    3d24:	f5 e3       	ldi	r31, 0x35	; 53
    3d26:	df 2e       	mov	r13, r31
    3d28:	f0 2d       	mov	r31, r0
									sw[5] = CH5_DR;
    3d2a:	68 94       	set
    3d2c:	ee 24       	eor	r14, r14
    3d2e:	e4 f8       	bld	r14, 4
								}
								else if (menu_input == 2)
								{
									menu_display_l[13] = 'D';
									menu_display_l[14] = 'R';
									menu_display_l[15] = 'A';
    3d30:	0f 2e       	mov	r0, r31
    3d32:	f1 e4       	ldi	r31, 0x41	; 65
    3d34:	8f 2e       	mov	r8, r31
    3d36:	f0 2d       	mov	r31, r0
									sw[5] = AIL_DR;
    3d38:	99 24       	eor	r9, r9
    3d3a:	93 94       	inc	r9
						{
							menu_input = 0;
							
							while (1)
							{
								enter = menu_read();
    3d3c:	0e 94 fd 05 	call	0xbfa	; 0xbfa <menu_read>
								if (menu_input < 0)
    3d40:	90 91 ce 05 	lds	r25, 0x05CE	; 0x8005ce <menu_input>
    3d44:	99 23       	and	r25, r25
    3d46:	1c f4       	brge	.+6      	; 0x3d4e <menu+0x21fa>
									menu_input = 0;
    3d48:	10 92 ce 05 	sts	0x05CE, r1	; 0x8005ce <menu_input>
    3d4c:	08 c0       	rjmp	.+16     	; 0x3d5e <menu+0x220a>
								else if (menu_input > 5)
    3d4e:	96 30       	cpi	r25, 0x06	; 6
    3d50:	24 f0       	brlt	.+8      	; 0x3d5a <menu+0x2206>
									menu_input = 5;
    3d52:	95 e0       	ldi	r25, 0x05	; 5
    3d54:	90 93 ce 05 	sts	0x05CE, r25	; 0x8005ce <menu_input>
    3d58:	33 c0       	rjmp	.+102    	; 0x3dc0 <menu+0x226c>
								
								
								if (menu_input == 0)
    3d5a:	91 11       	cpse	r25, r1
    3d5c:	07 c0       	rjmp	.+14     	; 0x3d6c <menu+0x2218>
								{
									menu_display_l[13] = 'N';
    3d5e:	f1 01       	movw	r30, r2
    3d60:	a5 86       	std	Z+13, r10	; 0x0d
									menu_display_l[14] = 'C';
    3d62:	b6 86       	std	Z+14, r11	; 0x0e
									menu_display_l[15] = ' ';
    3d64:	47 86       	std	Z+15, r4	; 0x0f
									sw[5] = 0;
    3d66:	10 92 e2 05 	sts	0x05E2, r1	; 0x8005e2 <sw+0x5>
    3d6a:	30 c0       	rjmp	.+96     	; 0x3dcc <menu+0x2278>
								}
								else if (menu_input == 1)
    3d6c:	91 30       	cpi	r25, 0x01	; 1
    3d6e:	41 f4       	brne	.+16     	; 0x3d80 <menu+0x222c>
								{
									menu_display_l[13] = 'C';
    3d70:	f1 01       	movw	r30, r2
    3d72:	b5 86       	std	Z+13, r11	; 0x0d
									menu_display_l[14] = 'H';
    3d74:	98 e4       	ldi	r25, 0x48	; 72
    3d76:	96 87       	std	Z+14, r25	; 0x0e
									menu_display_l[15] = '5';
    3d78:	d7 86       	std	Z+15, r13	; 0x0f
									sw[5] = CH5_SW;
    3d7a:	40 92 e2 05 	sts	0x05E2, r4	; 0x8005e2 <sw+0x5>
    3d7e:	26 c0       	rjmp	.+76     	; 0x3dcc <menu+0x2278>
								}
								else if (menu_input == 2)
    3d80:	92 30       	cpi	r25, 0x02	; 2
    3d82:	39 f4       	brne	.+14     	; 0x3d92 <menu+0x223e>
								{
									menu_display_l[13] = 'D';
    3d84:	f1 01       	movw	r30, r2
    3d86:	c5 86       	std	Z+13, r12	; 0x0d
									menu_display_l[14] = 'R';
    3d88:	f6 86       	std	Z+14, r15	; 0x0e
									menu_display_l[15] = 'A';
    3d8a:	87 86       	std	Z+15, r8	; 0x0f
									sw[5] = AIL_DR;
    3d8c:	90 92 e2 05 	sts	0x05E2, r9	; 0x8005e2 <sw+0x5>
    3d90:	1d c0       	rjmp	.+58     	; 0x3dcc <menu+0x2278>
								}
								else if (menu_input == 3)
    3d92:	93 30       	cpi	r25, 0x03	; 3
    3d94:	49 f4       	brne	.+18     	; 0x3da8 <menu+0x2254>
								{
									menu_display_l[13] = 'D';
    3d96:	f1 01       	movw	r30, r2
    3d98:	c5 86       	std	Z+13, r12	; 0x0d
									menu_display_l[14] = 'R';
    3d9a:	f6 86       	std	Z+14, r15	; 0x0e
									menu_display_l[15] = 'E';
    3d9c:	25 e4       	ldi	r18, 0x45	; 69
    3d9e:	27 87       	std	Z+15, r18	; 0x0f
									sw[5] = ELE_DR;
    3da0:	32 e0       	ldi	r19, 0x02	; 2
    3da2:	30 93 e2 05 	sts	0x05E2, r19	; 0x8005e2 <sw+0x5>
    3da6:	12 c0       	rjmp	.+36     	; 0x3dcc <menu+0x2278>
								}
								else if (menu_input == 4)
    3da8:	94 30       	cpi	r25, 0x04	; 4
    3daa:	41 f4       	brne	.+16     	; 0x3dbc <menu+0x2268>
								{
									menu_display_l[13] = 'D';
    3dac:	f1 01       	movw	r30, r2
    3dae:	c5 86       	std	Z+13, r12	; 0x0d
									menu_display_l[14] = 'R';
    3db0:	f6 86       	std	Z+14, r15	; 0x0e
									menu_display_l[15] = 'R';
    3db2:	f7 86       	std	Z+15, r15	; 0x0f
									sw[5] = RUD_DR;
    3db4:	f8 e0       	ldi	r31, 0x08	; 8
    3db6:	f0 93 e2 05 	sts	0x05E2, r31	; 0x8005e2 <sw+0x5>
    3dba:	08 c0       	rjmp	.+16     	; 0x3dcc <menu+0x2278>
								}
								else if (menu_input == 5)
    3dbc:	95 30       	cpi	r25, 0x05	; 5
    3dbe:	31 f4       	brne	.+12     	; 0x3dcc <menu+0x2278>
								{
									menu_display_l[13] = 'D';
    3dc0:	f1 01       	movw	r30, r2
    3dc2:	c5 86       	std	Z+13, r12	; 0x0d
									menu_display_l[14] = 'R';
    3dc4:	f6 86       	std	Z+14, r15	; 0x0e
									menu_display_l[15] = '5';
    3dc6:	d7 86       	std	Z+15, r13	; 0x0f
									sw[5] = CH5_DR;
    3dc8:	e0 92 e2 05 	sts	0x05E2, r14	; 0x8005e2 <sw+0x5>
								}
								
								// Exit
								if (enter)
    3dcc:	88 23       	and	r24, r24
    3dce:	21 f0       	breq	.+8      	; 0x3dd8 <menu+0x2284>
								{
									menu_input = 5;
    3dd0:	85 e0       	ldi	r24, 0x05	; 5
    3dd2:	80 93 ce 05 	sts	0x05CE, r24	; 0x8005ce <menu_input>
									break;
    3dd6:	03 c1       	rjmp	.+518    	; 0x3fde <menu+0x248a>
								}
								
								
								// LCD drive
								LCD_home();
    3dd8:	0e 94 6a 02 	call	0x4d4	; 0x4d4 <LCD_home>
								LCD_NWL();
    3ddc:	0e 94 5c 02 	call	0x4b8	; 0x4b8 <LCD_NWL>
								LCD_string(menu_display_l, 16);
    3de0:	6e 2d       	mov	r22, r14
    3de2:	c1 01       	movw	r24, r2
    3de4:	0e 94 db 01 	call	0x3b6	; 0x3b6 <LCD_string>
								
								// Buzzer drive
								buzzer_switch();
    3de8:	0e 94 1b 09 	call	0x1236	; 0x1236 <buzzer_switch>
								
								
							} //while (1)
    3dec:	a7 cf       	rjmp	.-178    	; 0x3d3c <menu+0x21e8>
						} // if(enter)
						
					} // else if (menu_input == 5)
					
					else if (menu_input == 6)
    3dee:	96 30       	cpi	r25, 0x06	; 6
    3df0:	09 f0       	breq	.+2      	; 0x3df4 <menu+0x22a0>
    3df2:	71 c0       	rjmp	.+226    	; 0x3ed6 <menu+0x2382>
					{
						// Cursor move
						menu_display_h[8] = ' ';
    3df4:	f8 01       	movw	r30, r16
    3df6:	40 86       	std	Z+8, r4	; 0x08
						menu_display_l[0] = '>';
    3df8:	9e e3       	ldi	r25, 0x3E	; 62
    3dfa:	f1 01       	movw	r30, r2
    3dfc:	90 83       	st	Z, r25
						menu_display_l[8] = ' ';
    3dfe:	40 86       	std	Z+8, r4	; 0x08
						
						if (enter)
    3e00:	88 23       	and	r24, r24
    3e02:	09 f4       	brne	.+2      	; 0x3e06 <menu+0x22b2>
    3e04:	ec c0       	rjmp	.+472    	; 0x3fde <menu+0x248a>
						{
							menu_input = 0;
    3e06:	10 92 ce 05 	sts	0x05CE, r1	; 0x8005ce <menu_input>
								}
								else if (menu_input == 5)
								{
									menu_display_l[5] = 'D';
									menu_display_l[6] = 'R';
									menu_display_l[7] = '5';
    3e0a:	0f 2e       	mov	r0, r31
    3e0c:	f5 e3       	ldi	r31, 0x35	; 53
    3e0e:	df 2e       	mov	r13, r31
    3e10:	f0 2d       	mov	r31, r0
									sw[5] = CH5_DR;
    3e12:	68 94       	set
    3e14:	ee 24       	eor	r14, r14
    3e16:	e4 f8       	bld	r14, 4
								}
								else if (menu_input == 2)
								{
									menu_display_l[5] = 'D';
									menu_display_l[6] = 'R';
									menu_display_l[7] = 'A';
    3e18:	0f 2e       	mov	r0, r31
    3e1a:	f1 e4       	ldi	r31, 0x41	; 65
    3e1c:	8f 2e       	mov	r8, r31
    3e1e:	f0 2d       	mov	r31, r0
									sw[5] = AIL_DR ;
    3e20:	99 24       	eor	r9, r9
    3e22:	93 94       	inc	r9
						{
							menu_input = 0;
							
							while (1)
							{
								enter = menu_read();
    3e24:	0e 94 fd 05 	call	0xbfa	; 0xbfa <menu_read>
								if (menu_input < 0)
    3e28:	90 91 ce 05 	lds	r25, 0x05CE	; 0x8005ce <menu_input>
    3e2c:	99 23       	and	r25, r25
    3e2e:	1c f4       	brge	.+6      	; 0x3e36 <menu+0x22e2>
									menu_input = 0;
    3e30:	10 92 ce 05 	sts	0x05CE, r1	; 0x8005ce <menu_input>
    3e34:	08 c0       	rjmp	.+16     	; 0x3e46 <menu+0x22f2>
								else if (menu_input > 5)
    3e36:	96 30       	cpi	r25, 0x06	; 6
    3e38:	24 f0       	brlt	.+8      	; 0x3e42 <menu+0x22ee>
									menu_input = 5;
    3e3a:	95 e0       	ldi	r25, 0x05	; 5
    3e3c:	90 93 ce 05 	sts	0x05CE, r25	; 0x8005ce <menu_input>
    3e40:	33 c0       	rjmp	.+102    	; 0x3ea8 <menu+0x2354>
								
								
								if (menu_input == 0)
    3e42:	91 11       	cpse	r25, r1
    3e44:	07 c0       	rjmp	.+14     	; 0x3e54 <menu+0x2300>
								{
									menu_display_l[5] = 'N';
    3e46:	f1 01       	movw	r30, r2
    3e48:	a5 82       	std	Z+5, r10	; 0x05
									menu_display_l[6] = 'C';
    3e4a:	b6 82       	std	Z+6, r11	; 0x06
									menu_display_l[7] = ' ';
    3e4c:	47 82       	std	Z+7, r4	; 0x07
									sw[6] = 0;
    3e4e:	10 92 e3 05 	sts	0x05E3, r1	; 0x8005e3 <sw+0x6>
    3e52:	30 c0       	rjmp	.+96     	; 0x3eb4 <menu+0x2360>
								}
								else if (menu_input == 1)
    3e54:	91 30       	cpi	r25, 0x01	; 1
    3e56:	41 f4       	brne	.+16     	; 0x3e68 <menu+0x2314>
								{
									menu_display_l[5] = 'C';
    3e58:	f1 01       	movw	r30, r2
    3e5a:	b5 82       	std	Z+5, r11	; 0x05
									menu_display_l[6] = 'H';
    3e5c:	98 e4       	ldi	r25, 0x48	; 72
    3e5e:	96 83       	std	Z+6, r25	; 0x06
									menu_display_l[7] = '5';
    3e60:	d7 82       	std	Z+7, r13	; 0x07
									sw[5] = CH5_SW;
    3e62:	40 92 e2 05 	sts	0x05E2, r4	; 0x8005e2 <sw+0x5>
    3e66:	26 c0       	rjmp	.+76     	; 0x3eb4 <menu+0x2360>
								}
								else if (menu_input == 2)
    3e68:	92 30       	cpi	r25, 0x02	; 2
    3e6a:	39 f4       	brne	.+14     	; 0x3e7a <menu+0x2326>
								{
									menu_display_l[5] = 'D';
    3e6c:	f1 01       	movw	r30, r2
    3e6e:	c5 82       	std	Z+5, r12	; 0x05
									menu_display_l[6] = 'R';
    3e70:	f6 82       	std	Z+6, r15	; 0x06
									menu_display_l[7] = 'A';
    3e72:	87 82       	std	Z+7, r8	; 0x07
									sw[5] = AIL_DR ;
    3e74:	90 92 e2 05 	sts	0x05E2, r9	; 0x8005e2 <sw+0x5>
    3e78:	1d c0       	rjmp	.+58     	; 0x3eb4 <menu+0x2360>
								}
								else if (menu_input == 3)
    3e7a:	93 30       	cpi	r25, 0x03	; 3
    3e7c:	49 f4       	brne	.+18     	; 0x3e90 <menu+0x233c>
								{
									menu_display_l[5] = 'D';
    3e7e:	f1 01       	movw	r30, r2
    3e80:	c5 82       	std	Z+5, r12	; 0x05
									menu_display_l[6] = 'R';
    3e82:	f6 82       	std	Z+6, r15	; 0x06
									menu_display_l[7] = 'E';
    3e84:	25 e4       	ldi	r18, 0x45	; 69
    3e86:	27 83       	std	Z+7, r18	; 0x07
									sw[5] = ELE_DR;
    3e88:	32 e0       	ldi	r19, 0x02	; 2
    3e8a:	30 93 e2 05 	sts	0x05E2, r19	; 0x8005e2 <sw+0x5>
    3e8e:	12 c0       	rjmp	.+36     	; 0x3eb4 <menu+0x2360>
								}
								else if (menu_input == 4)
    3e90:	94 30       	cpi	r25, 0x04	; 4
    3e92:	41 f4       	brne	.+16     	; 0x3ea4 <menu+0x2350>
								{
									menu_display_l[5] = 'D';
    3e94:	f1 01       	movw	r30, r2
    3e96:	c5 82       	std	Z+5, r12	; 0x05
									menu_display_l[6] = 'R';
    3e98:	f6 82       	std	Z+6, r15	; 0x06
									menu_display_l[7] = 'R';
    3e9a:	f7 82       	std	Z+7, r15	; 0x07
									sw[5] = RUD_DR;
    3e9c:	f8 e0       	ldi	r31, 0x08	; 8
    3e9e:	f0 93 e2 05 	sts	0x05E2, r31	; 0x8005e2 <sw+0x5>
    3ea2:	08 c0       	rjmp	.+16     	; 0x3eb4 <menu+0x2360>
								}
								else if (menu_input == 5)
    3ea4:	95 30       	cpi	r25, 0x05	; 5
    3ea6:	31 f4       	brne	.+12     	; 0x3eb4 <menu+0x2360>
								{
									menu_display_l[5] = 'D';
    3ea8:	f1 01       	movw	r30, r2
    3eaa:	c5 82       	std	Z+5, r12	; 0x05
									menu_display_l[6] = 'R';
    3eac:	f6 82       	std	Z+6, r15	; 0x06
									menu_display_l[7] = '5';
    3eae:	d7 82       	std	Z+7, r13	; 0x07
									sw[5] = CH5_DR;
    3eb0:	e0 92 e2 05 	sts	0x05E2, r14	; 0x8005e2 <sw+0x5>
								}
								
								// Exit
								if (enter)
    3eb4:	88 23       	and	r24, r24
    3eb6:	21 f0       	breq	.+8      	; 0x3ec0 <menu+0x236c>
								{
									menu_input = 6;
    3eb8:	86 e0       	ldi	r24, 0x06	; 6
    3eba:	80 93 ce 05 	sts	0x05CE, r24	; 0x8005ce <menu_input>
									break;
    3ebe:	8f c0       	rjmp	.+286    	; 0x3fde <menu+0x248a>
								}
								
								
								// LCD drive
								LCD_home();
    3ec0:	0e 94 6a 02 	call	0x4d4	; 0x4d4 <LCD_home>
								LCD_NWL();
    3ec4:	0e 94 5c 02 	call	0x4b8	; 0x4b8 <LCD_NWL>
								LCD_string(menu_display_l, 16);
    3ec8:	6e 2d       	mov	r22, r14
    3eca:	c1 01       	movw	r24, r2
    3ecc:	0e 94 db 01 	call	0x3b6	; 0x3b6 <LCD_string>
								
								// Buzzer drive
								buzzer_switch();
    3ed0:	0e 94 1b 09 	call	0x1236	; 0x1236 <buzzer_switch>
								
								
							} //while (1)
    3ed4:	a7 cf       	rjmp	.-178    	; 0x3e24 <menu+0x22d0>
						} // if(enter)
						
					} // else if (menu_input == 6)
					
					else if (menu_input == 7)
    3ed6:	97 30       	cpi	r25, 0x07	; 7
    3ed8:	09 f0       	breq	.+2      	; 0x3edc <menu+0x2388>
    3eda:	6f c0       	rjmp	.+222    	; 0x3fba <menu+0x2466>
					{
						// Cursor move
						menu_display_l[8] = '>';
    3edc:	9e e3       	ldi	r25, 0x3E	; 62
    3ede:	f1 01       	movw	r30, r2
    3ee0:	90 87       	std	Z+8, r25	; 0x08
						menu_display_l[0] = ' ';
    3ee2:	40 82       	st	Z, r4
						
						if (enter)
    3ee4:	88 23       	and	r24, r24
    3ee6:	09 f4       	brne	.+2      	; 0x3eea <menu+0x2396>
    3ee8:	7a c0       	rjmp	.+244    	; 0x3fde <menu+0x248a>
						{
							menu_input = 0;
    3eea:	10 92 ce 05 	sts	0x05CE, r1	; 0x8005ce <menu_input>
								}
								else if (menu_input == 5)
								{
									menu_display_l[13] = 'D';
									menu_display_l[14] = 'R';
									menu_display_l[15] = '5';
    3eee:	0f 2e       	mov	r0, r31
    3ef0:	f5 e3       	ldi	r31, 0x35	; 53
    3ef2:	df 2e       	mov	r13, r31
    3ef4:	f0 2d       	mov	r31, r0
									sw[7] = CH5_DR;
    3ef6:	68 94       	set
    3ef8:	ee 24       	eor	r14, r14
    3efa:	e4 f8       	bld	r14, 4
								}
								else if (menu_input == 2)
								{
									menu_display_l[13] = 'D';
									menu_display_l[14] = 'R';
									menu_display_l[15] = 'A';
    3efc:	0f 2e       	mov	r0, r31
    3efe:	f1 e4       	ldi	r31, 0x41	; 65
    3f00:	8f 2e       	mov	r8, r31
    3f02:	f0 2d       	mov	r31, r0
									sw[7] = AIL_DR;
    3f04:	99 24       	eor	r9, r9
    3f06:	93 94       	inc	r9
						{
							menu_input = 0;
							
							while (1)
							{
								enter = menu_read();
    3f08:	0e 94 fd 05 	call	0xbfa	; 0xbfa <menu_read>
								if (menu_input < 0)
    3f0c:	90 91 ce 05 	lds	r25, 0x05CE	; 0x8005ce <menu_input>
    3f10:	99 23       	and	r25, r25
    3f12:	1c f4       	brge	.+6      	; 0x3f1a <menu+0x23c6>
									menu_input = 0;
    3f14:	10 92 ce 05 	sts	0x05CE, r1	; 0x8005ce <menu_input>
    3f18:	08 c0       	rjmp	.+16     	; 0x3f2a <menu+0x23d6>
								else if (menu_input > 5)
    3f1a:	96 30       	cpi	r25, 0x06	; 6
    3f1c:	24 f0       	brlt	.+8      	; 0x3f26 <menu+0x23d2>
									menu_input = 5;
    3f1e:	95 e0       	ldi	r25, 0x05	; 5
    3f20:	90 93 ce 05 	sts	0x05CE, r25	; 0x8005ce <menu_input>
    3f24:	33 c0       	rjmp	.+102    	; 0x3f8c <menu+0x2438>
								
								
								if (menu_input == 0)
    3f26:	91 11       	cpse	r25, r1
    3f28:	07 c0       	rjmp	.+14     	; 0x3f38 <menu+0x23e4>
								{
									menu_display_l[13] = 'N';
    3f2a:	f1 01       	movw	r30, r2
    3f2c:	a5 86       	std	Z+13, r10	; 0x0d
									menu_display_l[14] = 'C';
    3f2e:	b6 86       	std	Z+14, r11	; 0x0e
									menu_display_l[15] = ' ';
    3f30:	47 86       	std	Z+15, r4	; 0x0f
									sw[7] = 0;
    3f32:	10 92 e4 05 	sts	0x05E4, r1	; 0x8005e4 <sw+0x7>
    3f36:	30 c0       	rjmp	.+96     	; 0x3f98 <menu+0x2444>
								}
								else if (menu_input == 1)
    3f38:	91 30       	cpi	r25, 0x01	; 1
    3f3a:	41 f4       	brne	.+16     	; 0x3f4c <menu+0x23f8>
								{
									menu_display_l[13] = 'C';
    3f3c:	f1 01       	movw	r30, r2
    3f3e:	b5 86       	std	Z+13, r11	; 0x0d
									menu_display_l[14] = 'H';
    3f40:	98 e4       	ldi	r25, 0x48	; 72
    3f42:	96 87       	std	Z+14, r25	; 0x0e
									menu_display_l[15] = '5';
    3f44:	d7 86       	std	Z+15, r13	; 0x0f
									sw[7] = CH5_SW;
    3f46:	40 92 e4 05 	sts	0x05E4, r4	; 0x8005e4 <sw+0x7>
    3f4a:	26 c0       	rjmp	.+76     	; 0x3f98 <menu+0x2444>
								}
								else if (menu_input == 2)
    3f4c:	92 30       	cpi	r25, 0x02	; 2
    3f4e:	39 f4       	brne	.+14     	; 0x3f5e <menu+0x240a>
								{
									menu_display_l[13] = 'D';
    3f50:	f1 01       	movw	r30, r2
    3f52:	c5 86       	std	Z+13, r12	; 0x0d
									menu_display_l[14] = 'R';
    3f54:	f6 86       	std	Z+14, r15	; 0x0e
									menu_display_l[15] = 'A';
    3f56:	87 86       	std	Z+15, r8	; 0x0f
									sw[7] = AIL_DR;
    3f58:	90 92 e4 05 	sts	0x05E4, r9	; 0x8005e4 <sw+0x7>
    3f5c:	1d c0       	rjmp	.+58     	; 0x3f98 <menu+0x2444>
								}
								else if (menu_input == 3)
    3f5e:	93 30       	cpi	r25, 0x03	; 3
    3f60:	49 f4       	brne	.+18     	; 0x3f74 <menu+0x2420>
								{
									menu_display_l[13] = 'D';
    3f62:	f1 01       	movw	r30, r2
    3f64:	c5 86       	std	Z+13, r12	; 0x0d
									menu_display_l[14] = 'R';
    3f66:	f6 86       	std	Z+14, r15	; 0x0e
									menu_display_l[15] = 'E';
    3f68:	25 e4       	ldi	r18, 0x45	; 69
    3f6a:	27 87       	std	Z+15, r18	; 0x0f
									sw[7] = ELE_DR;
    3f6c:	32 e0       	ldi	r19, 0x02	; 2
    3f6e:	30 93 e4 05 	sts	0x05E4, r19	; 0x8005e4 <sw+0x7>
    3f72:	12 c0       	rjmp	.+36     	; 0x3f98 <menu+0x2444>
								}
								else if (menu_input == 4)
    3f74:	94 30       	cpi	r25, 0x04	; 4
    3f76:	41 f4       	brne	.+16     	; 0x3f88 <menu+0x2434>
								{
									menu_display_l[13] = 'D';
    3f78:	f1 01       	movw	r30, r2
    3f7a:	c5 86       	std	Z+13, r12	; 0x0d
									menu_display_l[14] = 'R';
    3f7c:	f6 86       	std	Z+14, r15	; 0x0e
									menu_display_l[15] = 'R';
    3f7e:	f7 86       	std	Z+15, r15	; 0x0f
									sw[7] = RUD_DR;
    3f80:	f8 e0       	ldi	r31, 0x08	; 8
    3f82:	f0 93 e4 05 	sts	0x05E4, r31	; 0x8005e4 <sw+0x7>
    3f86:	08 c0       	rjmp	.+16     	; 0x3f98 <menu+0x2444>
								}
								else if (menu_input == 5)
    3f88:	95 30       	cpi	r25, 0x05	; 5
    3f8a:	31 f4       	brne	.+12     	; 0x3f98 <menu+0x2444>
								{
									menu_display_l[13] = 'D';
    3f8c:	f1 01       	movw	r30, r2
    3f8e:	c5 86       	std	Z+13, r12	; 0x0d
									menu_display_l[14] = 'R';
    3f90:	f6 86       	std	Z+14, r15	; 0x0e
									menu_display_l[15] = '5';
    3f92:	d7 86       	std	Z+15, r13	; 0x0f
									sw[7] = CH5_DR;
    3f94:	e0 92 e4 05 	sts	0x05E4, r14	; 0x8005e4 <sw+0x7>
								}
								
								// Exit
								if (enter)
    3f98:	88 23       	and	r24, r24
    3f9a:	21 f0       	breq	.+8      	; 0x3fa4 <menu+0x2450>
								{
									menu_input = 7;
    3f9c:	87 e0       	ldi	r24, 0x07	; 7
    3f9e:	80 93 ce 05 	sts	0x05CE, r24	; 0x8005ce <menu_input>
									break;
    3fa2:	1d c0       	rjmp	.+58     	; 0x3fde <menu+0x248a>
								}
								
								
								// LCD drive
								LCD_home();
    3fa4:	0e 94 6a 02 	call	0x4d4	; 0x4d4 <LCD_home>
								LCD_NWL();
    3fa8:	0e 94 5c 02 	call	0x4b8	; 0x4b8 <LCD_NWL>
								LCD_string(menu_display_l, 16);
    3fac:	6e 2d       	mov	r22, r14
    3fae:	c1 01       	movw	r24, r2
    3fb0:	0e 94 db 01 	call	0x3b6	; 0x3b6 <LCD_string>
								
								// Buzzer drive
								buzzer_switch();
    3fb4:	0e 94 1b 09 	call	0x1236	; 0x1236 <buzzer_switch>
								
								
							} //while (1)
    3fb8:	a7 cf       	rjmp	.-178    	; 0x3f08 <menu+0x23b4>
						} // if(enter)
						
					} // else if (menu_input == 7)
					
					// Exit
					if (menu_input == 8)
    3fba:	90 91 ce 05 	lds	r25, 0x05CE	; 0x8005ce <menu_input>
    3fbe:	98 30       	cpi	r25, 0x08	; 8
    3fc0:	71 f4       	brne	.+28     	; 0x3fde <menu+0x248a>
					{
						// Cursor move
						menu_display_h[8] = ' ';
    3fc2:	f8 01       	movw	r30, r16
    3fc4:	40 86       	std	Z+8, r4	; 0x08
						menu_display_l[0] = '>';
    3fc6:	9e e3       	ldi	r25, 0x3E	; 62
    3fc8:	f1 01       	movw	r30, r2
    3fca:	90 83       	st	Z, r25
						menu_display_l[8] = ' ';
    3fcc:	40 86       	std	Z+8, r4	; 0x08
						
						if (enter)
    3fce:	88 23       	and	r24, r24
    3fd0:	31 f0       	breq	.+12     	; 0x3fde <menu+0x248a>
    3fd2:	89 80       	ldd	r8, Y+1	; 0x01
    3fd4:	9a 80       	ldd	r9, Y+2	; 0x02
						{
							menu_input = menu_input_temp;
    3fd6:	8b e0       	ldi	r24, 0x0B	; 11
    3fd8:	80 93 ce 05 	sts	0x05CE, r24	; 0x8005ce <menu_input>
							break;
    3fdc:	8a c0       	rjmp	.+276    	; 0x40f2 <menu+0x259e>
						}
					}
					
					
					// LCD drive
					LCD_home();
    3fde:	0e 94 6a 02 	call	0x4d4	; 0x4d4 <LCD_home>
					LCD_string(menu_display_h, 16);
    3fe2:	60 e1       	ldi	r22, 0x10	; 16
    3fe4:	c8 01       	movw	r24, r16
    3fe6:	0e 94 db 01 	call	0x3b6	; 0x3b6 <LCD_string>
					LCD_NWL();
    3fea:	0e 94 5c 02 	call	0x4b8	; 0x4b8 <LCD_NWL>
					LCD_string(menu_display_l, 16);
    3fee:	60 e1       	ldi	r22, 0x10	; 16
    3ff0:	c1 01       	movw	r24, r2
    3ff2:	0e 94 db 01 	call	0x3b6	; 0x3b6 <LCD_string>
					
					// Buzzer drive
					buzzer_switch();
    3ff6:	0e 94 1b 09 	call	0x1236	; 0x1236 <buzzer_switch>
					
					
				} // while (1)
    3ffa:	b9 c9       	rjmp	.-3214   	; 0x336e <menu+0x181a>
			} //if (enter)
		} //else if (menu_input == MENU_NUM)
		
		////////// Exit //////////////////////////////////////////////////////////
		else if (menu_input == MENU_NUM)
    3ffc:	9c 30       	cpi	r25, 0x0C	; 12
    3ffe:	09 f0       	breq	.+2      	; 0x4002 <menu+0x24ae>
    4000:	78 c0       	rjmp	.+240    	; 0x40f2 <menu+0x259e>
			// Display
			menu_display_h = " Switch allocate";
			menu_display_l = ">Exit           ";
			
			// Key input
			if (enter)
    4002:	88 23       	and	r24, r24
    4004:	09 f4       	brne	.+2      	; 0x4008 <menu+0x24b4>
    4006:	6d c0       	rjmp	.+218    	; 0x40e2 <menu+0x258e>
    4008:	e6 c0       	rjmp	.+460    	; 0x41d6 <menu+0x2682>
		////////// Set model number //////////////////////////////////////////////
		if (menu_input == 0)
		{
			// Display code 
			menu_display_h = ">Model Number   ";
			menu_display_l = " Mixing         ";
    400a:	0f 2e       	mov	r0, r31
    400c:	fa ec       	ldi	r31, 0xCA	; 202
    400e:	2f 2e       	mov	r2, r31
    4010:	f3 e0       	ldi	r31, 0x03	; 3
    4012:	3f 2e       	mov	r3, r31
    4014:	f0 2d       	mov	r31, r0

		////////// Set model number //////////////////////////////////////////////
		if (menu_input == 0)
		{
			// Display code 
			menu_display_h = ">Model Number   ";
    4016:	0b ed       	ldi	r16, 0xDB	; 219
    4018:	13 e0       	ldi	r17, 0x03	; 3
    401a:	6b c0       	rjmp	.+214    	; 0x40f2 <menu+0x259e>
		////////// Mixing setting ////////////////////////////////////////////////
		else if (menu_input == 1)
		{
			// Display code
			menu_display_h = " Model Number   ";
			menu_display_l = ">Mixing         ";
    401c:	0f 2e       	mov	r0, r31
    401e:	f7 e6       	ldi	r31, 0x67	; 103
    4020:	2f 2e       	mov	r2, r31
    4022:	f1 e0       	ldi	r31, 0x01	; 1
    4024:	3f 2e       	mov	r3, r31
    4026:	f0 2d       	mov	r31, r0
		
		////////// Mixing setting ////////////////////////////////////////////////
		else if (menu_input == 1)
		{
			// Display code
			menu_display_h = " Model Number   ";
    4028:	08 e7       	ldi	r16, 0x78	; 120
    402a:	11 e0       	ldi	r17, 0x01	; 1
    402c:	62 c0       	rjmp	.+196    	; 0x40f2 <menu+0x259e>
		////////// Channel Reverse ///////////////////////////////////////////////
		else if (menu_input == 2)
		{
			// Display
			menu_display_h = " Mixing         ";
			menu_display_l = ">Reverse        ";
    402e:	0f 2e       	mov	r0, r31
    4030:	fc ee       	ldi	r31, 0xEC	; 236
    4032:	2f 2e       	mov	r2, r31
    4034:	f3 e0       	ldi	r31, 0x03	; 3
    4036:	3f 2e       	mov	r3, r31
    4038:	f0 2d       	mov	r31, r0
		
		////////// Channel Reverse ///////////////////////////////////////////////
		else if (menu_input == 2)
		{
			// Display
			menu_display_h = " Mixing         ";
    403a:	0a ec       	ldi	r16, 0xCA	; 202
    403c:	13 e0       	ldi	r17, 0x03	; 3
    403e:	59 c0       	rjmp	.+178    	; 0x40f2 <menu+0x259e>
		////////// Dual Rate /////////////////////////////////////////////////////
		else if (menu_input == 3)
		{
			// Display
			menu_display_h = " Reverse        ";
			menu_display_l = ">Dual Rate      ";
    4040:	0f 2e       	mov	r0, r31
    4042:	fd ef       	ldi	r31, 0xFD	; 253
    4044:	2f 2e       	mov	r2, r31
    4046:	f3 e0       	ldi	r31, 0x03	; 3
    4048:	3f 2e       	mov	r3, r31
    404a:	f0 2d       	mov	r31, r0
		
		////////// Dual Rate /////////////////////////////////////////////////////
		else if (menu_input == 3)
		{
			// Display
			menu_display_h = " Reverse        ";
    404c:	0e e0       	ldi	r16, 0x0E	; 14
    404e:	14 e0       	ldi	r17, 0x04	; 4
    4050:	50 c0       	rjmp	.+160    	; 0x40f2 <menu+0x259e>
		////////// Trim //////////////////////////////////////////////////////////
		else if (menu_input == 4)
		{
			// Display
			menu_display_h = " Dual Rate      ";
			menu_display_l = ">Trim           ";
    4052:	0f 2e       	mov	r0, r31
    4054:	ff e1       	ldi	r31, 0x1F	; 31
    4056:	2f 2e       	mov	r2, r31
    4058:	f4 e0       	ldi	r31, 0x04	; 4
    405a:	3f 2e       	mov	r3, r31
    405c:	f0 2d       	mov	r31, r0
		
		////////// Trim //////////////////////////////////////////////////////////
		else if (menu_input == 4)
		{
			// Display
			menu_display_h = " Dual Rate      ";
    405e:	00 e3       	ldi	r16, 0x30	; 48
    4060:	14 e0       	ldi	r17, 0x04	; 4
    4062:	47 c0       	rjmp	.+142    	; 0x40f2 <menu+0x259e>
		////////// Servo delay ///////////////////////////////////////////////////
		else if (menu_input == 5)
		{
			// Display
			menu_display_h = " Trim           ";
			menu_display_l = ">Servo Delay    ";
    4064:	0f 2e       	mov	r0, r31
    4066:	f1 e4       	ldi	r31, 0x41	; 65
    4068:	2f 2e       	mov	r2, r31
    406a:	f4 e0       	ldi	r31, 0x04	; 4
    406c:	3f 2e       	mov	r3, r31
    406e:	f0 2d       	mov	r31, r0
		
		////////// Servo delay ///////////////////////////////////////////////////
		else if (menu_input == 5)
		{
			// Display
			menu_display_h = " Trim           ";
    4070:	02 e5       	ldi	r16, 0x52	; 82
    4072:	14 e0       	ldi	r17, 0x04	; 4
    4074:	3e c0       	rjmp	.+124    	; 0x40f2 <menu+0x259e>
		////////// On board airplane battery charger control /////////////////////
		else if (menu_input == 6)
		{
			// Display
			menu_display_h = " Servo Delay    ";
			menu_display_l = ">Bat Charger    ";
    4076:	0f 2e       	mov	r0, r31
    4078:	f3 e6       	ldi	r31, 0x63	; 99
    407a:	2f 2e       	mov	r2, r31
    407c:	f4 e0       	ldi	r31, 0x04	; 4
    407e:	3f 2e       	mov	r3, r31
    4080:	f0 2d       	mov	r31, r0
		
		////////// On board airplane battery charger control /////////////////////
		else if (menu_input == 6)
		{
			// Display
			menu_display_h = " Servo Delay    ";
    4082:	04 e7       	ldi	r16, 0x74	; 116
    4084:	14 e0       	ldi	r17, 0x04	; 4
    4086:	35 c0       	rjmp	.+106    	; 0x40f2 <menu+0x259e>
		////////// Servo/Actuator tester /////////////////////////////////////////
		else if (menu_input == 7)
		{
			// Display
			menu_display_h = " Bat Charger    ";
			menu_display_l = ">Servo Test     ";
    4088:	0f 2e       	mov	r0, r31
    408a:	f3 e5       	ldi	r31, 0x53	; 83
    408c:	2f 2e       	mov	r2, r31
    408e:	f3 e0       	ldi	r31, 0x03	; 3
    4090:	3f 2e       	mov	r3, r31
    4092:	f0 2d       	mov	r31, r0
		
		////////// Servo/Actuator tester /////////////////////////////////////////
		else if (menu_input == 7)
		{
			// Display
			menu_display_h = " Bat Charger    ";
    4094:	05 e8       	ldi	r16, 0x85	; 133
    4096:	14 e0       	ldi	r17, 0x04	; 4
    4098:	2c c0       	rjmp	.+88     	; 0x40f2 <menu+0x259e>
		////////// Mute //////////////////////////////////////////////////////////
		else if (menu_input == 8)
		{
			// Display
			menu_display_h = " Servo Test     ";
			menu_display_l = ">Speaker Mute   ";
    409a:	0f 2e       	mov	r0, r31
    409c:	f6 e9       	ldi	r31, 0x96	; 150
    409e:	2f 2e       	mov	r2, r31
    40a0:	f4 e0       	ldi	r31, 0x04	; 4
    40a2:	3f 2e       	mov	r3, r31
    40a4:	f0 2d       	mov	r31, r0
		
		////////// Mute //////////////////////////////////////////////////////////
		else if (menu_input == 8)
		{
			// Display
			menu_display_h = " Servo Test     ";
    40a6:	07 ea       	ldi	r16, 0xA7	; 167
    40a8:	14 e0       	ldi	r17, 0x04	; 4
    40aa:	23 c0       	rjmp	.+70     	; 0x40f2 <menu+0x259e>
		////////// Power saving mode time set ////////////////////////////////////
		else if (menu_input == 9)
		{
			// Display
			menu_display_h = " Speaker Mute   ";
			menu_display_l = ">Power off time ";
    40ac:	0f 2e       	mov	r0, r31
    40ae:	f8 eb       	ldi	r31, 0xB8	; 184
    40b0:	2f 2e       	mov	r2, r31
    40b2:	f4 e0       	ldi	r31, 0x04	; 4
    40b4:	3f 2e       	mov	r3, r31
    40b6:	f0 2d       	mov	r31, r0
		
		////////// Power saving mode time set ////////////////////////////////////
		else if (menu_input == 9)
		{
			// Display
			menu_display_h = " Speaker Mute   ";
    40b8:	09 ec       	ldi	r16, 0xC9	; 201
    40ba:	14 e0       	ldi	r17, 0x04	; 4
    40bc:	1a c0       	rjmp	.+52     	; 0x40f2 <menu+0x259e>
		{
			uint8_t mixing_val_3_temp;
			mixing_val_3_temp = (mixing_val_3 & (~RF_MODE_MASK));
			// Display
			menu_display_h = " Power off time ";
			menu_display_l = ">Output mode    ";
    40be:	0f 2e       	mov	r0, r31
    40c0:	fa ed       	ldi	r31, 0xDA	; 218
    40c2:	2f 2e       	mov	r2, r31
    40c4:	f4 e0       	ldi	r31, 0x04	; 4
    40c6:	3f 2e       	mov	r3, r31
    40c8:	f0 2d       	mov	r31, r0
		else if (menu_input == 10)
		{
			uint8_t mixing_val_3_temp;
			mixing_val_3_temp = (mixing_val_3 & (~RF_MODE_MASK));
			// Display
			menu_display_h = " Power off time ";
    40ca:	08 ea       	ldi	r16, 0xA8	; 168
    40cc:	13 e0       	ldi	r17, 0x03	; 3
    40ce:	11 c0       	rjmp	.+34     	; 0x40f2 <menu+0x259e>
		////////// Switch allocation /////////////////////////////////////////////
		else if (menu_input == 11)
		{
			// Display
			menu_display_h = " Output mode    ";
			menu_display_l = ">Switch allocate";
    40d0:	0f 2e       	mov	r0, r31
    40d2:	fb ee       	ldi	r31, 0xEB	; 235
    40d4:	2f 2e       	mov	r2, r31
    40d6:	f4 e0       	ldi	r31, 0x04	; 4
    40d8:	3f 2e       	mov	r3, r31
    40da:	f0 2d       	mov	r31, r0
		
		////////// Switch allocation /////////////////////////////////////////////
		else if (menu_input == 11)
		{
			// Display
			menu_display_h = " Output mode    ";
    40dc:	0c ef       	ldi	r16, 0xFC	; 252
    40de:	14 e0       	ldi	r17, 0x04	; 4
    40e0:	08 c0       	rjmp	.+16     	; 0x40f2 <menu+0x259e>
		////////// Exit //////////////////////////////////////////////////////////
		else if (menu_input == MENU_NUM)
		{
			// Display
			menu_display_h = " Switch allocate";
			menu_display_l = ">Exit           ";
    40e2:	0f 2e       	mov	r0, r31
    40e4:	f2 e2       	ldi	r31, 0x22	; 34
    40e6:	2f 2e       	mov	r2, r31
    40e8:	f2 e0       	ldi	r31, 0x02	; 2
    40ea:	3f 2e       	mov	r3, r31
    40ec:	f0 2d       	mov	r31, r0
		
		////////// Exit //////////////////////////////////////////////////////////
		else if (menu_input == MENU_NUM)
		{
			// Display
			menu_display_h = " Switch allocate";
    40ee:	09 eb       	ldi	r16, 0xB9	; 185
    40f0:	13 e0       	ldi	r17, 0x03	; 3
		} // else if (menu_input == MENU_NUM)
		
		
		////////// Power & Interface /////////////////////////////////////////////
		// Power off
		if (!(PINC & PWRDET) && (power_sw_toggle == OFF))
    40f2:	32 99       	sbic	0x06, 2	; 6
    40f4:	0a c0       	rjmp	.+20     	; 0x410a <menu+0x25b6>
    40f6:	80 91 aa 05 	lds	r24, 0x05AA	; 0x8005aa <power_sw_toggle>
    40fa:	81 11       	cpse	r24, r1
    40fc:	06 c0       	rjmp	.+12     	; 0x410a <menu+0x25b6>
		{
			power_sw_toggle = ON;
    40fe:	81 e0       	ldi	r24, 0x01	; 1
    4100:	80 93 aa 05 	sts	0x05AA, r24	; 0x8005aa <power_sw_toggle>
			timer_8ms_power = 0;
    4104:	10 92 c5 05 	sts	0x05C5, r1	; 0x8005c5 <timer_8ms_power>
    4108:	0f c0       	rjmp	.+30     	; 0x4128 <menu+0x25d4>
		}
		else if ((timer_8ms_power > 125) && (power_sw_toggle == ON))
    410a:	80 91 c5 05 	lds	r24, 0x05C5	; 0x8005c5 <timer_8ms_power>
    410e:	8e 37       	cpi	r24, 0x7E	; 126
    4110:	58 f0       	brcs	.+22     	; 0x4128 <menu+0x25d4>
    4112:	80 91 aa 05 	lds	r24, 0x05AA	; 0x8005aa <power_sw_toggle>
    4116:	81 30       	cpi	r24, 0x01	; 1
    4118:	39 f4       	brne	.+14     	; 0x4128 <menu+0x25d4>
		{
			// Power off only if button is pressed for 1 s
			if (PINC & PWRDET)
    411a:	32 9b       	sbis	0x06, 2	; 6
    411c:	03 c0       	rjmp	.+6      	; 0x4124 <menu+0x25d0>
				power_sw_toggle = OFF;
    411e:	10 92 aa 05 	sts	0x05AA, r1	; 0x8005aa <power_sw_toggle>
    4122:	02 c0       	rjmp	.+4      	; 0x4128 <menu+0x25d4>
			else
				power_off();
    4124:	0e 94 cc 0c 	call	0x1998	; 0x1998 <power_off>
			
		}
		
		// Speaker
		buzzer_switch();
    4128:	0e 94 1b 09 	call	0x1236	; 0x1236 <buzzer_switch>
		
		// LCD
		LCD_home();
    412c:	0e 94 6a 02 	call	0x4d4	; 0x4d4 <LCD_home>
		LCD_string(menu_display_h, 16);
    4130:	60 e1       	ldi	r22, 0x10	; 16
    4132:	c8 01       	movw	r24, r16
    4134:	0e 94 db 01 	call	0x3b6	; 0x3b6 <LCD_string>
		LCD_NWL();
    4138:	0e 94 5c 02 	call	0x4b8	; 0x4b8 <LCD_NWL>
		LCD_string(menu_display_l, 16);
    413c:	60 e1       	ldi	r22, 0x10	; 16
    413e:	c1 01       	movw	r24, r2
    4140:	0e 94 db 01 	call	0x3b6	; 0x3b6 <LCD_string>
		
		
	} // while (1)
    4144:	0c 94 cf 0d 	jmp	0x1b9e	; 0x1b9e <menu+0x4a>
							else
								mixing_val_1 |= REVERSE_ELE;
						}
					}
					else
						menu_display_h[8] = ' ';
    4148:	f8 01       	movw	r30, r16
    414a:	b0 86       	std	Z+8, r11	; 0x08
    414c:	0c 94 55 11 	jmp	0x22aa	; 0x22aa <menu+0x756>
							else
								mixing_val_1 |= REVERSE_RUD;
						}
					}
					else
						menu_display_l[0] = ' ';
    4150:	f1 01       	movw	r30, r2
    4152:	b0 82       	st	Z, r11
    4154:	0c 94 68 11 	jmp	0x22d0	; 0x22d0 <menu+0x77c>
							else
								mixing_val_1 |= REVERSE_CH5;
						}
					}
					else
						menu_display_l[8] = ' ';
    4158:	f1 01       	movw	r30, r2
    415a:	b0 86       	std	Z+8, r11	; 0x08
    415c:	0c 94 77 11 	jmp	0x22ee	; 0x22ee <menu+0x79a>
							else
								mixing_val_2 |= ELE_DR;
						}
					}
					else
						menu_display_h[8] = ' ';
    4160:	f8 01       	movw	r30, r16
    4162:	b0 86       	std	Z+8, r11	; 0x08
    4164:	0c 94 52 12 	jmp	0x24a4	; 0x24a4 <menu+0x950>
							else
								mixing_val_2 |= RUD_DR;
						}
					}
					else
						menu_display_l[0] = ' ';
    4168:	f1 01       	movw	r30, r2
    416a:	b0 82       	st	Z, r11
    416c:	0c 94 65 12 	jmp	0x24ca	; 0x24ca <menu+0x976>
							else
								mixing_val_2 |= CH5_DR;
						}
					}
					else
						menu_display_l[8] = ' ';
    4170:	f1 01       	movw	r30, r2
    4172:	b0 86       	std	Z+8, r11	; 0x08
    4174:	0c 94 74 12 	jmp	0x24e8	; 0x24e8 <menu+0x994>
					
					// Elevator
					if (menu_input == 1)
					{
						// Cursor move
						menu_display_h[8] = '>';
    4178:	8e e3       	ldi	r24, 0x3E	; 62
    417a:	f8 01       	movw	r30, r16
    417c:	80 87       	std	Z+8, r24	; 0x08
    417e:	0c 94 8c 13 	jmp	0x2718	; 0x2718 <menu+0xbc4>
					} //if (menu_input == 0)
					else
						menu_display_h[0] = ' ';
					
					// Elevator
					if (menu_input == 1)
    4182:	90 91 ce 05 	lds	r25, 0x05CE	; 0x8005ce <menu_input>
    4186:	91 30       	cpi	r25, 0x01	; 1
    4188:	79 f4       	brne	.+30     	; 0x41a8 <menu+0x2654>
    418a:	f6 cf       	rjmp	.-20     	; 0x4178 <menu+0x2624>
						{
							mixing_val_3 = NRF|mixing_val_3_temp;
						}
					}
					else
						menu_display_h[8] = ' ';
    418c:	f8 01       	movw	r30, r16
    418e:	b0 86       	std	Z+8, r11	; 0x08
    4190:	a5 c8       	rjmp	.-3766   	; 0x32dc <menu+0x1788>
						{
							mixing_val_3 = UART|mixing_val_3_temp;
						}
					}
					else
						menu_display_l[0] = ' ';
    4192:	f1 01       	movw	r30, r2
    4194:	b0 82       	st	Z, r11
    4196:	ad c8       	rjmp	.-3750   	; 0x32f2 <menu+0x179e>
						{
							mixing_val_3 = BLE|mixing_val_3_temp;
						}
					}
					else
						menu_display_l[8] = ' ';
    4198:	f1 01       	movw	r30, r2
    419a:	b0 86       	std	Z+8, r11	; 0x08
    419c:	b8 c8       	rjmp	.-3728   	; 0x330e <menu+0x17ba>
					
					// Throttle
					if (menu_input == 2)
					{
						// Cursor move
						menu_display_l[0] = '>';
    419e:	8e e3       	ldi	r24, 0x3E	; 62
    41a0:	f1 01       	movw	r30, r2
    41a2:	80 83       	st	Z, r24
    41a4:	0c 94 d6 13 	jmp	0x27ac	; 0x27ac <menu+0xc58>
							} //while (1)
							
						} //if(enter)
					}
					else
						menu_display_h[8] = ' ';
    41a8:	f8 01       	movw	r30, r16
    41aa:	b0 86       	std	Z+8, r11	; 0x08
					
					// Throttle
					if (menu_input == 2)
    41ac:	90 91 ce 05 	lds	r25, 0x05CE	; 0x8005ce <menu_input>
    41b0:	92 30       	cpi	r25, 0x02	; 2
    41b2:	11 f0       	breq	.+4      	; 0x41b8 <menu+0x2664>
    41b4:	0c 94 15 14 	jmp	0x282a	; 0x282a <menu+0xcd6>
    41b8:	f2 cf       	rjmp	.-28     	; 0x419e <menu+0x264a>
					{
						// Cursor move
						menu_display_l[0] = '>';
    41ba:	9e e3       	ldi	r25, 0x3E	; 62
    41bc:	f1 01       	movw	r30, r2
    41be:	90 83       	st	Z, r25
    41c0:	0c 94 60 14 	jmp	0x28c0	; 0x28c0 <menu+0xd6c>
							} //while (1)
							
						} //if(enter)
					}
					else
						menu_display_h[8] = ' ';
    41c4:	f8 01       	movw	r30, r16
    41c6:	b0 86       	std	Z+8, r11	; 0x08
					
					// Throttle
					if (menu_input == 2)
    41c8:	90 91 ce 05 	lds	r25, 0x05CE	; 0x8005ce <menu_input>
    41cc:	92 30       	cpi	r25, 0x02	; 2
    41ce:	11 f0       	breq	.+4      	; 0x41d4 <menu+0x2680>
    41d0:	0c 94 15 14 	jmp	0x282a	; 0x282a <menu+0xcd6>
    41d4:	f2 cf       	rjmp	.-28     	; 0x41ba <menu+0x2666>
				uint8_t addr_temp;
				
				// Save settings
				addr_temp = cur_model * 15 + 1;
				
				eeprom_update_byte((uint8_t*)addr_temp,       trim[AILERON]);
    41d6:	80 91 cf 05 	lds	r24, 0x05CF	; 0x8005cf <cur_model>
    41da:	f8 2f       	mov	r31, r24
    41dc:	ff 0f       	add	r31, r31
    41de:	f8 0f       	add	r31, r24
    41e0:	8f 2f       	mov	r24, r31
    41e2:	88 0f       	add	r24, r24
    41e4:	88 0f       	add	r24, r24
    41e6:	f8 0f       	add	r31, r24
    41e8:	ff 5f       	subi	r31, 0xFF	; 255
    41ea:	2f 2f       	mov	r18, r31
    41ec:	30 e0       	ldi	r19, 0x00	; 0
    41ee:	3a 83       	std	Y+2, r19	; 0x02
    41f0:	29 83       	std	Y+1, r18	; 0x01
    41f2:	07 eb       	ldi	r16, 0xB7	; 183
    41f4:	15 e0       	ldi	r17, 0x05	; 5
    41f6:	f8 01       	movw	r30, r16
    41f8:	60 81       	ld	r22, Z
    41fa:	c9 01       	movw	r24, r18
    41fc:	0e 94 2e 28 	call	0x505c	; 0x505c <eeprom_update_byte>
				eeprom_update_byte((uint8_t*)(addr_temp + 1), trim[ELEVATOR]);
    4200:	f8 01       	movw	r30, r16
    4202:	61 81       	ldd	r22, Z+1	; 0x01
    4204:	89 81       	ldd	r24, Y+1	; 0x01
    4206:	9a 81       	ldd	r25, Y+2	; 0x02
    4208:	01 96       	adiw	r24, 0x01	; 1
    420a:	0e 94 2e 28 	call	0x505c	; 0x505c <eeprom_update_byte>
				eeprom_update_byte((uint8_t*)(addr_temp + 2), trim[RUDDER]);
    420e:	f8 01       	movw	r30, r16
    4210:	63 81       	ldd	r22, Z+3	; 0x03
    4212:	89 81       	ldd	r24, Y+1	; 0x01
    4214:	9a 81       	ldd	r25, Y+2	; 0x02
    4216:	02 96       	adiw	r24, 0x02	; 2
    4218:	0e 94 2e 28 	call	0x505c	; 0x505c <eeprom_update_byte>
				eeprom_update_byte((uint8_t*)(addr_temp + 3), trim[CH5]);
    421c:	f8 01       	movw	r30, r16
    421e:	64 81       	ldd	r22, Z+4	; 0x04
    4220:	89 81       	ldd	r24, Y+1	; 0x01
    4222:	9a 81       	ldd	r25, Y+2	; 0x02
    4224:	03 96       	adiw	r24, 0x03	; 3
    4226:	0e 94 2e 28 	call	0x505c	; 0x505c <eeprom_update_byte>
				
				eeprom_update_byte((uint8_t*)(addr_temp + 4), mixing_val_1);
    422a:	60 91 db 05 	lds	r22, 0x05DB	; 0x8005db <mixing_val_1>
    422e:	89 81       	ldd	r24, Y+1	; 0x01
    4230:	9a 81       	ldd	r25, Y+2	; 0x02
    4232:	04 96       	adiw	r24, 0x04	; 4
    4234:	0e 94 2e 28 	call	0x505c	; 0x505c <eeprom_update_byte>
				eeprom_update_byte((uint8_t*)(addr_temp + 5), mixing_val_2);
    4238:	60 91 cd 05 	lds	r22, 0x05CD	; 0x8005cd <mixing_val_2>
    423c:	89 81       	ldd	r24, Y+1	; 0x01
    423e:	9a 81       	ldd	r25, Y+2	; 0x02
    4240:	05 96       	adiw	r24, 0x05	; 5
    4242:	0e 94 2e 28 	call	0x505c	; 0x505c <eeprom_update_byte>
				eeprom_update_byte((uint8_t*)(addr_temp + 6), mixing_val_3);
    4246:	60 91 d6 05 	lds	r22, 0x05D6	; 0x8005d6 <mixing_val_3>
    424a:	89 81       	ldd	r24, Y+1	; 0x01
    424c:	9a 81       	ldd	r25, Y+2	; 0x02
    424e:	06 96       	adiw	r24, 0x06	; 6
    4250:	0e 94 2e 28 	call	0x505c	; 0x505c <eeprom_update_byte>
				
				eeprom_update_byte((uint8_t*)(addr_temp + 7),  sw[0]);
    4254:	0d ed       	ldi	r16, 0xDD	; 221
    4256:	15 e0       	ldi	r17, 0x05	; 5
    4258:	f8 01       	movw	r30, r16
    425a:	60 81       	ld	r22, Z
    425c:	89 81       	ldd	r24, Y+1	; 0x01
    425e:	9a 81       	ldd	r25, Y+2	; 0x02
    4260:	07 96       	adiw	r24, 0x07	; 7
    4262:	0e 94 2e 28 	call	0x505c	; 0x505c <eeprom_update_byte>
				eeprom_update_byte((uint8_t*)(addr_temp + 8),  sw[1]);
    4266:	f8 01       	movw	r30, r16
    4268:	61 81       	ldd	r22, Z+1	; 0x01
    426a:	89 81       	ldd	r24, Y+1	; 0x01
    426c:	9a 81       	ldd	r25, Y+2	; 0x02
    426e:	08 96       	adiw	r24, 0x08	; 8
    4270:	0e 94 2e 28 	call	0x505c	; 0x505c <eeprom_update_byte>
				eeprom_update_byte((uint8_t*)(addr_temp + 9),  sw[2]);
    4274:	f8 01       	movw	r30, r16
    4276:	62 81       	ldd	r22, Z+2	; 0x02
    4278:	89 81       	ldd	r24, Y+1	; 0x01
    427a:	9a 81       	ldd	r25, Y+2	; 0x02
    427c:	09 96       	adiw	r24, 0x09	; 9
    427e:	0e 94 2e 28 	call	0x505c	; 0x505c <eeprom_update_byte>
				eeprom_update_byte((uint8_t*)(addr_temp + 10), sw[3]);
    4282:	f8 01       	movw	r30, r16
    4284:	63 81       	ldd	r22, Z+3	; 0x03
    4286:	89 81       	ldd	r24, Y+1	; 0x01
    4288:	9a 81       	ldd	r25, Y+2	; 0x02
    428a:	0a 96       	adiw	r24, 0x0a	; 10
    428c:	0e 94 2e 28 	call	0x505c	; 0x505c <eeprom_update_byte>
				eeprom_update_byte((uint8_t*)(addr_temp + 11), sw[4]);
    4290:	f8 01       	movw	r30, r16
    4292:	64 81       	ldd	r22, Z+4	; 0x04
    4294:	89 81       	ldd	r24, Y+1	; 0x01
    4296:	9a 81       	ldd	r25, Y+2	; 0x02
    4298:	0b 96       	adiw	r24, 0x0b	; 11
    429a:	0e 94 2e 28 	call	0x505c	; 0x505c <eeprom_update_byte>
				eeprom_update_byte((uint8_t*)(addr_temp + 12), sw[5]);
    429e:	f8 01       	movw	r30, r16
    42a0:	65 81       	ldd	r22, Z+5	; 0x05
    42a2:	89 81       	ldd	r24, Y+1	; 0x01
    42a4:	9a 81       	ldd	r25, Y+2	; 0x02
    42a6:	0c 96       	adiw	r24, 0x0c	; 12
    42a8:	0e 94 2e 28 	call	0x505c	; 0x505c <eeprom_update_byte>
				eeprom_update_byte((uint8_t*)(addr_temp + 13), sw[6]);
    42ac:	f8 01       	movw	r30, r16
    42ae:	66 81       	ldd	r22, Z+6	; 0x06
    42b0:	89 81       	ldd	r24, Y+1	; 0x01
    42b2:	9a 81       	ldd	r25, Y+2	; 0x02
    42b4:	0d 96       	adiw	r24, 0x0d	; 13
    42b6:	0e 94 2e 28 	call	0x505c	; 0x505c <eeprom_update_byte>
				eeprom_update_byte((uint8_t*)(addr_temp + 14), sw[7]);
    42ba:	f8 01       	movw	r30, r16
    42bc:	67 81       	ldd	r22, Z+7	; 0x07
    42be:	89 81       	ldd	r24, Y+1	; 0x01
    42c0:	9a 81       	ldd	r25, Y+2	; 0x02
    42c2:	0e 96       	adiw	r24, 0x0e	; 14
    42c4:	0e 94 2e 28 	call	0x505c	; 0x505c <eeprom_update_byte>
				
				eeprom_update_byte((uint8_t*)121, cur_model);
    42c8:	60 91 cf 05 	lds	r22, 0x05CF	; 0x8005cf <cur_model>
    42cc:	89 e7       	ldi	r24, 0x79	; 121
    42ce:	90 e0       	ldi	r25, 0x00	; 0
    42d0:	0e 94 2e 28 	call	0x505c	; 0x505c <eeprom_update_byte>
				eeprom_update_byte((uint8_t*)122, buzzer_volume);
    42d4:	60 91 da 05 	lds	r22, 0x05DA	; 0x8005da <buzzer_volume>
    42d8:	8a e7       	ldi	r24, 0x7A	; 122
    42da:	90 e0       	ldi	r25, 0x00	; 0
    42dc:	0e 94 2e 28 	call	0x505c	; 0x505c <eeprom_update_byte>
				eeprom_update_word((uint16_t*)123, runtime_set);
    42e0:	60 91 d0 05 	lds	r22, 0x05D0	; 0x8005d0 <runtime_set>
    42e4:	70 91 d1 05 	lds	r23, 0x05D1	; 0x8005d1 <runtime_set+0x1>
    42e8:	8b e7       	ldi	r24, 0x7B	; 123
    42ea:	90 e0       	ldi	r25, 0x00	; 0
    42ec:	0e 94 40 28 	call	0x5080	; 0x5080 <eeprom_update_word>
				
				menu_input = 0;
    42f0:	10 92 ce 05 	sts	0x05CE, r1	; 0x8005ce <menu_input>
		LCD_NWL();
		LCD_string(menu_display_l, 16);
		
		
	} // while (1)
} // void menu()
    42f4:	80 e0       	ldi	r24, 0x00	; 0
    42f6:	26 96       	adiw	r28, 0x06	; 6
    42f8:	0f b6       	in	r0, 0x3f	; 63
    42fa:	f8 94       	cli
    42fc:	de bf       	out	0x3e, r29	; 62
    42fe:	0f be       	out	0x3f, r0	; 63
    4300:	cd bf       	out	0x3d, r28	; 61
    4302:	df 91       	pop	r29
    4304:	cf 91       	pop	r28
    4306:	1f 91       	pop	r17
    4308:	0f 91       	pop	r16
    430a:	ff 90       	pop	r15
    430c:	ef 90       	pop	r14
    430e:	df 90       	pop	r13
    4310:	cf 90       	pop	r12
    4312:	bf 90       	pop	r11
    4314:	af 90       	pop	r10
    4316:	9f 90       	pop	r9
    4318:	8f 90       	pop	r8
    431a:	7f 90       	pop	r7
    431c:	6f 90       	pop	r6
    431e:	5f 90       	pop	r5
    4320:	4f 90       	pop	r4
    4322:	3f 90       	pop	r3
    4324:	2f 90       	pop	r2
    4326:	08 95       	ret

00004328 <main>:
/****************************************************/
/*     Main											*/
/*													*/
/****************************************************/
int main(void)
{
    4328:	cf 93       	push	r28
    432a:	df 93       	push	r29
    432c:	00 d0       	rcall	.+0      	; 0x432e <main+0x6>
    432e:	00 d0       	rcall	.+0      	; 0x4330 <main+0x8>
    4330:	cd b7       	in	r28, 0x3d	; 61
    4332:	de b7       	in	r29, 0x3e	; 62
	////////// Read EEPROM Setting Data //////////////////////////////////////
	model_sel();
    4334:	0e 94 04 03 	call	0x608	; 0x608 <model_sel>
	
	
	////////// Initialize ////////////////////////////////////////////////////
	init();
    4338:	0e 94 df 02 	call	0x5be	; 0x5be <init>
	
	LCD_init();
    433c:	0e 94 f4 01 	call	0x3e8	; 0x3e8 <LCD_init>
	LCD_custom_character(lcd_guage0, 0);
    4340:	60 e0       	ldi	r22, 0x00	; 0
    4342:	88 e3       	ldi	r24, 0x38	; 56
    4344:	91 e0       	ldi	r25, 0x01	; 1
    4346:	0e 94 74 02 	call	0x4e8	; 0x4e8 <LCD_custom_character>
	LCD_custom_character(lcd_guage1, 1);
    434a:	61 e0       	ldi	r22, 0x01	; 1
    434c:	80 e3       	ldi	r24, 0x30	; 48
    434e:	91 e0       	ldi	r25, 0x01	; 1
    4350:	0e 94 74 02 	call	0x4e8	; 0x4e8 <LCD_custom_character>
	LCD_custom_character(lcd_guage2, 2);
    4354:	62 e0       	ldi	r22, 0x02	; 2
    4356:	88 e2       	ldi	r24, 0x28	; 40
    4358:	91 e0       	ldi	r25, 0x01	; 1
    435a:	0e 94 74 02 	call	0x4e8	; 0x4e8 <LCD_custom_character>
	LCD_custom_character(lcd_guage3, 3);
    435e:	63 e0       	ldi	r22, 0x03	; 3
    4360:	80 e2       	ldi	r24, 0x20	; 32
    4362:	91 e0       	ldi	r25, 0x01	; 1
    4364:	0e 94 74 02 	call	0x4e8	; 0x4e8 <LCD_custom_character>
	LCD_custom_character(lcd_guage4, 4);
    4368:	64 e0       	ldi	r22, 0x04	; 4
    436a:	88 e1       	ldi	r24, 0x18	; 24
    436c:	91 e0       	ldi	r25, 0x01	; 1
    436e:	0e 94 74 02 	call	0x4e8	; 0x4e8 <LCD_custom_character>
	LCD_custom_character(lcd_guage5, 5);
    4372:	65 e0       	ldi	r22, 0x05	; 5
    4374:	80 e1       	ldi	r24, 0x10	; 16
    4376:	91 e0       	ldi	r25, 0x01	; 1
    4378:	0e 94 74 02 	call	0x4e8	; 0x4e8 <LCD_custom_character>
	LCD_custom_character(lcd_guage6, 6);
    437c:	66 e0       	ldi	r22, 0x06	; 6
    437e:	88 e0       	ldi	r24, 0x08	; 8
    4380:	91 e0       	ldi	r25, 0x01	; 1
    4382:	0e 94 74 02 	call	0x4e8	; 0x4e8 <LCD_custom_character>
	LCD_custom_character(lcd_guage7, 7);
    4386:	67 e0       	ldi	r22, 0x07	; 7
    4388:	80 e0       	ldi	r24, 0x00	; 0
    438a:	91 e0       	ldi	r25, 0x01	; 1
    438c:	0e 94 74 02 	call	0x4e8	; 0x4e8 <LCD_custom_character>
	
	UART_init(BAUD_14k, TXRX);
    4390:	63 e0       	ldi	r22, 0x03	; 3
    4392:	82 e0       	ldi	r24, 0x02	; 2
    4394:	0e 94 4b 25 	call	0x4a96	; 0x4a96 <UART_init>
	
	sei();
    4398:	78 94       	sei
	
	
	////////// Power On //////////////////////////////////////////////////////
	// Turn Transmitter on if button is pressed for 0.5 s
	LCD_home();
    439a:	0e 94 6a 02 	call	0x4d4	; 0x4d4 <LCD_home>
	LCD_string("    PATA TX     ", 16);
    439e:	60 e1       	ldi	r22, 0x10	; 16
    43a0:	8e e1       	ldi	r24, 0x1E	; 30
    43a2:	95 e0       	ldi	r25, 0x05	; 5
    43a4:	0e 94 db 01 	call	0x3b6	; 0x3b6 <LCD_string>
	LCD_NWL();
    43a8:	0e 94 5c 02 	call	0x4b8	; 0x4b8 <LCD_NWL>
    43ac:	20 e1       	ldi	r18, 0x10	; 16
    43ae:	29 83       	std	Y+1, r18	; 0x01
	for (uint8_t i = 0; i < 16; i++)
	{
		LCD_write(0xFF);
    43b0:	8f ef       	ldi	r24, 0xFF	; 255
    43b2:	0e 94 ac 01 	call	0x358	; 0x358 <LCD_write>
    43b6:	8f e2       	ldi	r24, 0x2F	; 47
    43b8:	92 ef       	ldi	r25, 0xF2	; 242
    43ba:	01 97       	sbiw	r24, 0x01	; 1
    43bc:	f1 f7       	brne	.-4      	; 0x43ba <main+0x92>
    43be:	00 c0       	rjmp	.+0      	; 0x43c0 <main+0x98>
    43c0:	00 00       	nop
		_delay_ms(31);
		
		if (PINC & PWRDET)
    43c2:	32 99       	sbic	0x06, 2	; 6
			power_off();
    43c4:	0e 94 cc 0c 	call	0x1998	; 0x1998 <power_off>
    43c8:	99 81       	ldd	r25, Y+1	; 0x01
    43ca:	91 50       	subi	r25, 0x01	; 1
    43cc:	99 83       	std	Y+1, r25	; 0x01
	////////// Power On //////////////////////////////////////////////////////
	// Turn Transmitter on if button is pressed for 0.5 s
	LCD_home();
	LCD_string("    PATA TX     ", 16);
	LCD_NWL();
	for (uint8_t i = 0; i < 16; i++)
    43ce:	91 11       	cpse	r25, r1
    43d0:	ef cf       	rjmp	.-34     	; 0x43b0 <main+0x88>
		_delay_ms(31);
		
		if (PINC & PWRDET)
			power_off();
	}
	power_sw_toggle = STBY;
    43d2:	82 e0       	ldi	r24, 0x02	; 2
    43d4:	80 93 aa 05 	sts	0x05AA, r24	; 0x8005aa <power_sw_toggle>
	PORTD |= PWRTOGL;
    43d8:	5c 9a       	sbi	0x0b, 4	; 11
	LCD_CLEAR();
    43da:	0e 94 60 02 	call	0x4c0	; 0x4c0 <LCD_CLEAR>
	////////// Throttle Safety Check//////////////////////////////////////////
	// If Throttle is not 0 (>5), do not boot the transmitter
	while (1)
	{
		stick_read();
		if (channel[THROTTLE] < THROTTLE_MIN)
    43de:	0c eb       	ldi	r16, 0xBC	; 188
    43e0:	15 e0       	ldi	r17, 0x05	; 5
		else
		{
			LCD_string(" THROTTLE HIGH! ", 16);
			LCD_NWL();
			LCD_string(" MENU TO IGNORE ", 16);
			buzzer_freq = 1000;
    43e2:	0f 2e       	mov	r0, r31
    43e4:	f8 ee       	ldi	r31, 0xE8	; 232
    43e6:	ef 2e       	mov	r14, r31
    43e8:	f3 e0       	ldi	r31, 0x03	; 3
    43ea:	ff 2e       	mov	r15, r31
    43ec:	f0 2d       	mov	r31, r0
			buzzer_setting[PERIOD] = 50;
    43ee:	0f 2e       	mov	r0, r31
    43f0:	f2 e3       	ldi	r31, 0x32	; 50
    43f2:	df 2e       	mov	r13, r31
    43f4:	f0 2d       	mov	r31, r0
			power_sw_toggle = OFF;
			
		// Power off
		if (!(PINC & PWRDET) && (power_sw_toggle == OFF))
		{
			power_sw_toggle = ON;
    43f6:	cc 24       	eor	r12, r12
    43f8:	c3 94       	inc	r12
	
	////////// Throttle Safety Check//////////////////////////////////////////
	// If Throttle is not 0 (>5), do not boot the transmitter
	while (1)
	{
		stick_read();
    43fa:	0e 94 e8 03 	call	0x7d0	; 0x7d0 <stick_read>
		if (channel[THROTTLE] < THROTTLE_MIN)
    43fe:	f8 01       	movw	r30, r16
    4400:	82 81       	ldd	r24, Z+2	; 0x02
    4402:	82 33       	cpi	r24, 0x32	; 50
    4404:	20 f4       	brcc	.+8      	; 0x440e <main+0xe6>
		{
			power_sw_toggle = STBY;
    4406:	82 e0       	ldi	r24, 0x02	; 2
    4408:	80 93 aa 05 	sts	0x05AA, r24	; 0x8005aa <power_sw_toggle>
			break;
    440c:	47 c0       	rjmp	.+142    	; 0x449c <main+0x174>
		}
		else
		{
			LCD_string(" THROTTLE HIGH! ", 16);
    440e:	60 e1       	ldi	r22, 0x10	; 16
    4410:	8f e2       	ldi	r24, 0x2F	; 47
    4412:	95 e0       	ldi	r25, 0x05	; 5
    4414:	0e 94 db 01 	call	0x3b6	; 0x3b6 <LCD_string>
			LCD_NWL();
    4418:	0e 94 5c 02 	call	0x4b8	; 0x4b8 <LCD_NWL>
			LCD_string(" MENU TO IGNORE ", 16);
    441c:	60 e1       	ldi	r22, 0x10	; 16
    441e:	80 e4       	ldi	r24, 0x40	; 64
    4420:	95 e0       	ldi	r25, 0x05	; 5
    4422:	0e 94 db 01 	call	0x3b6	; 0x3b6 <LCD_string>
			buzzer_freq = 1000;
    4426:	f0 92 e6 05 	sts	0x05E6, r15	; 0x8005e6 <buzzer_freq+0x1>
    442a:	e0 92 e5 05 	sts	0x05E5, r14	; 0x8005e5 <buzzer_freq>
			buzzer_setting[PERIOD] = 50;
    442e:	eb ea       	ldi	r30, 0xAB	; 171
    4430:	f5 e0       	ldi	r31, 0x05	; 5
    4432:	d0 82       	st	Z, r13
			buzzer_setting[SETTING] |= BUZZER_SET;
    4434:	80 91 ac 05 	lds	r24, 0x05AC	; 0x8005ac <buzzer_setting+0x1>
    4438:	88 60       	ori	r24, 0x08	; 8
    443a:	80 93 ac 05 	sts	0x05AC, r24	; 0x8005ac <buzzer_setting+0x1>
			
		}
		// If menu buttons are pressed, ignore throttle lock
		if (menu_read())
    443e:	0e 94 fd 05 	call	0xbfa	; 0xbfa <menu_read>
    4442:	88 23       	and	r24, r24
    4444:	21 f0       	breq	.+8      	; 0x444e <main+0x126>
		{
			power_sw_toggle = STBY;
    4446:	82 e0       	ldi	r24, 0x02	; 2
    4448:	80 93 aa 05 	sts	0x05AA, r24	; 0x8005aa <power_sw_toggle>
			break;
    444c:	27 c0       	rjmp	.+78     	; 0x449c <main+0x174>
		}		
		
		////////// Power Off//////////////////////////////////////////////////////
		// Button release detect
		// Without this, transmitter would be turned on and turned off immediately
		if ((power_sw_toggle == STBY) && (PINC & PWRDET))
    444e:	80 91 aa 05 	lds	r24, 0x05AA	; 0x8005aa <power_sw_toggle>
    4452:	82 30       	cpi	r24, 0x02	; 2
    4454:	39 f4       	brne	.+14     	; 0x4464 <main+0x13c>
    4456:	32 9b       	sbis	0x06, 2	; 6
    4458:	e5 c2       	rjmp	.+1482   	; 0x4a24 <main+0x6fc>
			power_sw_toggle = OFF;
    445a:	10 92 aa 05 	sts	0x05AA, r1	; 0x8005aa <power_sw_toggle>
			
		// Power off
		if (!(PINC & PWRDET) && (power_sw_toggle == OFF))
    445e:	32 9b       	sbis	0x06, 2	; 6
    4460:	05 c0       	rjmp	.+10     	; 0x446c <main+0x144>
    4462:	e4 c2       	rjmp	.+1480   	; 0x4a2c <main+0x704>
    4464:	32 99       	sbic	0x06, 2	; 6
    4466:	07 c0       	rjmp	.+14     	; 0x4476 <main+0x14e>
    4468:	81 11       	cpse	r24, r1
    446a:	05 c0       	rjmp	.+10     	; 0x4476 <main+0x14e>
		{
			power_sw_toggle = ON;
    446c:	c0 92 aa 05 	sts	0x05AA, r12	; 0x8005aa <power_sw_toggle>
			timer_8ms_power = 0;
    4470:	10 92 c5 05 	sts	0x05C5, r1	; 0x8005c5 <timer_8ms_power>
    4474:	0f c0       	rjmp	.+30     	; 0x4494 <main+0x16c>
		}
		else if ((timer_8ms_power > 125) && (power_sw_toggle == ON))
    4476:	80 91 c5 05 	lds	r24, 0x05C5	; 0x8005c5 <timer_8ms_power>
    447a:	8e 37       	cpi	r24, 0x7E	; 126
    447c:	58 f0       	brcs	.+22     	; 0x4494 <main+0x16c>
    447e:	80 91 aa 05 	lds	r24, 0x05AA	; 0x8005aa <power_sw_toggle>
    4482:	81 30       	cpi	r24, 0x01	; 1
    4484:	39 f4       	brne	.+14     	; 0x4494 <main+0x16c>
		{
			// Power off only if button is pressed for 1 s
			if (PINC & PWRDET)
    4486:	32 9b       	sbis	0x06, 2	; 6
    4488:	03 c0       	rjmp	.+6      	; 0x4490 <main+0x168>
				power_sw_toggle = OFF;
    448a:	10 92 aa 05 	sts	0x05AA, r1	; 0x8005aa <power_sw_toggle>
    448e:	02 c0       	rjmp	.+4      	; 0x4494 <main+0x16c>
			else
				power_off();
    4490:	0e 94 cc 0c 	call	0x1998	; 0x1998 <power_off>
			
		}
		
		buzzer_switch();
    4494:	0e 94 1b 09 	call	0x1236	; 0x1236 <buzzer_switch>
		PORTD |= PWRTOGL;
    4498:	5c 9a       	sbi	0x0b, 4	; 11
		
	} // while (1)
    449a:	af cf       	rjmp	.-162    	; 0x43fa <main+0xd2>
	
	
	////////// Booting Music /////////////////////////////////////////////////
	buzzer(0);
    449c:	80 e0       	ldi	r24, 0x00	; 0
    449e:	90 e0       	ldi	r25, 0x00	; 0
    44a0:	0e 94 f3 08 	call	0x11e6	; 0x11e6 <buzzer>
    44a4:	ff ef       	ldi	r31, 0xFF	; 255
    44a6:	20 e7       	ldi	r18, 0x70	; 112
    44a8:	82 e0       	ldi	r24, 0x02	; 2
    44aa:	f1 50       	subi	r31, 0x01	; 1
    44ac:	20 40       	sbci	r18, 0x00	; 0
    44ae:	80 40       	sbci	r24, 0x00	; 0
    44b0:	e1 f7       	brne	.-8      	; 0x44aa <main+0x182>
    44b2:	00 c0       	rjmp	.+0      	; 0x44b4 <main+0x18c>
    44b4:	00 00       	nop
	_delay_ms(100);
	buzzer(1000);
    44b6:	88 ee       	ldi	r24, 0xE8	; 232
    44b8:	93 e0       	ldi	r25, 0x03	; 3
    44ba:	0e 94 f3 08 	call	0x11e6	; 0x11e6 <buzzer>
    44be:	9f ef       	ldi	r25, 0xFF	; 255
    44c0:	e0 e7       	ldi	r30, 0x70	; 112
    44c2:	f2 e0       	ldi	r31, 0x02	; 2
    44c4:	91 50       	subi	r25, 0x01	; 1
    44c6:	e0 40       	sbci	r30, 0x00	; 0
    44c8:	f0 40       	sbci	r31, 0x00	; 0
    44ca:	e1 f7       	brne	.-8      	; 0x44c4 <main+0x19c>
    44cc:	00 c0       	rjmp	.+0      	; 0x44ce <main+0x1a6>
    44ce:	00 00       	nop
	_delay_ms(100);
	buzzer(0);
    44d0:	80 e0       	ldi	r24, 0x00	; 0
    44d2:	90 e0       	ldi	r25, 0x00	; 0
    44d4:	0e 94 f3 08 	call	0x11e6	; 0x11e6 <buzzer>
    44d8:	2f e7       	ldi	r18, 0x7F	; 127
    44da:	88 e3       	ldi	r24, 0x38	; 56
    44dc:	91 e0       	ldi	r25, 0x01	; 1
    44de:	21 50       	subi	r18, 0x01	; 1
    44e0:	80 40       	sbci	r24, 0x00	; 0
    44e2:	90 40       	sbci	r25, 0x00	; 0
    44e4:	e1 f7       	brne	.-8      	; 0x44de <main+0x1b6>
    44e6:	00 c0       	rjmp	.+0      	; 0x44e8 <main+0x1c0>
    44e8:	00 00       	nop
	_delay_ms(50);
	buzzer(1000);
    44ea:	88 ee       	ldi	r24, 0xE8	; 232
    44ec:	93 e0       	ldi	r25, 0x03	; 3
    44ee:	0e 94 f3 08 	call	0x11e6	; 0x11e6 <buzzer>
    44f2:	ef ef       	ldi	r30, 0xFF	; 255
    44f4:	f0 e7       	ldi	r31, 0x70	; 112
    44f6:	22 e0       	ldi	r18, 0x02	; 2
    44f8:	e1 50       	subi	r30, 0x01	; 1
    44fa:	f0 40       	sbci	r31, 0x00	; 0
    44fc:	20 40       	sbci	r18, 0x00	; 0
    44fe:	e1 f7       	brne	.-8      	; 0x44f8 <main+0x1d0>
    4500:	00 c0       	rjmp	.+0      	; 0x4502 <main+0x1da>
    4502:	00 00       	nop
	_delay_ms(100);
	buzzer(0);
    4504:	80 e0       	ldi	r24, 0x00	; 0
    4506:	90 e0       	ldi	r25, 0x00	; 0
    4508:	0e 94 f3 08 	call	0x11e6	; 0x11e6 <buzzer>
	
	
	// TX battery check
	//TX_Bat_est = transmitter_bat_chk();
	TX_Bat_est = transmitter_bat_chk();
    450c:	0e 94 8b 06 	call	0xd16	; 0xd16 <transmitter_bat_chk>
    4510:	68 2f       	mov	r22, r24
    4512:	70 e0       	ldi	r23, 0x00	; 0
    4514:	80 e0       	ldi	r24, 0x00	; 0
    4516:	90 e0       	ldi	r25, 0x00	; 0
    4518:	0e 94 ba 26 	call	0x4d74	; 0x4d74 <__floatunsisf>
    451c:	60 93 d2 05 	sts	0x05D2, r22	; 0x8005d2 <TX_Bat_est>
    4520:	70 93 d3 05 	sts	0x05D3, r23	; 0x8005d3 <TX_Bat_est+0x1>
    4524:	80 93 d4 05 	sts	0x05D4, r24	; 0x8005d4 <TX_Bat_est+0x2>
    4528:	90 93 d5 05 	sts	0x05D5, r25	; 0x8005d5 <TX_Bat_est+0x3>
	
	// Main loop
	LCD_CLEAR();
    452c:	0e 94 60 02 	call	0x4c0	; 0x4c0 <LCD_CLEAR>
			{
				battery_alarm &= ~ALARM_TOGL;
				
				// buzzer setting
				buzzer_freq = 2000;
				buzzer_setting[PERIOD] = 50;
    4530:	0f 2e       	mov	r0, r31
    4532:	fb ea       	ldi	r31, 0xAB	; 171
    4534:	4f 2e       	mov	r4, r31
    4536:	f5 e0       	ldi	r31, 0x05	; 5
    4538:	5f 2e       	mov	r5, r31
    453a:	f0 2d       	mov	r31, r0
		////////// LCD ///////////////////////////////////////////////////////////
		// Main Page //////////////////////
		if (menu_input == 0)
		{
			lcd1 = "MODELX  X  X.XXV";
			lcd2 = "A   E   R       ";
    453c:	0f 2e       	mov	r0, r31
    453e:	f2 e6       	ldi	r31, 0x62	; 98
    4540:	6f 2e       	mov	r6, r31
    4542:	f5 e0       	ldi	r31, 0x05	; 5
    4544:	7f 2e       	mov	r7, r31
    4546:	f0 2d       	mov	r31, r0
			
			// TX battery voltage - calculate each digit
			uint8_t temp_TX_Bat_est;
			temp_TX_Bat_est = (uint8_t)TX_Bat_est;
			
			lcd_bat[0] = (5*temp_TX_Bat_est)>>8;
    4548:	0f 2e       	mov	r0, r31
    454a:	f7 ed       	ldi	r31, 0xD7	; 215
    454c:	cf 2e       	mov	r12, r31
    454e:	f5 e0       	ldi	r31, 0x05	; 5
    4550:	df 2e       	mov	r13, r31
    4552:	f0 2d       	mov	r31, r0
			lcd1[13] = lcd_bat[1] + 48;
			lcd1[14] = lcd_bat[2] + 48;
			
			
			// Second line
			if (trim[AILERON] >= 0)
    4554:	0f 2e       	mov	r0, r31
    4556:	f7 eb       	ldi	r31, 0xB7	; 183
    4558:	2f 2e       	mov	r2, r31
    455a:	f5 e0       	ldi	r31, 0x05	; 5
    455c:	3f 2e       	mov	r3, r31
    455e:	f0 2d       	mov	r31, r0
	while (1)
	{
		////////// Enter Menu Setting Mode ///////////////////////////////////////
		// If M1 & M2 is pressed together, enter menu setting mode
		// Since there are two display modes, limit input to two
		if (menu_read())
    4560:	0e 94 fd 05 	call	0xbfa	; 0xbfa <menu_read>
    4564:	88 23       	and	r24, r24
    4566:	99 f0       	breq	.+38     	; 0x458e <main+0x266>
		{
			buzzer(1500);
    4568:	8c ed       	ldi	r24, 0xDC	; 220
    456a:	95 e0       	ldi	r25, 0x05	; 5
    456c:	0e 94 f3 08 	call	0x11e6	; 0x11e6 <buzzer>
    4570:	8f e7       	ldi	r24, 0x7F	; 127
    4572:	99 ea       	ldi	r25, 0xA9	; 169
    4574:	e3 e0       	ldi	r30, 0x03	; 3
    4576:	81 50       	subi	r24, 0x01	; 1
    4578:	90 40       	sbci	r25, 0x00	; 0
    457a:	e0 40       	sbci	r30, 0x00	; 0
    457c:	e1 f7       	brne	.-8      	; 0x4576 <main+0x24e>
    457e:	00 c0       	rjmp	.+0      	; 0x4580 <main+0x258>
    4580:	00 00       	nop
			_delay_ms(150);
			buzzer(0);
    4582:	80 e0       	ldi	r24, 0x00	; 0
    4584:	90 e0       	ldi	r25, 0x00	; 0
    4586:	0e 94 f3 08 	call	0x11e6	; 0x11e6 <buzzer>
			menu();
    458a:	0e 94 aa 0d 	call	0x1b54	; 0x1b54 <menu>
		}
		// Menu input limit
		// 0: main page
		// 1: Monitor page - (aileron, elevator, throttle, rudder)
		// 2: Monitor page - (throttle, rudder, CH5)
		if (menu_input < 0)
    458e:	80 91 ce 05 	lds	r24, 0x05CE	; 0x8005ce <menu_input>
    4592:	88 23       	and	r24, r24
    4594:	1c f4       	brge	.+6      	; 0x459c <main+0x274>
			menu_input = 0;
    4596:	10 92 ce 05 	sts	0x05CE, r1	; 0x8005ce <menu_input>
    459a:	05 c0       	rjmp	.+10     	; 0x45a6 <main+0x27e>
		else if (menu_input > 2)
    459c:	83 30       	cpi	r24, 0x03	; 3
    459e:	1c f0       	brlt	.+6      	; 0x45a6 <main+0x27e>
			menu_input = 2;
    45a0:	f2 e0       	ldi	r31, 0x02	; 2
    45a2:	f0 93 ce 05 	sts	0x05CE, r31	; 0x8005ce <menu_input>
			
		
		////////// Power managing ////////////////////////////////////////////////
		// If power switch is off, save trim values and turn transmitter off
		if ((power_sw_toggle == STBY) && (PINC & PWRDET))
    45a6:	80 91 aa 05 	lds	r24, 0x05AA	; 0x8005aa <power_sw_toggle>
    45aa:	82 30       	cpi	r24, 0x02	; 2
    45ac:	39 f4       	brne	.+14     	; 0x45bc <main+0x294>
    45ae:	32 9b       	sbis	0x06, 2	; 6
    45b0:	3b c2       	rjmp	.+1142   	; 0x4a28 <main+0x700>
			power_sw_toggle = OFF;
    45b2:	10 92 aa 05 	sts	0x05AA, r1	; 0x8005aa <power_sw_toggle>
		if (!(PINC & PWRDET) && (power_sw_toggle == OFF))
    45b6:	32 9b       	sbis	0x06, 2	; 6
    45b8:	05 c0       	rjmp	.+10     	; 0x45c4 <main+0x29c>
    45ba:	3b c2       	rjmp	.+1142   	; 0x4a32 <main+0x70a>
    45bc:	32 99       	sbic	0x06, 2	; 6
    45be:	08 c0       	rjmp	.+16     	; 0x45d0 <main+0x2a8>
    45c0:	81 11       	cpse	r24, r1
    45c2:	06 c0       	rjmp	.+12     	; 0x45d0 <main+0x2a8>
		{
			power_sw_toggle = ON;
    45c4:	21 e0       	ldi	r18, 0x01	; 1
    45c6:	20 93 aa 05 	sts	0x05AA, r18	; 0x8005aa <power_sw_toggle>
			timer_8ms_power = 0;
    45ca:	10 92 c5 05 	sts	0x05C5, r1	; 0x8005c5 <timer_8ms_power>
    45ce:	0f c0       	rjmp	.+30     	; 0x45ee <main+0x2c6>
		}
		else if ((timer_8ms_power > 125) && (power_sw_toggle == ON))
    45d0:	80 91 c5 05 	lds	r24, 0x05C5	; 0x8005c5 <timer_8ms_power>
    45d4:	8e 37       	cpi	r24, 0x7E	; 126
    45d6:	58 f0       	brcs	.+22     	; 0x45ee <main+0x2c6>
    45d8:	80 91 aa 05 	lds	r24, 0x05AA	; 0x8005aa <power_sw_toggle>
    45dc:	81 30       	cpi	r24, 0x01	; 1
    45de:	39 f4       	brne	.+14     	; 0x45ee <main+0x2c6>
		{
			// Power off only if button is pressed for 1 s
			if (PINC & PWRDET)
    45e0:	32 9b       	sbis	0x06, 2	; 6
    45e2:	03 c0       	rjmp	.+6      	; 0x45ea <main+0x2c2>
				power_sw_toggle = OFF;
    45e4:	10 92 aa 05 	sts	0x05AA, r1	; 0x8005aa <power_sw_toggle>
    45e8:	02 c0       	rjmp	.+4      	; 0x45ee <main+0x2c6>
			else
				power_off();
    45ea:	0e 94 cc 0c 	call	0x1998	; 0x1998 <power_off>
		}
		
		// Low Battery Shutdown
		// If battery is lower than 3.7 V, ring buzzer 5 times
		// If battery is lower than 3.5 V, the device is powered off.
		TX_bat_cnt_1++;
    45ee:	80 91 a7 05 	lds	r24, 0x05A7	; 0x8005a7 <TX_bat_cnt_1>
    45f2:	8f 5f       	subi	r24, 0xFF	; 255
		if (TX_bat_cnt_1 > 50)
    45f4:	83 33       	cpi	r24, 0x33	; 51
    45f6:	18 f4       	brcc	.+6      	; 0x45fe <main+0x2d6>
		}
		
		// Low Battery Shutdown
		// If battery is lower than 3.7 V, ring buzzer 5 times
		// If battery is lower than 3.5 V, the device is powered off.
		TX_bat_cnt_1++;
    45f8:	80 93 a7 05 	sts	0x05A7, r24	; 0x8005a7 <TX_bat_cnt_1>
    45fc:	69 c0       	rjmp	.+210    	; 0x46d0 <main+0x3a8>
		if (TX_bat_cnt_1 > 50)
		{
			TX_bat_cnt_1 = 0;
    45fe:	10 92 a7 05 	sts	0x05A7, r1	; 0x8005a7 <TX_bat_cnt_1>
			TX_bat_mes = transmitter_bat_chk();
    4602:	0e 94 8b 06 	call	0xd16	; 0xd16 <transmitter_bat_chk>
    4606:	18 2f       	mov	r17, r24
    4608:	80 93 dc 05 	sts	0x05DC, r24	; 0x8005dc <TX_bat_mes>
			TX_Bat_est = ALPHA*TX_Bat_est + (1-ALPHA)*TX_bat_mes;	// Exponentially weighted moving average filter
    460c:	2c ee       	ldi	r18, 0xEC	; 236
    460e:	31 e5       	ldi	r19, 0x51	; 81
    4610:	48 e7       	ldi	r20, 0x78	; 120
    4612:	5f e3       	ldi	r21, 0x3F	; 63
    4614:	60 91 d2 05 	lds	r22, 0x05D2	; 0x8005d2 <TX_Bat_est>
    4618:	70 91 d3 05 	lds	r23, 0x05D3	; 0x8005d3 <TX_Bat_est+0x1>
    461c:	80 91 d4 05 	lds	r24, 0x05D4	; 0x8005d4 <TX_Bat_est+0x2>
    4620:	90 91 d5 05 	lds	r25, 0x05D5	; 0x8005d5 <TX_Bat_est+0x3>
    4624:	0e 94 6c 27 	call	0x4ed8	; 0x4ed8 <__mulsf3>
    4628:	4b 01       	movw	r8, r22
    462a:	5c 01       	movw	r10, r24
    462c:	61 2f       	mov	r22, r17
    462e:	70 e0       	ldi	r23, 0x00	; 0
    4630:	80 e0       	ldi	r24, 0x00	; 0
    4632:	90 e0       	ldi	r25, 0x00	; 0
    4634:	0e 94 bc 26 	call	0x4d78	; 0x4d78 <__floatsisf>
    4638:	20 e8       	ldi	r18, 0x80	; 128
    463a:	32 ec       	ldi	r19, 0xC2	; 194
    463c:	45 ef       	ldi	r20, 0xF5	; 245
    463e:	5c e3       	ldi	r21, 0x3C	; 60
    4640:	0e 94 6c 27 	call	0x4ed8	; 0x4ed8 <__mulsf3>
    4644:	9b 01       	movw	r18, r22
    4646:	ac 01       	movw	r20, r24
    4648:	c5 01       	movw	r24, r10
    464a:	b4 01       	movw	r22, r8
    464c:	0e 94 a8 25 	call	0x4b50	; 0x4b50 <__addsf3>
    4650:	4b 01       	movw	r8, r22
    4652:	5c 01       	movw	r10, r24
    4654:	60 93 d2 05 	sts	0x05D2, r22	; 0x8005d2 <TX_Bat_est>
    4658:	70 93 d3 05 	sts	0x05D3, r23	; 0x8005d3 <TX_Bat_est+0x1>
    465c:	80 93 d4 05 	sts	0x05D4, r24	; 0x8005d4 <TX_Bat_est+0x2>
    4660:	90 93 d5 05 	sts	0x05D5, r25	; 0x8005d5 <TX_Bat_est+0x3>
			
			// Battery 3.7 V, alarm 4 times
			if (((TX_Bat_est) < LOW) && (battery_alarm & ALARM_TOGL))
    4664:	20 e0       	ldi	r18, 0x00	; 0
    4666:	30 e0       	ldi	r19, 0x00	; 0
    4668:	4e e3       	ldi	r20, 0x3E	; 62
    466a:	53 e4       	ldi	r21, 0x43	; 67
    466c:	0e 94 14 26 	call	0x4c28	; 0x4c28 <__cmpsf2>
    4670:	88 23       	and	r24, r24
    4672:	9c f4       	brge	.+38     	; 0x469a <main+0x372>
    4674:	80 91 44 01 	lds	r24, 0x0144	; 0x800144 <battery_alarm>
    4678:	82 ff       	sbrs	r24, 2
    467a:	0f c0       	rjmp	.+30     	; 0x469a <main+0x372>
			{
				battery_alarm &= ~ALARM_TOGL;
    467c:	8b 7f       	andi	r24, 0xFB	; 251
    467e:	80 93 44 01 	sts	0x0144, r24	; 0x800144 <battery_alarm>
				
				// buzzer setting
				buzzer_freq = 2000;
    4682:	80 ed       	ldi	r24, 0xD0	; 208
    4684:	97 e0       	ldi	r25, 0x07	; 7
    4686:	90 93 e6 05 	sts	0x05E6, r25	; 0x8005e6 <buzzer_freq+0x1>
    468a:	80 93 e5 05 	sts	0x05E5, r24	; 0x8005e5 <buzzer_freq>
				buzzer_setting[PERIOD] = 50;
    468e:	22 e3       	ldi	r18, 0x32	; 50
    4690:	f2 01       	movw	r30, r4
    4692:	20 83       	st	Z, r18
				buzzer_setting[SETTING] = BUZZER_SET|4;	// Repeat 5 times
    4694:	8c e0       	ldi	r24, 0x0C	; 12
    4696:	81 83       	std	Z+1, r24	; 0x01
    4698:	1b c0       	rjmp	.+54     	; 0x46d0 <main+0x3a8>
					
			}
			// Battery 3.5 V, turn off
			else if ((TX_Bat_est) < CRIT)
    469a:	20 e0       	ldi	r18, 0x00	; 0
    469c:	30 e0       	ldi	r19, 0x00	; 0
    469e:	44 e3       	ldi	r20, 0x34	; 52
    46a0:	53 e4       	ldi	r21, 0x43	; 67
    46a2:	c5 01       	movw	r24, r10
    46a4:	b4 01       	movw	r22, r8
    46a6:	0e 94 14 26 	call	0x4c28	; 0x4c28 <__cmpsf2>
    46aa:	88 23       	and	r24, r24
    46ac:	8c f4       	brge	.+34     	; 0x46d0 <main+0x3a8>
			{
				buzzer(2000);
    46ae:	80 ed       	ldi	r24, 0xD0	; 208
    46b0:	97 e0       	ldi	r25, 0x07	; 7
    46b2:	0e 94 f3 08 	call	0x11e6	; 0x11e6 <buzzer>
    46b6:	9f ef       	ldi	r25, 0xFF	; 255
    46b8:	e9 e6       	ldi	r30, 0x69	; 105
    46ba:	f8 e1       	ldi	r31, 0x18	; 24
    46bc:	91 50       	subi	r25, 0x01	; 1
    46be:	e0 40       	sbci	r30, 0x00	; 0
    46c0:	f0 40       	sbci	r31, 0x00	; 0
    46c2:	e1 f7       	brne	.-8      	; 0x46bc <main+0x394>
    46c4:	00 c0       	rjmp	.+0      	; 0x46c6 <main+0x39e>
    46c6:	00 00       	nop
				_delay_ms(1000);
				buzzer(0);
    46c8:	80 e0       	ldi	r24, 0x00	; 0
    46ca:	90 e0       	ldi	r25, 0x00	; 0
    46cc:	0e 94 f3 08 	call	0x11e6	; 0x11e6 <buzzer>
		
		// If runtime > RUMTIME, ring buzzer 2 times
		// If runtime is longer than 15 min, turn the device off
// 		if (runtime > runtime_set)
// 			power_off();
		if ((runtime > RUNTIME10) && (buzzer_flg == OFF))
    46d0:	80 91 c6 05 	lds	r24, 0x05C6	; 0x8005c6 <runtime>
    46d4:	90 91 c7 05 	lds	r25, 0x05C7	; 0x8005c7 <runtime+0x1>
    46d8:	89 35       	cpi	r24, 0x59	; 89
    46da:	92 40       	sbci	r25, 0x02	; 2
    46dc:	98 f0       	brcs	.+38     	; 0x4704 <main+0x3dc>
    46de:	80 91 a6 05 	lds	r24, 0x05A6	; 0x8005a6 <__data_end>
    46e2:	81 11       	cpse	r24, r1
    46e4:	0f c0       	rjmp	.+30     	; 0x4704 <main+0x3dc>
		{
			buzzer_flg = ON;			
    46e6:	81 e0       	ldi	r24, 0x01	; 1
    46e8:	80 93 a6 05 	sts	0x05A6, r24	; 0x8005a6 <__data_end>
			buzzer_freq = 2000;
    46ec:	80 ed       	ldi	r24, 0xD0	; 208
    46ee:	97 e0       	ldi	r25, 0x07	; 7
    46f0:	90 93 e6 05 	sts	0x05E6, r25	; 0x8005e6 <buzzer_freq+0x1>
    46f4:	80 93 e5 05 	sts	0x05E5, r24	; 0x8005e5 <buzzer_freq>
			buzzer_setting[PERIOD] = 31;
    46f8:	2f e1       	ldi	r18, 0x1F	; 31
    46fa:	f2 01       	movw	r30, r4
    46fc:	20 83       	st	Z, r18
			buzzer_setting[SETTING] |= BUZZER_SET|1;	// Repeat 2 times
    46fe:	81 81       	ldd	r24, Z+1	; 0x01
    4700:	89 60       	ori	r24, 0x09	; 9
    4702:	81 83       	std	Z+1, r24	; 0x01
		}
		
		
		////////// Read Inputs & Process Data ////////////////////////////////////
		stick_read();
    4704:	0e 94 e8 03 	call	0x7d0	; 0x7d0 <stick_read>
		switch_read();
    4708:	0e 94 83 05 	call	0xb06	; 0xb06 <switch_read>
		trim_read();
    470c:	0e 94 25 04 	call	0x84a	; 0x84a <trim_read>
		set_switch();
    4710:	0e 94 9b 06 	call	0xd36	; 0xd36 <set_switch>
		make_val();
    4714:	0e 94 4d 07 	call	0xe9a	; 0xe9a <make_val>
		
		
		////////// Transmit Data /////////////////////////////////////////////////
		// PPM mode
		if ((mixing_val_3 & RF_MODE_MASK) == JF24)
    4718:	80 91 d6 05 	lds	r24, 0x05D6	; 0x8005d6 <mixing_val_3>
    471c:	8f 70       	andi	r24, 0x0F	; 15
    471e:	81 30       	cpi	r24, 0x01	; 1
    4720:	19 f4       	brne	.+6      	; 0x4728 <main+0x400>
		{
			JF24_RF();
    4722:	0e 94 ea 08 	call	0x11d4	; 0x11d4 <JF24_RF>
    4726:	24 c0       	rjmp	.+72     	; 0x4770 <main+0x448>
		}
		// Debug mode (UART mode)
		else if ((mixing_val_3 & RF_MODE_MASK) == UART)
    4728:	80 91 d6 05 	lds	r24, 0x05D6	; 0x8005d6 <mixing_val_3>
    472c:	8f 70       	andi	r24, 0x0F	; 15
    472e:	83 30       	cpi	r24, 0x03	; 3
    4730:	81 f4       	brne	.+32     	; 0x4752 <main+0x42a>
		{
			UART_NWL();
    4732:	0e 94 9e 25 	call	0x4b3c	; 0x4b3c <UART_NWL>
			UART_NWL();
    4736:	0e 94 9e 25 	call	0x4b3c	; 0x4b3c <UART_NWL>
			UART_tx_m(channel, 5);
    473a:	65 e0       	ldi	r22, 0x05	; 5
    473c:	8c eb       	ldi	r24, 0xBC	; 188
    473e:	95 e0       	ldi	r25, 0x05	; 5
    4740:	0e 94 83 25 	call	0x4b06	; 0x4b06 <UART_tx_m>
    4744:	8f e1       	ldi	r24, 0x1F	; 31
    4746:	9e e4       	ldi	r25, 0x4E	; 78
    4748:	01 97       	sbiw	r24, 0x01	; 1
    474a:	f1 f7       	brne	.-4      	; 0x4748 <main+0x420>
    474c:	00 c0       	rjmp	.+0      	; 0x474e <main+0x426>
    474e:	00 00       	nop
    4750:	0f c0       	rjmp	.+30     	; 0x4770 <main+0x448>
			_delay_ms(10);
		}
		// NRF24l01 module mode
		else if ((mixing_val_3 & RF_MODE_MASK) == NRF)
    4752:	80 91 d6 05 	lds	r24, 0x05D6	; 0x8005d6 <mixing_val_3>
    4756:	8f 70       	andi	r24, 0x0F	; 15
    4758:	82 30       	cpi	r24, 0x02	; 2
    475a:	11 f4       	brne	.+4      	; 0x4760 <main+0x438>
		{
			asm("nop"); // Todo
    475c:	00 00       	nop
    475e:	08 c0       	rjmp	.+16     	; 0x4770 <main+0x448>
		}
		// BLE module mode
		else if ((mixing_val_3 & RF_MODE_MASK) == BLE)
    4760:	80 91 d6 05 	lds	r24, 0x05D6	; 0x8005d6 <mixing_val_3>
    4764:	8f 70       	andi	r24, 0x0F	; 15
    4766:	84 30       	cpi	r24, 0x04	; 4
    4768:	11 f4       	brne	.+4      	; 0x476e <main+0x446>
		{
			asm("nop"); // Todo
    476a:	00 00       	nop
    476c:	01 c0       	rjmp	.+2      	; 0x4770 <main+0x448>
		}
		else
		{
			asm("nop");
    476e:	00 00       	nop
		}
		
		
		////////// LCD ///////////////////////////////////////////////////////////
		// Main Page //////////////////////
		if (menu_input == 0)
    4770:	80 91 ce 05 	lds	r24, 0x05CE	; 0x8005ce <menu_input>
    4774:	81 11       	cpse	r24, r1
    4776:	fd c0       	rjmp	.+506    	; 0x4972 <main+0x64a>
		{
			lcd1 = "MODELX  X  X.XXV";
    4778:	e1 e5       	ldi	r30, 0x51	; 81
    477a:	f5 e0       	ldi	r31, 0x05	; 5
    477c:	f0 93 43 01 	sts	0x0143, r31	; 0x800143 <lcd1+0x1>
    4780:	e0 93 42 01 	sts	0x0142, r30	; 0x800142 <lcd1>
			lcd2 = "A   E   R       ";
    4784:	70 92 41 01 	sts	0x0141, r7	; 0x800141 <lcd2+0x1>
    4788:	60 92 40 01 	sts	0x0140, r6	; 0x800140 <lcd2>
			
			// First line
			lcd1[5] = cur_model + 49;
    478c:	80 91 cf 05 	lds	r24, 0x05CF	; 0x8005cf <cur_model>
    4790:	8f 5c       	subi	r24, 0xCF	; 207
    4792:	80 93 56 05 	sts	0x0556, r24	; 0x800556 <battery_alarm+0x412>
			switch (mixing_val_3 & RF_MODE_MASK)
    4796:	80 91 d6 05 	lds	r24, 0x05D6	; 0x8005d6 <mixing_val_3>
    479a:	8f 70       	andi	r24, 0x0F	; 15
    479c:	82 30       	cpi	r24, 0x02	; 2
    479e:	89 f0       	breq	.+34     	; 0x47c2 <main+0x49a>
    47a0:	18 f4       	brcc	.+6      	; 0x47a8 <main+0x480>
    47a2:	81 30       	cpi	r24, 0x01	; 1
    47a4:	31 f0       	breq	.+12     	; 0x47b2 <main+0x48a>
    47a6:	15 c0       	rjmp	.+42     	; 0x47d2 <main+0x4aa>
    47a8:	83 30       	cpi	r24, 0x03	; 3
    47aa:	39 f0       	breq	.+14     	; 0x47ba <main+0x492>
    47ac:	84 30       	cpi	r24, 0x04	; 4
    47ae:	69 f0       	breq	.+26     	; 0x47ca <main+0x4a2>
    47b0:	10 c0       	rjmp	.+32     	; 0x47d2 <main+0x4aa>
			{
				case JF24:
					lcd1[8] = 'J';
    47b2:	8a e4       	ldi	r24, 0x4A	; 74
    47b4:	80 93 59 05 	sts	0x0559, r24	; 0x800559 <battery_alarm+0x415>
					break;
    47b8:	0f c0       	rjmp	.+30     	; 0x47d8 <main+0x4b0>
				
				case UART:
					lcd1[8] = 'U';
    47ba:	85 e5       	ldi	r24, 0x55	; 85
    47bc:	80 93 59 05 	sts	0x0559, r24	; 0x800559 <battery_alarm+0x415>
					break;
    47c0:	0b c0       	rjmp	.+22     	; 0x47d8 <main+0x4b0>
				
				case NRF:
					lcd1[8] = 'N';
    47c2:	8e e4       	ldi	r24, 0x4E	; 78
    47c4:	80 93 59 05 	sts	0x0559, r24	; 0x800559 <battery_alarm+0x415>
					break;
    47c8:	07 c0       	rjmp	.+14     	; 0x47d8 <main+0x4b0>
				
				case BLE:
					lcd1[8] = 'B';
    47ca:	82 e4       	ldi	r24, 0x42	; 66
    47cc:	80 93 59 05 	sts	0x0559, r24	; 0x800559 <battery_alarm+0x415>
					break;
    47d0:	03 c0       	rjmp	.+6      	; 0x47d8 <main+0x4b0>
				
				default:
					lcd1[8] = 'D';
    47d2:	84 e4       	ldi	r24, 0x44	; 68
    47d4:	80 93 59 05 	sts	0x0559, r24	; 0x800559 <battery_alarm+0x415>
			
			// TX battery voltage - calculate each digit
			uint8_t temp_TX_Bat_est;
			temp_TX_Bat_est = (uint8_t)TX_Bat_est;
			
			lcd_bat[0] = (5*temp_TX_Bat_est)>>8;
    47d8:	60 91 d2 05 	lds	r22, 0x05D2	; 0x8005d2 <TX_Bat_est>
    47dc:	70 91 d3 05 	lds	r23, 0x05D3	; 0x8005d3 <TX_Bat_est+0x1>
    47e0:	80 91 d4 05 	lds	r24, 0x05D4	; 0x8005d4 <TX_Bat_est+0x2>
    47e4:	90 91 d5 05 	lds	r25, 0x05D5	; 0x8005d5 <TX_Bat_est+0x3>
    47e8:	0e 94 8b 26 	call	0x4d16	; 0x4d16 <__fixunssfsi>
    47ec:	70 e0       	ldi	r23, 0x00	; 0
    47ee:	cb 01       	movw	r24, r22
    47f0:	88 0f       	add	r24, r24
    47f2:	99 1f       	adc	r25, r25
    47f4:	88 0f       	add	r24, r24
    47f6:	99 1f       	adc	r25, r25
    47f8:	68 0f       	add	r22, r24
    47fa:	79 1f       	adc	r23, r25
    47fc:	07 2f       	mov	r16, r23
    47fe:	11 27       	eor	r17, r17
    4800:	07 fd       	sbrc	r16, 7
    4802:	1a 95       	dec	r17
    4804:	f6 01       	movw	r30, r12
    4806:	00 83       	st	Z, r16
			lcd_bat[1] = 5*temp_TX_Bat_est/25.6 - lcd_bat[0]*10;
    4808:	07 2e       	mov	r0, r23
    480a:	00 0c       	add	r0, r0
    480c:	88 0b       	sbc	r24, r24
    480e:	99 0b       	sbc	r25, r25
    4810:	0e 94 bc 26 	call	0x4d78	; 0x4d78 <__floatsisf>
    4814:	4b 01       	movw	r8, r22
    4816:	5c 01       	movw	r10, r24
    4818:	78 01       	movw	r14, r16
    481a:	ff 24       	eor	r15, r15
    481c:	2d ec       	ldi	r18, 0xCD	; 205
    481e:	3c ec       	ldi	r19, 0xCC	; 204
    4820:	4c ec       	ldi	r20, 0xCC	; 204
    4822:	51 e4       	ldi	r21, 0x41	; 65
    4824:	0e 94 19 26 	call	0x4c32	; 0x4c32 <__divsf3>
    4828:	69 83       	std	Y+1, r22	; 0x01
    482a:	7a 83       	std	Y+2, r23	; 0x02
    482c:	8b 83       	std	Y+3, r24	; 0x03
    482e:	9c 83       	std	Y+4, r25	; 0x04
    4830:	b7 01       	movw	r22, r14
    4832:	66 0f       	add	r22, r22
    4834:	77 1f       	adc	r23, r23
    4836:	c7 01       	movw	r24, r14
    4838:	88 0f       	add	r24, r24
    483a:	99 1f       	adc	r25, r25
    483c:	88 0f       	add	r24, r24
    483e:	99 1f       	adc	r25, r25
    4840:	88 0f       	add	r24, r24
    4842:	99 1f       	adc	r25, r25
    4844:	68 0f       	add	r22, r24
    4846:	79 1f       	adc	r23, r25
    4848:	07 2e       	mov	r0, r23
    484a:	00 0c       	add	r0, r0
    484c:	88 0b       	sbc	r24, r24
    484e:	99 0b       	sbc	r25, r25
    4850:	0e 94 bc 26 	call	0x4d78	; 0x4d78 <__floatsisf>
    4854:	9b 01       	movw	r18, r22
    4856:	ac 01       	movw	r20, r24
    4858:	69 81       	ldd	r22, Y+1	; 0x01
    485a:	7a 81       	ldd	r23, Y+2	; 0x02
    485c:	8b 81       	ldd	r24, Y+3	; 0x03
    485e:	9c 81       	ldd	r25, Y+4	; 0x04
    4860:	0e 94 a7 25 	call	0x4b4e	; 0x4b4e <__subsf3>
    4864:	0e 94 8b 26 	call	0x4d16	; 0x4d16 <__fixunssfsi>
    4868:	16 2f       	mov	r17, r22
    486a:	f6 01       	movw	r30, r12
    486c:	61 83       	std	Z+1, r22	; 0x01
			lcd_bat[2] = (float)(5*temp_TX_Bat_est/2.56 - lcd_bat[1]*10 - lcd_bat[0]*100);
    486e:	2a e0       	ldi	r18, 0x0A	; 10
    4870:	37 ed       	ldi	r19, 0xD7	; 215
    4872:	43 e2       	ldi	r20, 0x23	; 35
    4874:	50 e4       	ldi	r21, 0x40	; 64
    4876:	c5 01       	movw	r24, r10
    4878:	b4 01       	movw	r22, r8
    487a:	0e 94 19 26 	call	0x4c32	; 0x4c32 <__divsf3>
    487e:	4b 01       	movw	r8, r22
    4880:	5c 01       	movw	r10, r24
    4882:	81 2f       	mov	r24, r17
    4884:	90 e0       	ldi	r25, 0x00	; 0
    4886:	9c 01       	movw	r18, r24
    4888:	22 0f       	add	r18, r18
    488a:	33 1f       	adc	r19, r19
    488c:	bc 01       	movw	r22, r24
    488e:	66 0f       	add	r22, r22
    4890:	77 1f       	adc	r23, r23
    4892:	66 0f       	add	r22, r22
    4894:	77 1f       	adc	r23, r23
    4896:	66 0f       	add	r22, r22
    4898:	77 1f       	adc	r23, r23
    489a:	62 0f       	add	r22, r18
    489c:	73 1f       	adc	r23, r19
    489e:	07 2e       	mov	r0, r23
    48a0:	00 0c       	add	r0, r0
    48a2:	88 0b       	sbc	r24, r24
    48a4:	99 0b       	sbc	r25, r25
    48a6:	0e 94 bc 26 	call	0x4d78	; 0x4d78 <__floatsisf>
    48aa:	9b 01       	movw	r18, r22
    48ac:	ac 01       	movw	r20, r24
    48ae:	c5 01       	movw	r24, r10
    48b0:	b4 01       	movw	r22, r8
    48b2:	0e 94 a7 25 	call	0x4b4e	; 0x4b4e <__subsf3>
    48b6:	4b 01       	movw	r8, r22
    48b8:	5c 01       	movw	r10, r24
    48ba:	84 e6       	ldi	r24, 0x64	; 100
    48bc:	8e 9d       	mul	r24, r14
    48be:	b0 01       	movw	r22, r0
    48c0:	8f 9d       	mul	r24, r15
    48c2:	70 0d       	add	r23, r0
    48c4:	11 24       	eor	r1, r1
    48c6:	07 2e       	mov	r0, r23
    48c8:	00 0c       	add	r0, r0
    48ca:	88 0b       	sbc	r24, r24
    48cc:	99 0b       	sbc	r25, r25
    48ce:	0e 94 bc 26 	call	0x4d78	; 0x4d78 <__floatsisf>
    48d2:	9b 01       	movw	r18, r22
    48d4:	ac 01       	movw	r20, r24
    48d6:	c5 01       	movw	r24, r10
    48d8:	b4 01       	movw	r22, r8
    48da:	0e 94 a7 25 	call	0x4b4e	; 0x4b4e <__subsf3>
    48de:	0e 94 8b 26 	call	0x4d16	; 0x4d16 <__fixunssfsi>
    48e2:	f6 01       	movw	r30, r12
    48e4:	62 83       	std	Z+2, r22	; 0x02
			
			lcd1[11] = lcd_bat[0] + 48;
    48e6:	00 5d       	subi	r16, 0xD0	; 208
    48e8:	00 93 5c 05 	sts	0x055C, r16	; 0x80055c <battery_alarm+0x418>
			lcd1[13] = lcd_bat[1] + 48;
    48ec:	10 5d       	subi	r17, 0xD0	; 208
    48ee:	10 93 5e 05 	sts	0x055E, r17	; 0x80055e <battery_alarm+0x41a>
			lcd1[14] = lcd_bat[2] + 48;
    48f2:	60 5d       	subi	r22, 0xD0	; 208
    48f4:	60 93 5f 05 	sts	0x055F, r22	; 0x80055f <battery_alarm+0x41b>
			
			
			// Second line
			if (trim[AILERON] >= 0)
    48f8:	f1 01       	movw	r30, r2
    48fa:	80 81       	ld	r24, Z
    48fc:	88 23       	and	r24, r24
    48fe:	34 f0       	brlt	.+12     	; 0x490c <main+0x5e4>
			{
				lcd2[1] = trim[AILERON] + 48;
    4900:	80 5d       	subi	r24, 0xD0	; 208
    4902:	f3 01       	movw	r30, r6
    4904:	81 83       	std	Z+1, r24	; 0x01
				lcd2[2] = ' ';
    4906:	80 e2       	ldi	r24, 0x20	; 32
    4908:	82 83       	std	Z+2, r24	; 0x02
    490a:	06 c0       	rjmp	.+12     	; 0x4918 <main+0x5f0>
			}
			else
			{
				lcd2[1] = '-';
    490c:	9d e2       	ldi	r25, 0x2D	; 45
    490e:	f3 01       	movw	r30, r6
    4910:	91 83       	std	Z+1, r25	; 0x01
				lcd2[2] = 48 - trim[AILERON];
    4912:	90 e3       	ldi	r25, 0x30	; 48
    4914:	98 1b       	sub	r25, r24
    4916:	92 83       	std	Z+2, r25	; 0x02
			}
			
			if (trim[ELEVATOR] >= 0)
    4918:	f1 01       	movw	r30, r2
    491a:	81 81       	ldd	r24, Z+1	; 0x01
    491c:	88 23       	and	r24, r24
    491e:	4c f0       	brlt	.+18     	; 0x4932 <main+0x60a>
			{
				lcd2[5] = trim[ELEVATOR] + 48;
    4920:	e0 91 40 01 	lds	r30, 0x0140	; 0x800140 <lcd2>
    4924:	f0 91 41 01 	lds	r31, 0x0141	; 0x800141 <lcd2+0x1>
    4928:	80 5d       	subi	r24, 0xD0	; 208
    492a:	85 83       	std	Z+5, r24	; 0x05
				lcd2[6] = ' ';
    492c:	80 e2       	ldi	r24, 0x20	; 32
    492e:	86 83       	std	Z+6, r24	; 0x06
    4930:	09 c0       	rjmp	.+18     	; 0x4944 <main+0x61c>
			}
			else
			{
				lcd2[5] = '-';
    4932:	e0 91 40 01 	lds	r30, 0x0140	; 0x800140 <lcd2>
    4936:	f0 91 41 01 	lds	r31, 0x0141	; 0x800141 <lcd2+0x1>
    493a:	9d e2       	ldi	r25, 0x2D	; 45
    493c:	95 83       	std	Z+5, r25	; 0x05
				lcd2[6] = 48 - trim[ELEVATOR];
    493e:	90 e3       	ldi	r25, 0x30	; 48
    4940:	98 1b       	sub	r25, r24
    4942:	96 83       	std	Z+6, r25	; 0x06
			}
			
			if (trim[RUDDER] >= 0)
    4944:	f1 01       	movw	r30, r2
    4946:	83 81       	ldd	r24, Z+3	; 0x03
    4948:	88 23       	and	r24, r24
    494a:	4c f0       	brlt	.+18     	; 0x495e <main+0x636>
			{
				lcd2[9] = trim[RUDDER] + 48;
    494c:	e0 91 40 01 	lds	r30, 0x0140	; 0x800140 <lcd2>
    4950:	f0 91 41 01 	lds	r31, 0x0141	; 0x800141 <lcd2+0x1>
    4954:	80 5d       	subi	r24, 0xD0	; 208
    4956:	81 87       	std	Z+9, r24	; 0x09
				lcd2[10] = ' ';
    4958:	80 e2       	ldi	r24, 0x20	; 32
    495a:	82 87       	std	Z+10, r24	; 0x0a
    495c:	4e c0       	rjmp	.+156    	; 0x49fa <main+0x6d2>
			}
			else
			{
				lcd2[9] = '-';
    495e:	e0 91 40 01 	lds	r30, 0x0140	; 0x800140 <lcd2>
    4962:	f0 91 41 01 	lds	r31, 0x0141	; 0x800141 <lcd2+0x1>
    4966:	9d e2       	ldi	r25, 0x2D	; 45
    4968:	91 87       	std	Z+9, r25	; 0x09
				lcd2[10] = 48 - trim[RUDDER];
    496a:	90 e3       	ldi	r25, 0x30	; 48
    496c:	98 1b       	sub	r25, r24
    496e:	92 87       	std	Z+10, r25	; 0x0a
    4970:	44 c0       	rjmp	.+136    	; 0x49fa <main+0x6d2>
			}
		}
		
		// Channel Monitor Page ///////////
		else if (menu_input == 1)
    4972:	81 30       	cpi	r24, 0x01	; 1
    4974:	19 f5       	brne	.+70     	; 0x49bc <main+0x694>
		{
			lcd1 = "A       E       ";
    4976:	83 e7       	ldi	r24, 0x73	; 115
    4978:	95 e0       	ldi	r25, 0x05	; 5
    497a:	90 93 43 01 	sts	0x0143, r25	; 0x800143 <lcd1+0x1>
    497e:	80 93 42 01 	sts	0x0142, r24	; 0x800142 <lcd1>
			lcd2 = "T       R       ";
    4982:	e4 e8       	ldi	r30, 0x84	; 132
    4984:	f5 e0       	ldi	r31, 0x05	; 5
    4986:	f0 93 41 01 	sts	0x0141, r31	; 0x800141 <lcd2+0x1>
    498a:	e0 93 40 01 	sts	0x0140, r30	; 0x800140 <lcd2>
			
			// Aileron
			LCD_guage(channel[AILERON],  0);
    498e:	0c eb       	ldi	r16, 0xBC	; 188
    4990:	15 e0       	ldi	r17, 0x05	; 5
    4992:	60 e0       	ldi	r22, 0x00	; 0
    4994:	f8 01       	movw	r30, r16
    4996:	80 81       	ld	r24, Z
    4998:	0e 94 5b 09 	call	0x12b6	; 0x12b6 <LCD_guage>
			LCD_guage(channel[ELEVATOR], 1);
    499c:	61 e0       	ldi	r22, 0x01	; 1
    499e:	f8 01       	movw	r30, r16
    49a0:	81 81       	ldd	r24, Z+1	; 0x01
    49a2:	0e 94 5b 09 	call	0x12b6	; 0x12b6 <LCD_guage>
			LCD_guage(channel[THROTTLE], 2);
    49a6:	62 e0       	ldi	r22, 0x02	; 2
    49a8:	f8 01       	movw	r30, r16
    49aa:	82 81       	ldd	r24, Z+2	; 0x02
    49ac:	0e 94 5b 09 	call	0x12b6	; 0x12b6 <LCD_guage>
			LCD_guage(channel[RUDDER],   3);
    49b0:	63 e0       	ldi	r22, 0x03	; 3
    49b2:	f8 01       	movw	r30, r16
    49b4:	83 81       	ldd	r24, Z+3	; 0x03
    49b6:	0e 94 5b 09 	call	0x12b6	; 0x12b6 <LCD_guage>
    49ba:	1f c0       	rjmp	.+62     	; 0x49fa <main+0x6d2>
			
		}
		else if (menu_input == 2)
    49bc:	82 30       	cpi	r24, 0x02	; 2
    49be:	e9 f4       	brne	.+58     	; 0x49fa <main+0x6d2>
		{
			lcd1 = "T       R       ";
    49c0:	84 e8       	ldi	r24, 0x84	; 132
    49c2:	95 e0       	ldi	r25, 0x05	; 5
    49c4:	90 93 43 01 	sts	0x0143, r25	; 0x800143 <lcd1+0x1>
    49c8:	80 93 42 01 	sts	0x0142, r24	; 0x800142 <lcd1>
			lcd2 = "G               ";
    49cc:	e5 e9       	ldi	r30, 0x95	; 149
    49ce:	f5 e0       	ldi	r31, 0x05	; 5
    49d0:	f0 93 41 01 	sts	0x0141, r31	; 0x800141 <lcd2+0x1>
    49d4:	e0 93 40 01 	sts	0x0140, r30	; 0x800140 <lcd2>
			
			// Aileron
			LCD_guage(channel[THROTTLE], 0);
    49d8:	0c eb       	ldi	r16, 0xBC	; 188
    49da:	15 e0       	ldi	r17, 0x05	; 5
    49dc:	60 e0       	ldi	r22, 0x00	; 0
    49de:	f8 01       	movw	r30, r16
    49e0:	82 81       	ldd	r24, Z+2	; 0x02
    49e2:	0e 94 5b 09 	call	0x12b6	; 0x12b6 <LCD_guage>
			LCD_guage(channel[RUDDER],   1);
    49e6:	61 e0       	ldi	r22, 0x01	; 1
    49e8:	f8 01       	movw	r30, r16
    49ea:	83 81       	ldd	r24, Z+3	; 0x03
    49ec:	0e 94 5b 09 	call	0x12b6	; 0x12b6 <LCD_guage>
			LCD_guage(channel[CH5],     2);
    49f0:	62 e0       	ldi	r22, 0x02	; 2
    49f2:	f8 01       	movw	r30, r16
    49f4:	84 81       	ldd	r24, Z+4	; 0x04
    49f6:	0e 94 5b 09 	call	0x12b6	; 0x12b6 <LCD_guage>
		}
		
		
		
		// Print
		LCD_home();
    49fa:	0e 94 6a 02 	call	0x4d4	; 0x4d4 <LCD_home>
		LCD_string(lcd1, 16);
    49fe:	60 e1       	ldi	r22, 0x10	; 16
    4a00:	80 91 42 01 	lds	r24, 0x0142	; 0x800142 <lcd1>
    4a04:	90 91 43 01 	lds	r25, 0x0143	; 0x800143 <lcd1+0x1>
    4a08:	0e 94 db 01 	call	0x3b6	; 0x3b6 <LCD_string>
		LCD_NWL();
    4a0c:	0e 94 5c 02 	call	0x4b8	; 0x4b8 <LCD_NWL>
		LCD_string(lcd2, 16);
    4a10:	60 e1       	ldi	r22, 0x10	; 16
    4a12:	80 91 40 01 	lds	r24, 0x0140	; 0x800140 <lcd2>
    4a16:	90 91 41 01 	lds	r25, 0x0141	; 0x800141 <lcd2+0x1>
    4a1a:	0e 94 db 01 	call	0x3b6	; 0x3b6 <LCD_string>
		
		
		////////// Buzzer ////////////////////////////////////////////////////////
		buzzer_switch();
    4a1e:	0e 94 1b 09 	call	0x1236	; 0x1236 <buzzer_switch>
	
	}//while(1)
    4a22:	9e cd       	rjmp	.-1220   	; 0x4560 <main+0x238>
		// Without this, transmitter would be turned on and turned off immediately
		if ((power_sw_toggle == STBY) && (PINC & PWRDET))
			power_sw_toggle = OFF;
			
		// Power off
		if (!(PINC & PWRDET) && (power_sw_toggle == OFF))
    4a24:	86 b1       	in	r24, 0x06	; 6
    4a26:	02 c0       	rjmp	.+4      	; 0x4a2c <main+0x704>
		
		////////// Power managing ////////////////////////////////////////////////
		// If power switch is off, save trim values and turn transmitter off
		if ((power_sw_toggle == STBY) && (PINC & PWRDET))
			power_sw_toggle = OFF;
		if (!(PINC & PWRDET) && (power_sw_toggle == OFF))
    4a28:	86 b1       	in	r24, 0x06	; 6
    4a2a:	03 c0       	rjmp	.+6      	; 0x4a32 <main+0x70a>
		if (!(PINC & PWRDET) && (power_sw_toggle == OFF))
		{
			power_sw_toggle = ON;
			timer_8ms_power = 0;
		}
		else if ((timer_8ms_power > 125) && (power_sw_toggle == ON))
    4a2c:	80 91 c5 05 	lds	r24, 0x05C5	; 0x8005c5 <timer_8ms_power>
    4a30:	31 cd       	rjmp	.-1438   	; 0x4494 <main+0x16c>
		if (!(PINC & PWRDET) && (power_sw_toggle == OFF))
		{
			power_sw_toggle = ON;
			timer_8ms_power = 0;
		}
		else if ((timer_8ms_power > 125) && (power_sw_toggle == ON))
    4a32:	80 91 c5 05 	lds	r24, 0x05C5	; 0x8005c5 <timer_8ms_power>
    4a36:	db cd       	rjmp	.-1098   	; 0x45ee <main+0x2c6>

00004a38 <i2c_init>:
    4a38:	10 92 b9 00 	sts	0x00B9, r1	; 0x8000b9 <__DATA_REGION_ORIGIN__+0x59>
    4a3c:	8c e0       	ldi	r24, 0x0C	; 12
    4a3e:	80 93 b8 00 	sts	0x00B8, r24	; 0x8000b8 <__DATA_REGION_ORIGIN__+0x58>
    4a42:	08 95       	ret

00004a44 <i2c_start>:
    4a44:	94 ea       	ldi	r25, 0xA4	; 164
    4a46:	90 93 bc 00 	sts	0x00BC, r25	; 0x8000bc <__DATA_REGION_ORIGIN__+0x5c>
    4a4a:	ec eb       	ldi	r30, 0xBC	; 188
    4a4c:	f0 e0       	ldi	r31, 0x00	; 0
    4a4e:	90 81       	ld	r25, Z
    4a50:	99 23       	and	r25, r25
    4a52:	ec f7       	brge	.-6      	; 0x4a4e <i2c_start+0xa>
    4a54:	80 93 bb 00 	sts	0x00BB, r24	; 0x8000bb <__DATA_REGION_ORIGIN__+0x5b>
    4a58:	84 e8       	ldi	r24, 0x84	; 132
    4a5a:	80 93 bc 00 	sts	0x00BC, r24	; 0x8000bc <__DATA_REGION_ORIGIN__+0x5c>
    4a5e:	ec eb       	ldi	r30, 0xBC	; 188
    4a60:	f0 e0       	ldi	r31, 0x00	; 0
    4a62:	80 81       	ld	r24, Z
    4a64:	88 23       	and	r24, r24
    4a66:	ec f7       	brge	.-6      	; 0x4a62 <i2c_start+0x1e>
    4a68:	80 e0       	ldi	r24, 0x00	; 0
    4a6a:	08 95       	ret

00004a6c <i2c_write>:
    4a6c:	80 93 bb 00 	sts	0x00BB, r24	; 0x8000bb <__DATA_REGION_ORIGIN__+0x5b>
    4a70:	84 e8       	ldi	r24, 0x84	; 132
    4a72:	80 93 bc 00 	sts	0x00BC, r24	; 0x8000bc <__DATA_REGION_ORIGIN__+0x5c>
    4a76:	ec eb       	ldi	r30, 0xBC	; 188
    4a78:	f0 e0       	ldi	r31, 0x00	; 0
    4a7a:	80 81       	ld	r24, Z
    4a7c:	88 23       	and	r24, r24
    4a7e:	ec f7       	brge	.-6      	; 0x4a7a <i2c_write+0xe>
    4a80:	80 e0       	ldi	r24, 0x00	; 0
    4a82:	08 95       	ret

00004a84 <i2c_stop>:
    4a84:	84 e9       	ldi	r24, 0x94	; 148
    4a86:	80 93 bc 00 	sts	0x00BC, r24	; 0x8000bc <__DATA_REGION_ORIGIN__+0x5c>
    4a8a:	ec eb       	ldi	r30, 0xBC	; 188
    4a8c:	f0 e0       	ldi	r31, 0x00	; 0
    4a8e:	80 81       	ld	r24, Z
    4a90:	84 fd       	sbrc	r24, 4
    4a92:	fd cf       	rjmp	.-6      	; 0x4a8e <i2c_stop+0xa>
    4a94:	08 95       	ret

00004a96 <UART_init>:
    4a96:	82 30       	cpi	r24, 0x02	; 2
    4a98:	69 f0       	breq	.+26     	; 0x4ab4 <UART_init+0x1e>
    4a9a:	18 f4       	brcc	.+6      	; 0x4aa2 <UART_init+0xc>
    4a9c:	81 30       	cpi	r24, 0x01	; 1
    4a9e:	31 f0       	breq	.+12     	; 0x4aac <UART_init+0x16>
    4aa0:	14 c0       	rjmp	.+40     	; 0x4aca <UART_init+0x34>
    4aa2:	83 30       	cpi	r24, 0x03	; 3
    4aa4:	59 f0       	breq	.+22     	; 0x4abc <UART_init+0x26>
    4aa6:	84 30       	cpi	r24, 0x04	; 4
    4aa8:	69 f0       	breq	.+26     	; 0x4ac4 <UART_init+0x2e>
    4aaa:	0f c0       	rjmp	.+30     	; 0x4aca <UART_init+0x34>
    4aac:	83 e3       	ldi	r24, 0x33	; 51
    4aae:	80 93 cc 05 	sts	0x05CC, r24	; 0x8005cc <ubrr>
    4ab2:	0b c0       	rjmp	.+22     	; 0x4aca <UART_init+0x34>
    4ab4:	82 e2       	ldi	r24, 0x22	; 34
    4ab6:	80 93 cc 05 	sts	0x05CC, r24	; 0x8005cc <ubrr>
    4aba:	07 c0       	rjmp	.+14     	; 0x4aca <UART_init+0x34>
    4abc:	89 e1       	ldi	r24, 0x19	; 25
    4abe:	80 93 cc 05 	sts	0x05CC, r24	; 0x8005cc <ubrr>
    4ac2:	03 c0       	rjmp	.+6      	; 0x4aca <UART_init+0x34>
    4ac4:	8c e0       	ldi	r24, 0x0C	; 12
    4ac6:	80 93 cc 05 	sts	0x05CC, r24	; 0x8005cc <ubrr>
    4aca:	10 92 c5 00 	sts	0x00C5, r1	; 0x8000c5 <__DATA_REGION_ORIGIN__+0x65>
    4ace:	80 91 cc 05 	lds	r24, 0x05CC	; 0x8005cc <ubrr>
    4ad2:	80 93 c4 00 	sts	0x00C4, r24	; 0x8000c4 <__DATA_REGION_ORIGIN__+0x64>
    4ad6:	60 ff       	sbrs	r22, 0
    4ad8:	03 c0       	rjmp	.+6      	; 0x4ae0 <UART_init+0x4a>
    4ada:	88 e0       	ldi	r24, 0x08	; 8
    4adc:	80 93 c1 00 	sts	0x00C1, r24	; 0x8000c1 <__DATA_REGION_ORIGIN__+0x61>
    4ae0:	96 2f       	mov	r25, r22
    4ae2:	94 70       	andi	r25, 0x04	; 4
    4ae4:	66 70       	andi	r22, 0x06	; 6
    4ae6:	29 f0       	breq	.+10     	; 0x4af2 <UART_init+0x5c>
    4ae8:	e1 ec       	ldi	r30, 0xC1	; 193
    4aea:	f0 e0       	ldi	r31, 0x00	; 0
    4aec:	80 81       	ld	r24, Z
    4aee:	80 61       	ori	r24, 0x10	; 16
    4af0:	80 83       	st	Z, r24
    4af2:	99 23       	and	r25, r25
    4af4:	29 f0       	breq	.+10     	; 0x4b00 <UART_init+0x6a>
    4af6:	e1 ec       	ldi	r30, 0xC1	; 193
    4af8:	f0 e0       	ldi	r31, 0x00	; 0
    4afa:	80 81       	ld	r24, Z
    4afc:	80 68       	ori	r24, 0x80	; 128
    4afe:	80 83       	st	Z, r24
    4b00:	50 98       	cbi	0x0a, 0	; 10
    4b02:	51 9a       	sbi	0x0a, 1	; 10
    4b04:	08 95       	ret

00004b06 <UART_tx_m>:
    4b06:	cf 93       	push	r28
    4b08:	df 93       	push	r29
    4b0a:	66 23       	and	r22, r22
    4b0c:	a1 f0       	breq	.+40     	; 0x4b36 <UART_tx_m+0x30>
    4b0e:	dc 01       	movw	r26, r24
    4b10:	61 50       	subi	r22, 0x01	; 1
    4b12:	26 2f       	mov	r18, r22
    4b14:	30 e0       	ldi	r19, 0x00	; 0
    4b16:	2f 5f       	subi	r18, 0xFF	; 255
    4b18:	3f 4f       	sbci	r19, 0xFF	; 255
    4b1a:	28 0f       	add	r18, r24
    4b1c:	39 1f       	adc	r19, r25
    4b1e:	e0 ec       	ldi	r30, 0xC0	; 192
    4b20:	f0 e0       	ldi	r31, 0x00	; 0
    4b22:	c6 ec       	ldi	r28, 0xC6	; 198
    4b24:	d0 e0       	ldi	r29, 0x00	; 0
    4b26:	90 81       	ld	r25, Z
    4b28:	95 ff       	sbrs	r25, 5
    4b2a:	fd cf       	rjmp	.-6      	; 0x4b26 <UART_tx_m+0x20>
    4b2c:	9d 91       	ld	r25, X+
    4b2e:	98 83       	st	Y, r25
    4b30:	a2 17       	cp	r26, r18
    4b32:	b3 07       	cpc	r27, r19
    4b34:	c1 f7       	brne	.-16     	; 0x4b26 <UART_tx_m+0x20>
    4b36:	df 91       	pop	r29
    4b38:	cf 91       	pop	r28
    4b3a:	08 95       	ret

00004b3c <UART_NWL>:
    4b3c:	e0 ec       	ldi	r30, 0xC0	; 192
    4b3e:	f0 e0       	ldi	r31, 0x00	; 0
    4b40:	80 81       	ld	r24, Z
    4b42:	85 ff       	sbrs	r24, 5
    4b44:	fd cf       	rjmp	.-6      	; 0x4b40 <UART_NWL+0x4>
    4b46:	8a e0       	ldi	r24, 0x0A	; 10
    4b48:	80 93 c6 00 	sts	0x00C6, r24	; 0x8000c6 <__DATA_REGION_ORIGIN__+0x66>
    4b4c:	08 95       	ret

00004b4e <__subsf3>:
    4b4e:	50 58       	subi	r21, 0x80	; 128

00004b50 <__addsf3>:
    4b50:	bb 27       	eor	r27, r27
    4b52:	aa 27       	eor	r26, r26
    4b54:	0e 94 bf 25 	call	0x4b7e	; 0x4b7e <__addsf3x>
    4b58:	0c 94 32 27 	jmp	0x4e64	; 0x4e64 <__fp_round>
    4b5c:	0e 94 24 27 	call	0x4e48	; 0x4e48 <__fp_pscA>
    4b60:	38 f0       	brcs	.+14     	; 0x4b70 <__addsf3+0x20>
    4b62:	0e 94 2b 27 	call	0x4e56	; 0x4e56 <__fp_pscB>
    4b66:	20 f0       	brcs	.+8      	; 0x4b70 <__addsf3+0x20>
    4b68:	39 f4       	brne	.+14     	; 0x4b78 <__addsf3+0x28>
    4b6a:	9f 3f       	cpi	r25, 0xFF	; 255
    4b6c:	19 f4       	brne	.+6      	; 0x4b74 <__addsf3+0x24>
    4b6e:	26 f4       	brtc	.+8      	; 0x4b78 <__addsf3+0x28>
    4b70:	0c 94 21 27 	jmp	0x4e42	; 0x4e42 <__fp_nan>
    4b74:	0e f4       	brtc	.+2      	; 0x4b78 <__addsf3+0x28>
    4b76:	e0 95       	com	r30
    4b78:	e7 fb       	bst	r30, 7
    4b7a:	0c 94 1b 27 	jmp	0x4e36	; 0x4e36 <__fp_inf>

00004b7e <__addsf3x>:
    4b7e:	e9 2f       	mov	r30, r25
    4b80:	0e 94 43 27 	call	0x4e86	; 0x4e86 <__fp_split3>
    4b84:	58 f3       	brcs	.-42     	; 0x4b5c <__addsf3+0xc>
    4b86:	ba 17       	cp	r27, r26
    4b88:	62 07       	cpc	r22, r18
    4b8a:	73 07       	cpc	r23, r19
    4b8c:	84 07       	cpc	r24, r20
    4b8e:	95 07       	cpc	r25, r21
    4b90:	20 f0       	brcs	.+8      	; 0x4b9a <__addsf3x+0x1c>
    4b92:	79 f4       	brne	.+30     	; 0x4bb2 <__addsf3x+0x34>
    4b94:	a6 f5       	brtc	.+104    	; 0x4bfe <__addsf3x+0x80>
    4b96:	0c 94 65 27 	jmp	0x4eca	; 0x4eca <__fp_zero>
    4b9a:	0e f4       	brtc	.+2      	; 0x4b9e <__addsf3x+0x20>
    4b9c:	e0 95       	com	r30
    4b9e:	0b 2e       	mov	r0, r27
    4ba0:	ba 2f       	mov	r27, r26
    4ba2:	a0 2d       	mov	r26, r0
    4ba4:	0b 01       	movw	r0, r22
    4ba6:	b9 01       	movw	r22, r18
    4ba8:	90 01       	movw	r18, r0
    4baa:	0c 01       	movw	r0, r24
    4bac:	ca 01       	movw	r24, r20
    4bae:	a0 01       	movw	r20, r0
    4bb0:	11 24       	eor	r1, r1
    4bb2:	ff 27       	eor	r31, r31
    4bb4:	59 1b       	sub	r21, r25
    4bb6:	99 f0       	breq	.+38     	; 0x4bde <__addsf3x+0x60>
    4bb8:	59 3f       	cpi	r21, 0xF9	; 249
    4bba:	50 f4       	brcc	.+20     	; 0x4bd0 <__addsf3x+0x52>
    4bbc:	50 3e       	cpi	r21, 0xE0	; 224
    4bbe:	68 f1       	brcs	.+90     	; 0x4c1a <__addsf3x+0x9c>
    4bc0:	1a 16       	cp	r1, r26
    4bc2:	f0 40       	sbci	r31, 0x00	; 0
    4bc4:	a2 2f       	mov	r26, r18
    4bc6:	23 2f       	mov	r18, r19
    4bc8:	34 2f       	mov	r19, r20
    4bca:	44 27       	eor	r20, r20
    4bcc:	58 5f       	subi	r21, 0xF8	; 248
    4bce:	f3 cf       	rjmp	.-26     	; 0x4bb6 <__addsf3x+0x38>
    4bd0:	46 95       	lsr	r20
    4bd2:	37 95       	ror	r19
    4bd4:	27 95       	ror	r18
    4bd6:	a7 95       	ror	r26
    4bd8:	f0 40       	sbci	r31, 0x00	; 0
    4bda:	53 95       	inc	r21
    4bdc:	c9 f7       	brne	.-14     	; 0x4bd0 <__addsf3x+0x52>
    4bde:	7e f4       	brtc	.+30     	; 0x4bfe <__addsf3x+0x80>
    4be0:	1f 16       	cp	r1, r31
    4be2:	ba 0b       	sbc	r27, r26
    4be4:	62 0b       	sbc	r22, r18
    4be6:	73 0b       	sbc	r23, r19
    4be8:	84 0b       	sbc	r24, r20
    4bea:	ba f0       	brmi	.+46     	; 0x4c1a <__addsf3x+0x9c>
    4bec:	91 50       	subi	r25, 0x01	; 1
    4bee:	a1 f0       	breq	.+40     	; 0x4c18 <__addsf3x+0x9a>
    4bf0:	ff 0f       	add	r31, r31
    4bf2:	bb 1f       	adc	r27, r27
    4bf4:	66 1f       	adc	r22, r22
    4bf6:	77 1f       	adc	r23, r23
    4bf8:	88 1f       	adc	r24, r24
    4bfa:	c2 f7       	brpl	.-16     	; 0x4bec <__addsf3x+0x6e>
    4bfc:	0e c0       	rjmp	.+28     	; 0x4c1a <__addsf3x+0x9c>
    4bfe:	ba 0f       	add	r27, r26
    4c00:	62 1f       	adc	r22, r18
    4c02:	73 1f       	adc	r23, r19
    4c04:	84 1f       	adc	r24, r20
    4c06:	48 f4       	brcc	.+18     	; 0x4c1a <__addsf3x+0x9c>
    4c08:	87 95       	ror	r24
    4c0a:	77 95       	ror	r23
    4c0c:	67 95       	ror	r22
    4c0e:	b7 95       	ror	r27
    4c10:	f7 95       	ror	r31
    4c12:	9e 3f       	cpi	r25, 0xFE	; 254
    4c14:	08 f0       	brcs	.+2      	; 0x4c18 <__addsf3x+0x9a>
    4c16:	b0 cf       	rjmp	.-160    	; 0x4b78 <__addsf3+0x28>
    4c18:	93 95       	inc	r25
    4c1a:	88 0f       	add	r24, r24
    4c1c:	08 f0       	brcs	.+2      	; 0x4c20 <__addsf3x+0xa2>
    4c1e:	99 27       	eor	r25, r25
    4c20:	ee 0f       	add	r30, r30
    4c22:	97 95       	ror	r25
    4c24:	87 95       	ror	r24
    4c26:	08 95       	ret

00004c28 <__cmpsf2>:
    4c28:	0e 94 f7 26 	call	0x4dee	; 0x4dee <__fp_cmp>
    4c2c:	08 f4       	brcc	.+2      	; 0x4c30 <__cmpsf2+0x8>
    4c2e:	81 e0       	ldi	r24, 0x01	; 1
    4c30:	08 95       	ret

00004c32 <__divsf3>:
    4c32:	0e 94 2d 26 	call	0x4c5a	; 0x4c5a <__divsf3x>
    4c36:	0c 94 32 27 	jmp	0x4e64	; 0x4e64 <__fp_round>
    4c3a:	0e 94 2b 27 	call	0x4e56	; 0x4e56 <__fp_pscB>
    4c3e:	58 f0       	brcs	.+22     	; 0x4c56 <__divsf3+0x24>
    4c40:	0e 94 24 27 	call	0x4e48	; 0x4e48 <__fp_pscA>
    4c44:	40 f0       	brcs	.+16     	; 0x4c56 <__divsf3+0x24>
    4c46:	29 f4       	brne	.+10     	; 0x4c52 <__divsf3+0x20>
    4c48:	5f 3f       	cpi	r21, 0xFF	; 255
    4c4a:	29 f0       	breq	.+10     	; 0x4c56 <__divsf3+0x24>
    4c4c:	0c 94 1b 27 	jmp	0x4e36	; 0x4e36 <__fp_inf>
    4c50:	51 11       	cpse	r21, r1
    4c52:	0c 94 66 27 	jmp	0x4ecc	; 0x4ecc <__fp_szero>
    4c56:	0c 94 21 27 	jmp	0x4e42	; 0x4e42 <__fp_nan>

00004c5a <__divsf3x>:
    4c5a:	0e 94 43 27 	call	0x4e86	; 0x4e86 <__fp_split3>
    4c5e:	68 f3       	brcs	.-38     	; 0x4c3a <__divsf3+0x8>

00004c60 <__divsf3_pse>:
    4c60:	99 23       	and	r25, r25
    4c62:	b1 f3       	breq	.-20     	; 0x4c50 <__divsf3+0x1e>
    4c64:	55 23       	and	r21, r21
    4c66:	91 f3       	breq	.-28     	; 0x4c4c <__divsf3+0x1a>
    4c68:	95 1b       	sub	r25, r21
    4c6a:	55 0b       	sbc	r21, r21
    4c6c:	bb 27       	eor	r27, r27
    4c6e:	aa 27       	eor	r26, r26
    4c70:	62 17       	cp	r22, r18
    4c72:	73 07       	cpc	r23, r19
    4c74:	84 07       	cpc	r24, r20
    4c76:	38 f0       	brcs	.+14     	; 0x4c86 <__divsf3_pse+0x26>
    4c78:	9f 5f       	subi	r25, 0xFF	; 255
    4c7a:	5f 4f       	sbci	r21, 0xFF	; 255
    4c7c:	22 0f       	add	r18, r18
    4c7e:	33 1f       	adc	r19, r19
    4c80:	44 1f       	adc	r20, r20
    4c82:	aa 1f       	adc	r26, r26
    4c84:	a9 f3       	breq	.-22     	; 0x4c70 <__divsf3_pse+0x10>
    4c86:	35 d0       	rcall	.+106    	; 0x4cf2 <__divsf3_pse+0x92>
    4c88:	0e 2e       	mov	r0, r30
    4c8a:	3a f0       	brmi	.+14     	; 0x4c9a <__divsf3_pse+0x3a>
    4c8c:	e0 e8       	ldi	r30, 0x80	; 128
    4c8e:	32 d0       	rcall	.+100    	; 0x4cf4 <__divsf3_pse+0x94>
    4c90:	91 50       	subi	r25, 0x01	; 1
    4c92:	50 40       	sbci	r21, 0x00	; 0
    4c94:	e6 95       	lsr	r30
    4c96:	00 1c       	adc	r0, r0
    4c98:	ca f7       	brpl	.-14     	; 0x4c8c <__divsf3_pse+0x2c>
    4c9a:	2b d0       	rcall	.+86     	; 0x4cf2 <__divsf3_pse+0x92>
    4c9c:	fe 2f       	mov	r31, r30
    4c9e:	29 d0       	rcall	.+82     	; 0x4cf2 <__divsf3_pse+0x92>
    4ca0:	66 0f       	add	r22, r22
    4ca2:	77 1f       	adc	r23, r23
    4ca4:	88 1f       	adc	r24, r24
    4ca6:	bb 1f       	adc	r27, r27
    4ca8:	26 17       	cp	r18, r22
    4caa:	37 07       	cpc	r19, r23
    4cac:	48 07       	cpc	r20, r24
    4cae:	ab 07       	cpc	r26, r27
    4cb0:	b0 e8       	ldi	r27, 0x80	; 128
    4cb2:	09 f0       	breq	.+2      	; 0x4cb6 <__divsf3_pse+0x56>
    4cb4:	bb 0b       	sbc	r27, r27
    4cb6:	80 2d       	mov	r24, r0
    4cb8:	bf 01       	movw	r22, r30
    4cba:	ff 27       	eor	r31, r31
    4cbc:	93 58       	subi	r25, 0x83	; 131
    4cbe:	5f 4f       	sbci	r21, 0xFF	; 255
    4cc0:	3a f0       	brmi	.+14     	; 0x4cd0 <__divsf3_pse+0x70>
    4cc2:	9e 3f       	cpi	r25, 0xFE	; 254
    4cc4:	51 05       	cpc	r21, r1
    4cc6:	78 f0       	brcs	.+30     	; 0x4ce6 <__divsf3_pse+0x86>
    4cc8:	0c 94 1b 27 	jmp	0x4e36	; 0x4e36 <__fp_inf>
    4ccc:	0c 94 66 27 	jmp	0x4ecc	; 0x4ecc <__fp_szero>
    4cd0:	5f 3f       	cpi	r21, 0xFF	; 255
    4cd2:	e4 f3       	brlt	.-8      	; 0x4ccc <__divsf3_pse+0x6c>
    4cd4:	98 3e       	cpi	r25, 0xE8	; 232
    4cd6:	d4 f3       	brlt	.-12     	; 0x4ccc <__divsf3_pse+0x6c>
    4cd8:	86 95       	lsr	r24
    4cda:	77 95       	ror	r23
    4cdc:	67 95       	ror	r22
    4cde:	b7 95       	ror	r27
    4ce0:	f7 95       	ror	r31
    4ce2:	9f 5f       	subi	r25, 0xFF	; 255
    4ce4:	c9 f7       	brne	.-14     	; 0x4cd8 <__divsf3_pse+0x78>
    4ce6:	88 0f       	add	r24, r24
    4ce8:	91 1d       	adc	r25, r1
    4cea:	96 95       	lsr	r25
    4cec:	87 95       	ror	r24
    4cee:	97 f9       	bld	r25, 7
    4cf0:	08 95       	ret
    4cf2:	e1 e0       	ldi	r30, 0x01	; 1
    4cf4:	66 0f       	add	r22, r22
    4cf6:	77 1f       	adc	r23, r23
    4cf8:	88 1f       	adc	r24, r24
    4cfa:	bb 1f       	adc	r27, r27
    4cfc:	62 17       	cp	r22, r18
    4cfe:	73 07       	cpc	r23, r19
    4d00:	84 07       	cpc	r24, r20
    4d02:	ba 07       	cpc	r27, r26
    4d04:	20 f0       	brcs	.+8      	; 0x4d0e <__divsf3_pse+0xae>
    4d06:	62 1b       	sub	r22, r18
    4d08:	73 0b       	sbc	r23, r19
    4d0a:	84 0b       	sbc	r24, r20
    4d0c:	ba 0b       	sbc	r27, r26
    4d0e:	ee 1f       	adc	r30, r30
    4d10:	88 f7       	brcc	.-30     	; 0x4cf4 <__divsf3_pse+0x94>
    4d12:	e0 95       	com	r30
    4d14:	08 95       	ret

00004d16 <__fixunssfsi>:
    4d16:	0e 94 4b 27 	call	0x4e96	; 0x4e96 <__fp_splitA>
    4d1a:	88 f0       	brcs	.+34     	; 0x4d3e <__fixunssfsi+0x28>
    4d1c:	9f 57       	subi	r25, 0x7F	; 127
    4d1e:	98 f0       	brcs	.+38     	; 0x4d46 <__fixunssfsi+0x30>
    4d20:	b9 2f       	mov	r27, r25
    4d22:	99 27       	eor	r25, r25
    4d24:	b7 51       	subi	r27, 0x17	; 23
    4d26:	b0 f0       	brcs	.+44     	; 0x4d54 <__fixunssfsi+0x3e>
    4d28:	e1 f0       	breq	.+56     	; 0x4d62 <__fixunssfsi+0x4c>
    4d2a:	66 0f       	add	r22, r22
    4d2c:	77 1f       	adc	r23, r23
    4d2e:	88 1f       	adc	r24, r24
    4d30:	99 1f       	adc	r25, r25
    4d32:	1a f0       	brmi	.+6      	; 0x4d3a <__fixunssfsi+0x24>
    4d34:	ba 95       	dec	r27
    4d36:	c9 f7       	brne	.-14     	; 0x4d2a <__fixunssfsi+0x14>
    4d38:	14 c0       	rjmp	.+40     	; 0x4d62 <__fixunssfsi+0x4c>
    4d3a:	b1 30       	cpi	r27, 0x01	; 1
    4d3c:	91 f0       	breq	.+36     	; 0x4d62 <__fixunssfsi+0x4c>
    4d3e:	0e 94 65 27 	call	0x4eca	; 0x4eca <__fp_zero>
    4d42:	b1 e0       	ldi	r27, 0x01	; 1
    4d44:	08 95       	ret
    4d46:	0c 94 65 27 	jmp	0x4eca	; 0x4eca <__fp_zero>
    4d4a:	67 2f       	mov	r22, r23
    4d4c:	78 2f       	mov	r23, r24
    4d4e:	88 27       	eor	r24, r24
    4d50:	b8 5f       	subi	r27, 0xF8	; 248
    4d52:	39 f0       	breq	.+14     	; 0x4d62 <__fixunssfsi+0x4c>
    4d54:	b9 3f       	cpi	r27, 0xF9	; 249
    4d56:	cc f3       	brlt	.-14     	; 0x4d4a <__fixunssfsi+0x34>
    4d58:	86 95       	lsr	r24
    4d5a:	77 95       	ror	r23
    4d5c:	67 95       	ror	r22
    4d5e:	b3 95       	inc	r27
    4d60:	d9 f7       	brne	.-10     	; 0x4d58 <__fixunssfsi+0x42>
    4d62:	3e f4       	brtc	.+14     	; 0x4d72 <__fixunssfsi+0x5c>
    4d64:	90 95       	com	r25
    4d66:	80 95       	com	r24
    4d68:	70 95       	com	r23
    4d6a:	61 95       	neg	r22
    4d6c:	7f 4f       	sbci	r23, 0xFF	; 255
    4d6e:	8f 4f       	sbci	r24, 0xFF	; 255
    4d70:	9f 4f       	sbci	r25, 0xFF	; 255
    4d72:	08 95       	ret

00004d74 <__floatunsisf>:
    4d74:	e8 94       	clt
    4d76:	09 c0       	rjmp	.+18     	; 0x4d8a <__floatsisf+0x12>

00004d78 <__floatsisf>:
    4d78:	97 fb       	bst	r25, 7
    4d7a:	3e f4       	brtc	.+14     	; 0x4d8a <__floatsisf+0x12>
    4d7c:	90 95       	com	r25
    4d7e:	80 95       	com	r24
    4d80:	70 95       	com	r23
    4d82:	61 95       	neg	r22
    4d84:	7f 4f       	sbci	r23, 0xFF	; 255
    4d86:	8f 4f       	sbci	r24, 0xFF	; 255
    4d88:	9f 4f       	sbci	r25, 0xFF	; 255
    4d8a:	99 23       	and	r25, r25
    4d8c:	a9 f0       	breq	.+42     	; 0x4db8 <__floatsisf+0x40>
    4d8e:	f9 2f       	mov	r31, r25
    4d90:	96 e9       	ldi	r25, 0x96	; 150
    4d92:	bb 27       	eor	r27, r27
    4d94:	93 95       	inc	r25
    4d96:	f6 95       	lsr	r31
    4d98:	87 95       	ror	r24
    4d9a:	77 95       	ror	r23
    4d9c:	67 95       	ror	r22
    4d9e:	b7 95       	ror	r27
    4da0:	f1 11       	cpse	r31, r1
    4da2:	f8 cf       	rjmp	.-16     	; 0x4d94 <__floatsisf+0x1c>
    4da4:	fa f4       	brpl	.+62     	; 0x4de4 <__floatsisf+0x6c>
    4da6:	bb 0f       	add	r27, r27
    4da8:	11 f4       	brne	.+4      	; 0x4dae <__floatsisf+0x36>
    4daa:	60 ff       	sbrs	r22, 0
    4dac:	1b c0       	rjmp	.+54     	; 0x4de4 <__floatsisf+0x6c>
    4dae:	6f 5f       	subi	r22, 0xFF	; 255
    4db0:	7f 4f       	sbci	r23, 0xFF	; 255
    4db2:	8f 4f       	sbci	r24, 0xFF	; 255
    4db4:	9f 4f       	sbci	r25, 0xFF	; 255
    4db6:	16 c0       	rjmp	.+44     	; 0x4de4 <__floatsisf+0x6c>
    4db8:	88 23       	and	r24, r24
    4dba:	11 f0       	breq	.+4      	; 0x4dc0 <__floatsisf+0x48>
    4dbc:	96 e9       	ldi	r25, 0x96	; 150
    4dbe:	11 c0       	rjmp	.+34     	; 0x4de2 <__floatsisf+0x6a>
    4dc0:	77 23       	and	r23, r23
    4dc2:	21 f0       	breq	.+8      	; 0x4dcc <__floatsisf+0x54>
    4dc4:	9e e8       	ldi	r25, 0x8E	; 142
    4dc6:	87 2f       	mov	r24, r23
    4dc8:	76 2f       	mov	r23, r22
    4dca:	05 c0       	rjmp	.+10     	; 0x4dd6 <__floatsisf+0x5e>
    4dcc:	66 23       	and	r22, r22
    4dce:	71 f0       	breq	.+28     	; 0x4dec <__floatsisf+0x74>
    4dd0:	96 e8       	ldi	r25, 0x86	; 134
    4dd2:	86 2f       	mov	r24, r22
    4dd4:	70 e0       	ldi	r23, 0x00	; 0
    4dd6:	60 e0       	ldi	r22, 0x00	; 0
    4dd8:	2a f0       	brmi	.+10     	; 0x4de4 <__floatsisf+0x6c>
    4dda:	9a 95       	dec	r25
    4ddc:	66 0f       	add	r22, r22
    4dde:	77 1f       	adc	r23, r23
    4de0:	88 1f       	adc	r24, r24
    4de2:	da f7       	brpl	.-10     	; 0x4dda <__floatsisf+0x62>
    4de4:	88 0f       	add	r24, r24
    4de6:	96 95       	lsr	r25
    4de8:	87 95       	ror	r24
    4dea:	97 f9       	bld	r25, 7
    4dec:	08 95       	ret

00004dee <__fp_cmp>:
    4dee:	99 0f       	add	r25, r25
    4df0:	00 08       	sbc	r0, r0
    4df2:	55 0f       	add	r21, r21
    4df4:	aa 0b       	sbc	r26, r26
    4df6:	e0 e8       	ldi	r30, 0x80	; 128
    4df8:	fe ef       	ldi	r31, 0xFE	; 254
    4dfa:	16 16       	cp	r1, r22
    4dfc:	17 06       	cpc	r1, r23
    4dfe:	e8 07       	cpc	r30, r24
    4e00:	f9 07       	cpc	r31, r25
    4e02:	c0 f0       	brcs	.+48     	; 0x4e34 <__fp_cmp+0x46>
    4e04:	12 16       	cp	r1, r18
    4e06:	13 06       	cpc	r1, r19
    4e08:	e4 07       	cpc	r30, r20
    4e0a:	f5 07       	cpc	r31, r21
    4e0c:	98 f0       	brcs	.+38     	; 0x4e34 <__fp_cmp+0x46>
    4e0e:	62 1b       	sub	r22, r18
    4e10:	73 0b       	sbc	r23, r19
    4e12:	84 0b       	sbc	r24, r20
    4e14:	95 0b       	sbc	r25, r21
    4e16:	39 f4       	brne	.+14     	; 0x4e26 <__fp_cmp+0x38>
    4e18:	0a 26       	eor	r0, r26
    4e1a:	61 f0       	breq	.+24     	; 0x4e34 <__fp_cmp+0x46>
    4e1c:	23 2b       	or	r18, r19
    4e1e:	24 2b       	or	r18, r20
    4e20:	25 2b       	or	r18, r21
    4e22:	21 f4       	brne	.+8      	; 0x4e2c <__fp_cmp+0x3e>
    4e24:	08 95       	ret
    4e26:	0a 26       	eor	r0, r26
    4e28:	09 f4       	brne	.+2      	; 0x4e2c <__fp_cmp+0x3e>
    4e2a:	a1 40       	sbci	r26, 0x01	; 1
    4e2c:	a6 95       	lsr	r26
    4e2e:	8f ef       	ldi	r24, 0xFF	; 255
    4e30:	81 1d       	adc	r24, r1
    4e32:	81 1d       	adc	r24, r1
    4e34:	08 95       	ret

00004e36 <__fp_inf>:
    4e36:	97 f9       	bld	r25, 7
    4e38:	9f 67       	ori	r25, 0x7F	; 127
    4e3a:	80 e8       	ldi	r24, 0x80	; 128
    4e3c:	70 e0       	ldi	r23, 0x00	; 0
    4e3e:	60 e0       	ldi	r22, 0x00	; 0
    4e40:	08 95       	ret

00004e42 <__fp_nan>:
    4e42:	9f ef       	ldi	r25, 0xFF	; 255
    4e44:	80 ec       	ldi	r24, 0xC0	; 192
    4e46:	08 95       	ret

00004e48 <__fp_pscA>:
    4e48:	00 24       	eor	r0, r0
    4e4a:	0a 94       	dec	r0
    4e4c:	16 16       	cp	r1, r22
    4e4e:	17 06       	cpc	r1, r23
    4e50:	18 06       	cpc	r1, r24
    4e52:	09 06       	cpc	r0, r25
    4e54:	08 95       	ret

00004e56 <__fp_pscB>:
    4e56:	00 24       	eor	r0, r0
    4e58:	0a 94       	dec	r0
    4e5a:	12 16       	cp	r1, r18
    4e5c:	13 06       	cpc	r1, r19
    4e5e:	14 06       	cpc	r1, r20
    4e60:	05 06       	cpc	r0, r21
    4e62:	08 95       	ret

00004e64 <__fp_round>:
    4e64:	09 2e       	mov	r0, r25
    4e66:	03 94       	inc	r0
    4e68:	00 0c       	add	r0, r0
    4e6a:	11 f4       	brne	.+4      	; 0x4e70 <__fp_round+0xc>
    4e6c:	88 23       	and	r24, r24
    4e6e:	52 f0       	brmi	.+20     	; 0x4e84 <__fp_round+0x20>
    4e70:	bb 0f       	add	r27, r27
    4e72:	40 f4       	brcc	.+16     	; 0x4e84 <__fp_round+0x20>
    4e74:	bf 2b       	or	r27, r31
    4e76:	11 f4       	brne	.+4      	; 0x4e7c <__fp_round+0x18>
    4e78:	60 ff       	sbrs	r22, 0
    4e7a:	04 c0       	rjmp	.+8      	; 0x4e84 <__fp_round+0x20>
    4e7c:	6f 5f       	subi	r22, 0xFF	; 255
    4e7e:	7f 4f       	sbci	r23, 0xFF	; 255
    4e80:	8f 4f       	sbci	r24, 0xFF	; 255
    4e82:	9f 4f       	sbci	r25, 0xFF	; 255
    4e84:	08 95       	ret

00004e86 <__fp_split3>:
    4e86:	57 fd       	sbrc	r21, 7
    4e88:	90 58       	subi	r25, 0x80	; 128
    4e8a:	44 0f       	add	r20, r20
    4e8c:	55 1f       	adc	r21, r21
    4e8e:	59 f0       	breq	.+22     	; 0x4ea6 <__fp_splitA+0x10>
    4e90:	5f 3f       	cpi	r21, 0xFF	; 255
    4e92:	71 f0       	breq	.+28     	; 0x4eb0 <__fp_splitA+0x1a>
    4e94:	47 95       	ror	r20

00004e96 <__fp_splitA>:
    4e96:	88 0f       	add	r24, r24
    4e98:	97 fb       	bst	r25, 7
    4e9a:	99 1f       	adc	r25, r25
    4e9c:	61 f0       	breq	.+24     	; 0x4eb6 <__fp_splitA+0x20>
    4e9e:	9f 3f       	cpi	r25, 0xFF	; 255
    4ea0:	79 f0       	breq	.+30     	; 0x4ec0 <__fp_splitA+0x2a>
    4ea2:	87 95       	ror	r24
    4ea4:	08 95       	ret
    4ea6:	12 16       	cp	r1, r18
    4ea8:	13 06       	cpc	r1, r19
    4eaa:	14 06       	cpc	r1, r20
    4eac:	55 1f       	adc	r21, r21
    4eae:	f2 cf       	rjmp	.-28     	; 0x4e94 <__fp_split3+0xe>
    4eb0:	46 95       	lsr	r20
    4eb2:	f1 df       	rcall	.-30     	; 0x4e96 <__fp_splitA>
    4eb4:	08 c0       	rjmp	.+16     	; 0x4ec6 <__fp_splitA+0x30>
    4eb6:	16 16       	cp	r1, r22
    4eb8:	17 06       	cpc	r1, r23
    4eba:	18 06       	cpc	r1, r24
    4ebc:	99 1f       	adc	r25, r25
    4ebe:	f1 cf       	rjmp	.-30     	; 0x4ea2 <__fp_splitA+0xc>
    4ec0:	86 95       	lsr	r24
    4ec2:	71 05       	cpc	r23, r1
    4ec4:	61 05       	cpc	r22, r1
    4ec6:	08 94       	sec
    4ec8:	08 95       	ret

00004eca <__fp_zero>:
    4eca:	e8 94       	clt

00004ecc <__fp_szero>:
    4ecc:	bb 27       	eor	r27, r27
    4ece:	66 27       	eor	r22, r22
    4ed0:	77 27       	eor	r23, r23
    4ed2:	cb 01       	movw	r24, r22
    4ed4:	97 f9       	bld	r25, 7
    4ed6:	08 95       	ret

00004ed8 <__mulsf3>:
    4ed8:	0e 94 7f 27 	call	0x4efe	; 0x4efe <__mulsf3x>
    4edc:	0c 94 32 27 	jmp	0x4e64	; 0x4e64 <__fp_round>
    4ee0:	0e 94 24 27 	call	0x4e48	; 0x4e48 <__fp_pscA>
    4ee4:	38 f0       	brcs	.+14     	; 0x4ef4 <__mulsf3+0x1c>
    4ee6:	0e 94 2b 27 	call	0x4e56	; 0x4e56 <__fp_pscB>
    4eea:	20 f0       	brcs	.+8      	; 0x4ef4 <__mulsf3+0x1c>
    4eec:	95 23       	and	r25, r21
    4eee:	11 f0       	breq	.+4      	; 0x4ef4 <__mulsf3+0x1c>
    4ef0:	0c 94 1b 27 	jmp	0x4e36	; 0x4e36 <__fp_inf>
    4ef4:	0c 94 21 27 	jmp	0x4e42	; 0x4e42 <__fp_nan>
    4ef8:	11 24       	eor	r1, r1
    4efa:	0c 94 66 27 	jmp	0x4ecc	; 0x4ecc <__fp_szero>

00004efe <__mulsf3x>:
    4efe:	0e 94 43 27 	call	0x4e86	; 0x4e86 <__fp_split3>
    4f02:	70 f3       	brcs	.-36     	; 0x4ee0 <__mulsf3+0x8>

00004f04 <__mulsf3_pse>:
    4f04:	95 9f       	mul	r25, r21
    4f06:	c1 f3       	breq	.-16     	; 0x4ef8 <__mulsf3+0x20>
    4f08:	95 0f       	add	r25, r21
    4f0a:	50 e0       	ldi	r21, 0x00	; 0
    4f0c:	55 1f       	adc	r21, r21
    4f0e:	62 9f       	mul	r22, r18
    4f10:	f0 01       	movw	r30, r0
    4f12:	72 9f       	mul	r23, r18
    4f14:	bb 27       	eor	r27, r27
    4f16:	f0 0d       	add	r31, r0
    4f18:	b1 1d       	adc	r27, r1
    4f1a:	63 9f       	mul	r22, r19
    4f1c:	aa 27       	eor	r26, r26
    4f1e:	f0 0d       	add	r31, r0
    4f20:	b1 1d       	adc	r27, r1
    4f22:	aa 1f       	adc	r26, r26
    4f24:	64 9f       	mul	r22, r20
    4f26:	66 27       	eor	r22, r22
    4f28:	b0 0d       	add	r27, r0
    4f2a:	a1 1d       	adc	r26, r1
    4f2c:	66 1f       	adc	r22, r22
    4f2e:	82 9f       	mul	r24, r18
    4f30:	22 27       	eor	r18, r18
    4f32:	b0 0d       	add	r27, r0
    4f34:	a1 1d       	adc	r26, r1
    4f36:	62 1f       	adc	r22, r18
    4f38:	73 9f       	mul	r23, r19
    4f3a:	b0 0d       	add	r27, r0
    4f3c:	a1 1d       	adc	r26, r1
    4f3e:	62 1f       	adc	r22, r18
    4f40:	83 9f       	mul	r24, r19
    4f42:	a0 0d       	add	r26, r0
    4f44:	61 1d       	adc	r22, r1
    4f46:	22 1f       	adc	r18, r18
    4f48:	74 9f       	mul	r23, r20
    4f4a:	33 27       	eor	r19, r19
    4f4c:	a0 0d       	add	r26, r0
    4f4e:	61 1d       	adc	r22, r1
    4f50:	23 1f       	adc	r18, r19
    4f52:	84 9f       	mul	r24, r20
    4f54:	60 0d       	add	r22, r0
    4f56:	21 1d       	adc	r18, r1
    4f58:	82 2f       	mov	r24, r18
    4f5a:	76 2f       	mov	r23, r22
    4f5c:	6a 2f       	mov	r22, r26
    4f5e:	11 24       	eor	r1, r1
    4f60:	9f 57       	subi	r25, 0x7F	; 127
    4f62:	50 40       	sbci	r21, 0x00	; 0
    4f64:	9a f0       	brmi	.+38     	; 0x4f8c <__mulsf3_pse+0x88>
    4f66:	f1 f0       	breq	.+60     	; 0x4fa4 <__mulsf3_pse+0xa0>
    4f68:	88 23       	and	r24, r24
    4f6a:	4a f0       	brmi	.+18     	; 0x4f7e <__mulsf3_pse+0x7a>
    4f6c:	ee 0f       	add	r30, r30
    4f6e:	ff 1f       	adc	r31, r31
    4f70:	bb 1f       	adc	r27, r27
    4f72:	66 1f       	adc	r22, r22
    4f74:	77 1f       	adc	r23, r23
    4f76:	88 1f       	adc	r24, r24
    4f78:	91 50       	subi	r25, 0x01	; 1
    4f7a:	50 40       	sbci	r21, 0x00	; 0
    4f7c:	a9 f7       	brne	.-22     	; 0x4f68 <__mulsf3_pse+0x64>
    4f7e:	9e 3f       	cpi	r25, 0xFE	; 254
    4f80:	51 05       	cpc	r21, r1
    4f82:	80 f0       	brcs	.+32     	; 0x4fa4 <__mulsf3_pse+0xa0>
    4f84:	0c 94 1b 27 	jmp	0x4e36	; 0x4e36 <__fp_inf>
    4f88:	0c 94 66 27 	jmp	0x4ecc	; 0x4ecc <__fp_szero>
    4f8c:	5f 3f       	cpi	r21, 0xFF	; 255
    4f8e:	e4 f3       	brlt	.-8      	; 0x4f88 <__mulsf3_pse+0x84>
    4f90:	98 3e       	cpi	r25, 0xE8	; 232
    4f92:	d4 f3       	brlt	.-12     	; 0x4f88 <__mulsf3_pse+0x84>
    4f94:	86 95       	lsr	r24
    4f96:	77 95       	ror	r23
    4f98:	67 95       	ror	r22
    4f9a:	b7 95       	ror	r27
    4f9c:	f7 95       	ror	r31
    4f9e:	e7 95       	ror	r30
    4fa0:	9f 5f       	subi	r25, 0xFF	; 255
    4fa2:	c1 f7       	brne	.-16     	; 0x4f94 <__mulsf3_pse+0x90>
    4fa4:	fe 2b       	or	r31, r30
    4fa6:	88 0f       	add	r24, r24
    4fa8:	91 1d       	adc	r25, r1
    4faa:	96 95       	lsr	r25
    4fac:	87 95       	ror	r24
    4fae:	97 f9       	bld	r25, 7
    4fb0:	08 95       	ret

00004fb2 <__divmodsi4>:
    4fb2:	05 2e       	mov	r0, r21
    4fb4:	97 fb       	bst	r25, 7
    4fb6:	1e f4       	brtc	.+6      	; 0x4fbe <__divmodsi4+0xc>
    4fb8:	00 94       	com	r0
    4fba:	0e 94 f0 27 	call	0x4fe0	; 0x4fe0 <__negsi2>
    4fbe:	57 fd       	sbrc	r21, 7
    4fc0:	07 d0       	rcall	.+14     	; 0x4fd0 <__divmodsi4_neg2>
    4fc2:	0e 94 fe 27 	call	0x4ffc	; 0x4ffc <__udivmodsi4>
    4fc6:	07 fc       	sbrc	r0, 7
    4fc8:	03 d0       	rcall	.+6      	; 0x4fd0 <__divmodsi4_neg2>
    4fca:	4e f4       	brtc	.+18     	; 0x4fde <__divmodsi4_exit>
    4fcc:	0c 94 f0 27 	jmp	0x4fe0	; 0x4fe0 <__negsi2>

00004fd0 <__divmodsi4_neg2>:
    4fd0:	50 95       	com	r21
    4fd2:	40 95       	com	r20
    4fd4:	30 95       	com	r19
    4fd6:	21 95       	neg	r18
    4fd8:	3f 4f       	sbci	r19, 0xFF	; 255
    4fda:	4f 4f       	sbci	r20, 0xFF	; 255
    4fdc:	5f 4f       	sbci	r21, 0xFF	; 255

00004fde <__divmodsi4_exit>:
    4fde:	08 95       	ret

00004fe0 <__negsi2>:
    4fe0:	90 95       	com	r25
    4fe2:	80 95       	com	r24
    4fe4:	70 95       	com	r23
    4fe6:	61 95       	neg	r22
    4fe8:	7f 4f       	sbci	r23, 0xFF	; 255
    4fea:	8f 4f       	sbci	r24, 0xFF	; 255
    4fec:	9f 4f       	sbci	r25, 0xFF	; 255
    4fee:	08 95       	ret

00004ff0 <__tablejump2__>:
    4ff0:	ee 0f       	add	r30, r30
    4ff2:	ff 1f       	adc	r31, r31
    4ff4:	05 90       	lpm	r0, Z+
    4ff6:	f4 91       	lpm	r31, Z
    4ff8:	e0 2d       	mov	r30, r0
    4ffa:	09 94       	ijmp

00004ffc <__udivmodsi4>:
    4ffc:	a1 e2       	ldi	r26, 0x21	; 33
    4ffe:	1a 2e       	mov	r1, r26
    5000:	aa 1b       	sub	r26, r26
    5002:	bb 1b       	sub	r27, r27
    5004:	fd 01       	movw	r30, r26
    5006:	0d c0       	rjmp	.+26     	; 0x5022 <__udivmodsi4_ep>

00005008 <__udivmodsi4_loop>:
    5008:	aa 1f       	adc	r26, r26
    500a:	bb 1f       	adc	r27, r27
    500c:	ee 1f       	adc	r30, r30
    500e:	ff 1f       	adc	r31, r31
    5010:	a2 17       	cp	r26, r18
    5012:	b3 07       	cpc	r27, r19
    5014:	e4 07       	cpc	r30, r20
    5016:	f5 07       	cpc	r31, r21
    5018:	20 f0       	brcs	.+8      	; 0x5022 <__udivmodsi4_ep>
    501a:	a2 1b       	sub	r26, r18
    501c:	b3 0b       	sbc	r27, r19
    501e:	e4 0b       	sbc	r30, r20
    5020:	f5 0b       	sbc	r31, r21

00005022 <__udivmodsi4_ep>:
    5022:	66 1f       	adc	r22, r22
    5024:	77 1f       	adc	r23, r23
    5026:	88 1f       	adc	r24, r24
    5028:	99 1f       	adc	r25, r25
    502a:	1a 94       	dec	r1
    502c:	69 f7       	brne	.-38     	; 0x5008 <__udivmodsi4_loop>
    502e:	60 95       	com	r22
    5030:	70 95       	com	r23
    5032:	80 95       	com	r24
    5034:	90 95       	com	r25
    5036:	9b 01       	movw	r18, r22
    5038:	ac 01       	movw	r20, r24
    503a:	bd 01       	movw	r22, r26
    503c:	cf 01       	movw	r24, r30
    503e:	08 95       	ret

00005040 <eeprom_read_byte>:
    5040:	f9 99       	sbic	0x1f, 1	; 31
    5042:	fe cf       	rjmp	.-4      	; 0x5040 <eeprom_read_byte>
    5044:	92 bd       	out	0x22, r25	; 34
    5046:	81 bd       	out	0x21, r24	; 33
    5048:	f8 9a       	sbi	0x1f, 0	; 31
    504a:	99 27       	eor	r25, r25
    504c:	80 b5       	in	r24, 0x20	; 32
    504e:	08 95       	ret

00005050 <eeprom_read_word>:
    5050:	a8 e1       	ldi	r26, 0x18	; 24
    5052:	b0 e0       	ldi	r27, 0x00	; 0
    5054:	42 e0       	ldi	r20, 0x02	; 2
    5056:	50 e0       	ldi	r21, 0x00	; 0
    5058:	0c 94 48 28 	jmp	0x5090	; 0x5090 <eeprom_read_blraw>

0000505c <eeprom_update_byte>:
    505c:	26 2f       	mov	r18, r22

0000505e <eeprom_update_r18>:
    505e:	f9 99       	sbic	0x1f, 1	; 31
    5060:	fe cf       	rjmp	.-4      	; 0x505e <eeprom_update_r18>
    5062:	92 bd       	out	0x22, r25	; 34
    5064:	81 bd       	out	0x21, r24	; 33
    5066:	f8 9a       	sbi	0x1f, 0	; 31
    5068:	01 97       	sbiw	r24, 0x01	; 1
    506a:	00 b4       	in	r0, 0x20	; 32
    506c:	02 16       	cp	r0, r18
    506e:	39 f0       	breq	.+14     	; 0x507e <eeprom_update_r18+0x20>
    5070:	1f ba       	out	0x1f, r1	; 31
    5072:	20 bd       	out	0x20, r18	; 32
    5074:	0f b6       	in	r0, 0x3f	; 63
    5076:	f8 94       	cli
    5078:	fa 9a       	sbi	0x1f, 2	; 31
    507a:	f9 9a       	sbi	0x1f, 1	; 31
    507c:	0f be       	out	0x3f, r0	; 63
    507e:	08 95       	ret

00005080 <eeprom_update_word>:
    5080:	01 96       	adiw	r24, 0x01	; 1
    5082:	27 2f       	mov	r18, r23
    5084:	0e 94 2f 28 	call	0x505e	; 0x505e <eeprom_update_r18>
    5088:	0c 94 2e 28 	jmp	0x505c	; 0x505c <eeprom_update_byte>

0000508c <eeprom_read_block>:
    508c:	dc 01       	movw	r26, r24
    508e:	cb 01       	movw	r24, r22

00005090 <eeprom_read_blraw>:
    5090:	fc 01       	movw	r30, r24
    5092:	f9 99       	sbic	0x1f, 1	; 31
    5094:	fe cf       	rjmp	.-4      	; 0x5092 <eeprom_read_blraw+0x2>
    5096:	06 c0       	rjmp	.+12     	; 0x50a4 <eeprom_read_blraw+0x14>
    5098:	f2 bd       	out	0x22, r31	; 34
    509a:	e1 bd       	out	0x21, r30	; 33
    509c:	f8 9a       	sbi	0x1f, 0	; 31
    509e:	31 96       	adiw	r30, 0x01	; 1
    50a0:	00 b4       	in	r0, 0x20	; 32
    50a2:	0d 92       	st	X+, r0
    50a4:	41 50       	subi	r20, 0x01	; 1
    50a6:	50 40       	sbci	r21, 0x00	; 0
    50a8:	b8 f7       	brcc	.-18     	; 0x5098 <eeprom_read_blraw+0x8>
    50aa:	08 95       	ret

000050ac <_exit>:
    50ac:	f8 94       	cli

000050ae <__stop_program>:
    50ae:	ff cf       	rjmp	.-2      	; 0x50ae <__stop_program>
